(dp1
I0
(dp2
S'moveSeq'
p3
(lp4
S'oo0'
p5
ag5
asS'allFactors'
p6
c__builtin__
set
p7
((lp8
(S'ss1'
p9
S'ee1'
p10
tp11
a(g5
g5
tp12
a(S'se1'
p13
g13
tp14
a(S'nw1'
p15
g13
tp16
a(g9
g9
tp17
a(g10
g13
tp18
a(g9
S'sw1'
p19
tp20
a(g5
S'nn1'
p21
tp22
a(g5
S'ww1'
p23
tp24
a(g5
S'ne1'
p25
tp26
a(g10
g9
tp27
a(g15
g5
tp28
a(g23
g19
tp29
a(g13
g9
tp30
a(g21
g19
tp31
a(g15
g21
tp32
a(g9
g23
tp33
a(g25
g13
tp34
a(g5
g19
tp35
a(g15
g15
tp36
a(g21
g9
tp37
a(g23
g23
tp38
a(g15
g19
tp39
a(g19
g23
tp40
a(g25
g10
tp41
a(g25
g19
tp42
a(g23
g10
tp43
a(g9
g21
tp44
a(g21
g15
tp45
a(g23
g5
tp46
a(g21
g10
tp47
a(g5
g9
tp48
a(g25
g5
tp49
a(g25
g25
tp50
a(g25
g15
tp51
a(g5
g15
tp52
a(g9
g5
tp53
a(g13
g23
tp54
a(g15
g23
tp55
a(g10
g10
tp56
a(g21
g5
tp57
a(g19
g21
tp58
a(g23
g15
tp59
a(g19
g15
tp60
a(g15
g10
tp61
a(g19
g25
tp62
a(g13
g25
tp63
a(g21
g21
tp64
a(g13
g5
tp65
a(g13
g21
tp66
a(g9
g15
tp67
a(g10
g25
tp68
a(g23
g9
tp69
a(g19
g19
tp70
a(g10
g21
tp71
a(g19
g9
tp72
a(g5
g13
tp73
a(g5
g10
tp74
a(g19
g5
tp75
a(g25
g21
tp76
a(g13
g15
tp77
a(g21
g13
tp78
a(g10
g5
tp79
a(g25
g9
tp80
a(g15
g25
tp81
a(g23
g13
tp82
a(g25
g23
tp83
a(g19
g13
tp84
a(g15
g9
tp85
a(g9
g13
tp86
a(g10
g19
tp87
a(g10
g15
tp88
a(g9
g25
tp89
a(g10
g23
tp90
a(g21
g25
tp91
a(g13
g19
tp92
a(g19
g10
tp93
a(g21
g23
tp94
a(g13
g10
tp95
a(g23
g25
tp96
a(g23
g21
tp97
atRp98
sS'currFactors'
p99
g7
((lp100
(g13
g13
tp101
a(g15
g13
tp102
a(g9
g19
tp103
a(g5
g23
tp104
a(g21
g19
tp105
a(g15
g21
tp106
a(g19
g21
tp107
a(g25
g13
tp108
a(g5
g19
tp109
a(g15
g15
tp110
a(g21
g5
tp111
a(g10
g9
tp112
a(g19
g23
tp113
a(g25
g10
tp114
a(g9
g23
tp115
a(g19
g25
tp116
a(g23
g5
tp117
a(g5
g9
tp118
a(g25
g5
tp119
a(g25
g25
tp120
a(g21
g9
tp121
a(g15
g23
tp122
a(g23
g15
tp123
a(g15
g10
tp124
a(g13
g25
tp125
a(g13
g5
tp126
a(g13
g21
tp127
a(g9
g15
tp128
a(g23
g9
tp129
a(g19
g9
tp130
a(g25
g21
tp131
a(g13
g15
tp132
a(g21
g13
tp133
a(g25
g9
tp134
a(g23
g13
tp135
a(g19
g13
tp136
a(g9
g13
tp137
a(g10
g15
tp138
a(g5
g25
tp139
a(g21
g25
tp140
a(g23
g25
tp141
a(g23
g21
tp142
a(g5
g5
tp143
a(g13
g23
tp144
a(g23
g19
tp145
a(g10
g13
tp146
a(g5
g21
tp147
a(g19
g19
tp148
a(g25
g19
tp149
a(g15
g5
tp150
a(g21
g23
tp151
a(g13
g9
tp152
a(g21
g10
tp153
a(g9
g10
tp154
a(g15
g19
tp155
a(g23
g10
tp156
a(g9
g21
tp157
a(g21
g15
tp158
a(g5
g15
tp159
a(g9
g5
tp160
a(g19
g15
tp161
a(g25
g15
tp162
a(g10
g25
tp163
a(g10
g21
tp164
a(g5
g13
tp165
a(g5
g10
tp166
a(g19
g5
tp167
a(g10
g5
tp168
a(g15
g25
tp169
a(g25
g23
tp170
a(g15
g9
tp171
a(g10
g19
tp172
a(g9
g25
tp173
a(g10
g23
tp174
a(g13
g19
tp175
a(g19
g10
tp176
a(g13
g10
tp177
atRp178
sS'startState'
p179
(lp180
I1
aI4
asS'learningComplete'
p181
I01
sS'numIter'
p182
I78
sS'allowedFactors'
p183
g7
((lp184
g11
ag12
ag14
ag16
ag92
ag18
ag20
ag22
ag24
ag26
ag42
ag28
ag29
ag30
ag31
ag32
ag47
ag34
ag36
ag57
ag75
ag27
ag39
ag40
ag41
ag90
ag33
ag44
ag45
ag46
ag48
ag49
ag50
ag54
ag52
ag53
ag37
ag55
ag58
ag59
ag63
ag61
ag51
ag60
ag65
ag66
ag67
ag68
ag69
ag71
ag72
ag73
ag74
ag62
ag76
ag35
ag78
ag79
ag80
ag81
ag82
ag83
ag84
ag85
ag77
ag86
ag87
ag88
ag89
ag70
ag91
ag43
ag93
ag94
ag95
ag96
ag97
atRp185
ssI1
(dp186
g3
(lp187
g5
ag5
asg6
g98
sg99
g7
((lp188
(g13
g13
tp189
a(g15
g13
tp190
a(g9
g19
tp191
a(g5
g23
tp192
a(g21
g19
tp193
a(g15
g21
tp194
a(g19
g21
tp195
a(g25
g13
tp196
a(g15
g15
tp197
a(g21
g5
tp198
a(g10
g9
tp199
a(g19
g23
tp200
a(g25
g10
tp201
a(g9
g23
tp202
a(g13
g15
tp203
a(g23
g5
tp204
a(g5
g9
tp205
a(g25
g5
tp206
a(g25
g25
tp207
a(g13
g23
tp208
a(g15
g23
tp209
a(g23
g15
tp210
a(g15
g10
tp211
a(g19
g15
tp212
a(g13
g5
tp213
a(g13
g21
tp214
a(g9
g15
tp215
a(g10
g23
tp216
a(g19
g9
tp217
a(g25
g21
tp218
a(g5
g19
tp219
a(g21
g13
tp220
a(g25
g9
tp221
a(g23
g13
tp222
a(g19
g13
tp223
a(g9
g13
tp224
a(g10
g15
tp225
a(g5
g25
tp226
a(g21
g25
tp227
a(g23
g25
tp228
a(g23
g21
tp229
ag143
a(g21
g9
tp230
a(g10
g13
tp231
a(g5
g21
tp232
a(g19
g19
tp233
a(g25
g19
tp234
a(g15
g5
tp235
a(g23
g19
tp236
a(g21
g23
tp237
a(g21
g10
tp238
a(g13
g9
tp239
a(g9
g10
tp240
a(g15
g19
tp241
a(g23
g10
tp242
a(g9
g21
tp243
a(g21
g15
tp244
a(g13
g19
tp245
a(g9
g5
tp246
a(g25
g15
tp247
a(g13
g25
tp248
a(g19
g25
tp249
a(g10
g25
tp250
a(g10
g21
tp251
a(g5
g13
tp252
a(g5
g10
tp253
a(g19
g5
tp254
a(g10
g5
tp255
a(g15
g25
tp256
a(g25
g23
tp257
a(g15
g9
tp258
a(g10
g19
tp259
a(g9
g25
tp260
a(g23
g9
tp261
a(g5
g15
tp262
a(g19
g10
tp263
a(g13
g10
tp264
atRp265
sg179
(lp266
I4
aI5
asg181
I01
sg182
I122
sg183
g185
ssI2
(dp267
g3
(lp268
g5
ag5
asg6
g98
sg99
g7
((lp269
(g13
g13
tp270
a(g15
g13
tp271
a(g9
g19
tp272
a(g5
g23
tp273
a(g21
g19
tp274
a(g15
g21
tp275
a(g19
g21
tp276
a(g25
g13
tp277
a(g15
g15
tp278
a(g21
g5
tp279
a(g10
g9
tp280
a(g19
g23
tp281
a(g13
g9
tp282
a(g9
g23
tp283
a(g19
g25
tp284
a(g23
g5
tp285
a(g5
g9
tp286
a(g25
g5
tp287
a(g25
g25
tp288
a(g13
g23
tp289
a(g15
g23
tp290
a(g23
g15
tp291
a(g15
g10
tp292
a(g19
g15
tp293
a(g13
g5
tp294
a(g13
g21
tp295
a(g9
g15
tp296
a(g10
g23
tp297
a(g19
g9
tp298
a(g25
g21
tp299
a(g5
g19
tp300
a(g21
g13
tp301
a(g25
g9
tp302
a(g23
g13
tp303
a(g19
g13
tp304
a(g9
g13
tp305
a(g10
g15
tp306
a(g5
g25
tp307
a(g21
g25
tp308
a(g23
g25
tp309
a(g23
g21
tp310
ag143
a(g21
g9
tp311
a(g10
g13
tp312
a(g5
g21
tp313
a(g19
g19
tp314
a(g25
g19
tp315
a(g15
g5
tp316
a(g23
g19
tp317
a(g21
g23
tp318
a(g21
g10
tp319
a(g9
g10
tp320
a(g25
g10
tp321
a(g15
g19
tp322
a(g23
g10
tp323
a(g9
g21
tp324
a(g21
g15
tp325
a(g13
g19
tp326
a(g9
g5
tp327
a(g13
g25
tp328
a(g25
g15
tp329
a(g10
g25
tp330
a(g10
g21
tp331
a(g5
g13
tp332
a(g5
g10
tp333
a(g19
g5
tp334
a(g10
g5
tp335
a(g15
g25
tp336
a(g25
g23
tp337
a(g15
g9
tp338
a(g13
g15
tp339
a(g10
g19
tp340
a(g9
g25
tp341
a(g23
g9
tp342
a(g5
g15
tp343
a(g19
g10
tp344
a(g13
g10
tp345
atRp346
sg179
(lp347
I0
aI4
asg181
I01
sg182
I229
sg183
g185
ssI3
(dp348
g3
(lp349
g5
ag5
asg6
g98
sg99
g7
((lp350
(g13
g13
tp351
a(g15
g13
tp352
a(g9
g19
tp353
a(g5
g23
tp354
a(g21
g19
tp355
a(g15
g21
tp356
a(g19
g21
tp357
a(g25
g13
tp358
a(g15
g15
tp359
a(g21
g5
tp360
a(g10
g9
tp361
a(g19
g23
tp362
a(g25
g10
tp363
a(g9
g23
tp364
a(g13
g15
tp365
a(g23
g5
tp366
a(g5
g9
tp367
a(g25
g5
tp368
a(g25
g25
tp369
a(g21
g9
tp370
a(g15
g23
tp371
a(g23
g15
tp372
a(g15
g10
tp373
a(g19
g15
tp374
a(g13
g5
tp375
a(g13
g21
tp376
a(g9
g15
tp377
a(g10
g23
tp378
a(g19
g9
tp379
a(g25
g21
tp380
a(g5
g19
tp381
a(g21
g13
tp382
a(g25
g9
tp383
a(g23
g13
tp384
a(g19
g13
tp385
a(g9
g13
tp386
a(g10
g15
tp387
a(g5
g25
tp388
a(g21
g25
tp389
a(g23
g25
tp390
a(g23
g21
tp391
ag143
a(g13
g23
tp392
a(g10
g13
tp393
a(g5
g21
tp394
a(g19
g19
tp395
a(g25
g19
tp396
a(g15
g5
tp397
a(g23
g19
tp398
a(g13
g9
tp399
a(g21
g10
tp400
a(g9
g10
tp401
a(g15
g19
tp402
a(g23
g10
tp403
a(g9
g21
tp404
a(g21
g15
tp405
a(g13
g19
tp406
a(g9
g5
tp407
a(g25
g15
tp408
a(g13
g25
tp409
a(g19
g25
tp410
a(g10
g25
tp411
a(g10
g21
tp412
a(g5
g13
tp413
a(g5
g10
tp414
a(g19
g5
tp415
a(g10
g5
tp416
a(g15
g25
tp417
a(g25
g23
tp418
a(g15
g9
tp419
a(g10
g19
tp420
a(g9
g25
tp421
a(g23
g9
tp422
a(g5
g15
tp423
a(g19
g10
tp424
a(g21
g23
tp425
a(g13
g10
tp426
atRp427
sg179
(lp428
I0
aI2
asg181
I01
sg182
I172
sg183
g185
ssI4
(dp429
g3
(lp430
g5
ag5
asg6
g98
sg99
g7
((lp431
(g13
g13
tp432
a(g15
g13
tp433
a(g9
g19
tp434
a(g5
g23
tp435
a(g21
g19
tp436
a(g15
g21
tp437
a(g19
g21
tp438
a(g25
g13
tp439
a(g15
g15
tp440
a(g21
g5
tp441
a(g10
g9
tp442
a(g19
g23
tp443
a(g25
g10
tp444
a(g9
g23
tp445
a(g5
g19
tp446
a(g23
g5
tp447
a(g5
g9
tp448
a(g25
g5
tp449
a(g25
g25
tp450
a(g21
g9
tp451
a(g15
g23
tp452
a(g23
g15
tp453
a(g15
g10
tp454
a(g13
g25
tp455
a(g13
g5
tp456
a(g13
g21
tp457
a(g9
g15
tp458
a(g23
g9
tp459
a(g19
g9
tp460
a(g25
g21
tp461
a(g19
g25
tp462
a(g21
g13
tp463
a(g25
g9
tp464
a(g23
g13
tp465
a(g19
g13
tp466
a(g9
g13
tp467
a(g10
g15
tp468
a(g19
g19
tp469
a(g21
g25
tp470
a(g23
g25
tp471
a(g23
g21
tp472
ag143
a(g13
g23
tp473
a(g10
g13
tp474
a(g5
g21
tp475
a(g5
g25
tp476
a(g25
g19
tp477
a(g15
g5
tp478
a(g23
g19
tp479
a(g13
g9
tp480
a(g21
g10
tp481
a(g9
g10
tp482
a(g15
g19
tp483
a(g23
g10
tp484
a(g9
g21
tp485
a(g21
g15
tp486
a(g13
g19
tp487
a(g9
g5
tp488
a(g19
g15
tp489
a(g25
g15
tp490
a(g10
g25
tp491
a(g10
g21
tp492
a(g5
g13
tp493
a(g5
g10
tp494
a(g19
g5
tp495
a(g10
g5
tp496
a(g15
g25
tp497
a(g25
g23
tp498
a(g15
g9
tp499
a(g13
g15
tp500
a(g10
g19
tp501
a(g9
g25
tp502
a(g10
g23
tp503
a(g5
g15
tp504
a(g19
g10
tp505
a(g21
g23
tp506
a(g13
g10
tp507
atRp508
sg179
(lp509
I0
aI1
asg181
I01
sg182
I77
sg183
g185
ssI5
(dp510
g3
(lp511
g5
ag5
asg6
g98
sg99
g7
((lp512
(g13
g13
tp513
a(g15
g13
tp514
a(g9
g19
tp515
a(g5
g23
tp516
a(g21
g19
tp517
a(g15
g21
tp518
a(g19
g21
tp519
a(g25
g13
tp520
a(g15
g15
tp521
a(g21
g5
tp522
a(g10
g9
tp523
a(g19
g23
tp524
a(g25
g10
tp525
a(g9
g23
tp526
a(g19
g25
tp527
a(g23
g5
tp528
a(g25
g21
tp529
a(g25
g5
tp530
a(g25
g25
tp531
a(g13
g23
tp532
a(g15
g23
tp533
a(g23
g15
tp534
a(g15
g10
tp535
a(g13
g25
tp536
a(g13
g5
tp537
a(g13
g21
tp538
a(g9
g15
tp539
a(g10
g23
tp540
a(g19
g9
tp541
a(g5
g9
tp542
a(g5
g19
tp543
a(g21
g13
tp544
a(g25
g9
tp545
a(g23
g13
tp546
a(g19
g13
tp547
a(g9
g13
tp548
a(g10
g15
tp549
a(g19
g19
tp550
a(g21
g25
tp551
a(g23
g25
tp552
a(g23
g21
tp553
ag143
a(g21
g9
tp554
a(g10
g13
tp555
a(g5
g21
tp556
a(g5
g25
tp557
a(g25
g19
tp558
a(g15
g5
tp559
a(g23
g19
tp560
a(g13
g9
tp561
a(g21
g10
tp562
a(g9
g10
tp563
a(g15
g19
tp564
a(g23
g10
tp565
a(g9
g21
tp566
a(g21
g15
tp567
a(g13
g19
tp568
a(g9
g5
tp569
a(g19
g15
tp570
a(g25
g15
tp571
a(g10
g25
tp572
a(g10
g21
tp573
a(g5
g13
tp574
a(g5
g10
tp575
a(g19
g5
tp576
a(g10
g5
tp577
a(g15
g25
tp578
a(g25
g23
tp579
a(g15
g9
tp580
a(g13
g15
tp581
a(g10
g19
tp582
a(g9
g25
tp583
a(g23
g9
tp584
a(g5
g15
tp585
a(g19
g10
tp586
a(g21
g23
tp587
a(g13
g10
tp588
atRp589
sg179
(lp590
I2
aI4
asg181
I01
sg182
I76
sg183
g185
ssI6
(dp591
g3
(lp592
g5
ag5
asg6
g98
sg99
g7
((lp593
(g13
g13
tp594
a(g15
g13
tp595
a(g9
g19
tp596
a(g5
g23
tp597
a(g21
g19
tp598
a(g15
g21
tp599
a(g19
g21
tp600
a(g25
g13
tp601
a(g15
g15
tp602
a(g21
g5
tp603
a(g10
g9
tp604
a(g19
g23
tp605
a(g25
g10
tp606
a(g9
g23
tp607
a(g19
g25
tp608
a(g23
g5
tp609
a(g5
g9
tp610
a(g25
g5
tp611
a(g25
g25
tp612
a(g21
g9
tp613
a(g15
g23
tp614
a(g23
g15
tp615
a(g15
g10
tp616
a(g13
g25
tp617
a(g13
g5
tp618
a(g13
g21
tp619
a(g9
g15
tp620
a(g10
g23
tp621
a(g19
g9
tp622
a(g25
g21
tp623
a(g5
g19
tp624
a(g21
g13
tp625
a(g25
g9
tp626
a(g23
g13
tp627
a(g19
g13
tp628
a(g9
g13
tp629
a(g10
g15
tp630
a(g19
g19
tp631
a(g21
g25
tp632
a(g23
g25
tp633
a(g23
g21
tp634
ag143
a(g13
g23
tp635
a(g10
g13
tp636
a(g5
g21
tp637
a(g5
g25
tp638
a(g25
g19
tp639
a(g15
g5
tp640
a(g23
g19
tp641
a(g21
g23
tp642
a(g21
g10
tp643
a(g13
g9
tp644
a(g9
g10
tp645
a(g15
g19
tp646
a(g23
g10
tp647
a(g9
g21
tp648
a(g21
g15
tp649
a(g5
g15
tp650
a(g9
g5
tp651
a(g19
g15
tp652
a(g25
g15
tp653
a(g10
g25
tp654
a(g10
g21
tp655
a(g5
g13
tp656
a(g5
g10
tp657
a(g19
g5
tp658
a(g10
g5
tp659
a(g15
g25
tp660
a(g25
g23
tp661
a(g15
g9
tp662
a(g13
g15
tp663
a(g10
g19
tp664
a(g9
g25
tp665
a(g23
g9
tp666
a(g13
g19
tp667
a(g19
g10
tp668
a(g13
g10
tp669
atRp670
sg179
(lp671
I1
aI1
asg181
I01
sg182
I128
sg183
g185
ssI7
(dp672
g3
(lp673
g5
ag5
asg6
g98
sg99
g7
((lp674
(g13
g13
tp675
a(g15
g13
tp676
a(g19
g25
tp677
a(g9
g19
tp678
a(g5
g23
tp679
a(g21
g19
tp680
a(g15
g21
tp681
a(g19
g21
tp682
a(g25
g13
tp683
a(g15
g15
tp684
a(g21
g5
tp685
a(g10
g9
tp686
a(g19
g23
tp687
a(g25
g10
tp688
a(g9
g23
tp689
a(g13
g15
tp690
a(g23
g5
tp691
a(g25
g21
tp692
a(g25
g5
tp693
a(g25
g25
tp694
a(g21
g9
tp695
a(g15
g23
tp696
a(g23
g15
tp697
a(g15
g10
tp698
a(g13
g25
tp699
a(g13
g5
tp700
a(g13
g21
tp701
a(g9
g15
tp702
a(g23
g9
tp703
a(g19
g9
tp704
a(g5
g9
tp705
a(g5
g19
tp706
a(g21
g13
tp707
a(g25
g9
tp708
a(g23
g13
tp709
a(g19
g13
tp710
a(g9
g13
tp711
a(g10
g15
tp712
a(g19
g19
tp713
a(g21
g25
tp714
a(g23
g25
tp715
a(g23
g21
tp716
ag143
a(g13
g23
tp717
a(g10
g13
tp718
a(g5
g21
tp719
a(g5
g25
tp720
a(g25
g19
tp721
a(g15
g5
tp722
a(g23
g19
tp723
a(g13
g9
tp724
a(g21
g10
tp725
a(g9
g10
tp726
a(g15
g19
tp727
a(g23
g10
tp728
a(g9
g21
tp729
a(g21
g15
tp730
a(g5
g15
tp731
a(g9
g5
tp732
a(g19
g15
tp733
a(g25
g15
tp734
a(g10
g25
tp735
a(g10
g21
tp736
a(g5
g13
tp737
a(g5
g10
tp738
a(g19
g5
tp739
a(g10
g5
tp740
a(g15
g25
tp741
a(g25
g23
tp742
a(g15
g9
tp743
a(g10
g19
tp744
a(g9
g25
tp745
a(g10
g23
tp746
a(g13
g19
tp747
a(g19
g10
tp748
a(g21
g23
tp749
a(g13
g10
tp750
atRp751
sg179
(lp752
I2
aI0
asg181
I01
sg182
I122
sg183
g185
ssI8
(dp753
g3
(lp754
g5
ag5
asg6
g98
sg99
g7
((lp755
(g13
g13
tp756
a(g15
g13
tp757
a(g9
g19
tp758
a(g5
g23
tp759
a(g21
g19
tp760
a(g15
g21
tp761
a(g19
g21
tp762
a(g25
g13
tp763
a(g15
g15
tp764
a(g21
g5
tp765
a(g10
g9
tp766
a(g19
g23
tp767
a(g25
g10
tp768
a(g9
g23
tp769
a(g5
g19
tp770
a(g23
g5
tp771
a(g5
g9
tp772
a(g25
g5
tp773
a(g25
g25
tp774
a(g13
g23
tp775
a(g15
g23
tp776
a(g23
g15
tp777
a(g15
g10
tp778
a(g19
g15
tp779
a(g13
g5
tp780
a(g13
g21
tp781
a(g9
g15
tp782
a(g23
g9
tp783
a(g19
g9
tp784
a(g25
g21
tp785
a(g19
g25
tp786
a(g21
g13
tp787
a(g5
g21
tp788
a(g23
g13
tp789
a(g19
g13
tp790
a(g9
g13
tp791
a(g10
g15
tp792
a(g19
g19
tp793
a(g21
g25
tp794
a(g23
g25
tp795
a(g23
g21
tp796
ag143
a(g21
g9
tp797
a(g10
g13
tp798
a(g25
g9
tp799
a(g5
g25
tp800
a(g25
g19
tp801
a(g15
g5
tp802
a(g23
g19
tp803
a(g13
g9
tp804
a(g21
g10
tp805
a(g9
g10
tp806
a(g15
g19
tp807
a(g23
g10
tp808
a(g9
g21
tp809
a(g21
g15
tp810
a(g13
g19
tp811
a(g9
g5
tp812
a(g13
g25
tp813
a(g25
g15
tp814
a(g10
g25
tp815
a(g10
g21
tp816
a(g5
g13
tp817
a(g5
g10
tp818
a(g19
g5
tp819
a(g10
g5
tp820
a(g15
g25
tp821
a(g25
g23
tp822
a(g15
g9
tp823
a(g13
g15
tp824
a(g10
g19
tp825
a(g9
g25
tp826
a(g10
g23
tp827
a(g5
g15
tp828
a(g19
g10
tp829
a(g21
g23
tp830
a(g13
g10
tp831
atRp832
sg179
(lp833
I3
aI1
asg181
I01
sg182
I167
sg183
g185
ssI9
(dp834
g3
(lp835
g5
ag5
asg6
g98
sg99
g7
((lp836
(g13
g13
tp837
a(g15
g13
tp838
a(g9
g19
tp839
a(g5
g23
tp840
a(g21
g19
tp841
a(g15
g21
tp842
a(g19
g21
tp843
a(g25
g13
tp844
a(g15
g15
tp845
a(g21
g5
tp846
a(g10
g9
tp847
a(g19
g23
tp848
a(g25
g10
tp849
a(g9
g23
tp850
a(g5
g19
tp851
a(g23
g5
tp852
a(g5
g9
tp853
a(g25
g5
tp854
a(g25
g25
tp855
a(g13
g23
tp856
a(g15
g23
tp857
a(g23
g15
tp858
a(g15
g10
tp859
a(g13
g25
tp860
a(g13
g5
tp861
a(g13
g21
tp862
a(g9
g15
tp863
a(g10
g23
tp864
a(g19
g9
tp865
a(g25
g21
tp866
a(g19
g25
tp867
a(g21
g13
tp868
a(g25
g9
tp869
a(g23
g13
tp870
a(g19
g13
tp871
a(g9
g13
tp872
a(g10
g15
tp873
a(g5
g25
tp874
a(g21
g25
tp875
a(g23
g25
tp876
a(g23
g21
tp877
ag143
a(g21
g9
tp878
a(g10
g13
tp879
a(g5
g21
tp880
a(g19
g19
tp881
a(g25
g19
tp882
a(g15
g5
tp883
a(g23
g19
tp884
a(g13
g9
tp885
a(g21
g10
tp886
a(g9
g10
tp887
a(g15
g19
tp888
a(g23
g10
tp889
a(g9
g21
tp890
a(g21
g15
tp891
a(g5
g15
tp892
a(g9
g5
tp893
a(g19
g15
tp894
a(g25
g15
tp895
a(g10
g25
tp896
a(g10
g21
tp897
a(g5
g13
tp898
a(g5
g10
tp899
a(g19
g5
tp900
a(g10
g5
tp901
a(g15
g25
tp902
a(g25
g23
tp903
a(g15
g9
tp904
a(g13
g15
tp905
a(g10
g19
tp906
a(g9
g25
tp907
a(g23
g9
tp908
a(g13
g19
tp909
a(g19
g10
tp910
a(g21
g23
tp911
a(g13
g10
tp912
atRp913
sg179
(lp914
I3
aI5
asg181
I01
sg182
I173
sg183
g185
ss.