(iAutomata
BuchiAutomaton
p1
(dp2
S'lyapFun'
p3
(dp4
S'1'
I1
sS'0'
I1
sS'2'
F0
ssS'inputLanguage'
p5
c__builtin__
set
p6
((lp7
S'p2'
p8
aS'p3'
p9
aS'p1'
p10
atRp11
sS'currentStates'
p12
g6
((lp13
S'0'
atRp14
sS'graph'
p15
ccopy_reg
_reconstructor
p16
(cnetworkx.classes.multidigraph
MultiDiGraph
p17
c__builtin__
object
p18
NtRp19
(dp20
S'node'
p21
(dp22
S'1'
(dp23
S'shape'
p24
Vcircle
p25
sS'fontsize'
p26
V14
p27
sS'style'
p28
Vsolid
p29
sS'label'
p30
V1
ssS'0'
(dp31
S'shape'
p32
Vcircle
p33
sS'fontsize'
p34
V14
p35
sS'style'
p36
Vbold
p37
sS'label'
p38
V0
ssS'2'
(dp39
S'shape'
p40
Vdoublecircle
p41
sS'fontsize'
p42
V14
p43
sS'style'
p44
Vsolid
p45
sS'label'
p46
V2
sssg15
(dp47
g21
(dp48
Vshape
p49
V
sVfontsize
p50
V
sVstyle
p51
V
sVlabel
p52
Vdba_2.fsm
p53
ssg15
(dp54
Vrankdir
p55
VLR
p56
sVorientation
p57
VLandscape
p58
sVcenter
p59
V1
sVlabel
p60
Vdba_2.fsm
p61
sVranksep
p62
V0.400000
p63
sVfile
p64
VlearnSpec2.dot
p65
sVsize
p66
V8.5,11
p67
sVnodesep
p68
V0.250000
p69
ssS'edge'
p70
(dp71
Vfontsize
p72
V
sVlabel
p73
Vdba_2.fsm
p74
ssS'name'
p75
VFSM
p76
ssS'succ'
p77
(dp78
S'1'
(dp79
S'1'
(dp80
I0
(dp81
S'fontsize'
p82
V14
p83
sS'label'
p84
V(!p3)
p85
ssI1
(dp86
S'fontsize'
p87
V14
p88
sS'label'
p89
V(p1&&!p3)
p90
sssS'2'
(dp91
I0
(dp92
S'fontsize'
p93
V14
p94
sS'label'
p95
V(p2&&!p3)
p96
ssI1
(dp97
S'fontsize'
p98
V14
p99
sS'label'
p100
V(p1&&p2&&!p3)
p101
ssssS'0'
(dp102
S'1'
(dp103
I0
(dp104
S'fontsize'
p105
V14
p106
sS'label'
p107
V(p1&&!p3)
p108
sssS'0'
(dp109
I0
(dp110
S'fontsize'
p111
V14
p112
sS'label'
p113
V(!p3)
p114
ssI1
(dp115
S'fontsize'
p116
V14
p117
sS'label'
p118
V(p2&&!p3)
p119
sssS'2'
(dp120
I0
(dp121
S'fontsize'
p122
V14
p123
sS'label'
p124
V(p1&&p2&&!p3)
p125
ssssS'2'
(dp126
S'1'
(dp127
I0
(dp128
S'fontsize'
p129
V14
p130
sS'label'
p131
V(p1&&!p3)
p132
sssS'0'
(dp133
I0
(dp134
S'fontsize'
p135
V14
p136
sS'label'
p137
V(!p3)
p138
ssI1
(dp139
S'fontsize'
p140
V14
p141
sS'label'
p142
V(p2&&!p3)
p143
sssS'2'
(dp144
I0
(dp145
S'fontsize'
p146
V14
p147
sS'label'
p148
V(p1&&p2&&!p3)
p149
sssssg70
g78
sS'pred'
p150
(dp151
S'1'
(dp152
S'1'
g80
sS'0'
g103
sS'2'
g127
ssS'0'
(dp153
S'0'
g109
sS'2'
g133
ssS'2'
(dp154
S'1'
g91
sS'0'
g120
sS'2'
g144
sssS'adj'
p155
g78
sbsS'states'
p156
g6
((lp157
S'1'
aS'0'
aS'2'
atRp158
sS'acceptingStates'
p159
g6
((lp160
S'2'
atRp161
sS'initialStates'
p162
g6
((lp163
S'0'
atRp164
sb.