(lp1
(dp2
S'E0_12_R0_22_R1_00_T_R0'
p3
S'E0_12_R0_11_R1_00_T_R1'
p4
sS'E0_12_R0_22_R1_00_T_R1'
p5
S'E0_12_R0_22_R1_10_T_E0'
p6
sS'E0_22_R0_11_R1_11_T_E0'
p7
S'E0_22_R0_11_R1_11_T_R0'
p8
sS'E0_00_R0_20_R1_21_T_R0'
p9
S'E0_00_R0_20_R1_21_T_R1'
p10
sS'E0_00_R0_20_R1_21_T_R1'
p11
S'E0_00_R0_20_R1_22_T_E0'
p12
sS'E0_00_R0_21_R1_11_T_R0'
p13
S'E0_00_R0_20_R1_11_T_R1'
p14
sS'E0_01_R0_10_R1_01_T_E0'
p15
S'E0_01_R0_10_R1_01_T_R0'
p16
sS'E0_01_R0_01_R1_00_T_R1'
p17
S'E0_01_R0_01_R1_00_T_E0'
p18
sS'E0_11_R0_01_R1_22_T_E0'
p19
S'E0_11_R0_01_R1_22_T_R0'
p20
sS'E0_21_R0_22_R1_21_T_E0'
p21
S'E0_21_R0_22_R1_21_T_R0'
p22
sS'E0_00_R0_10_R1_10_T_R0'
p23
S'E0_00_R0_21_R1_10_T_R1'
p24
sS'E0_02_R0_01_R1_01_T_R1'
p25
S'E0_02_R0_01_R1_10_T_E0'
p26
sS'E0_02_R0_01_R1_01_T_R0'
p27
S'E0_02_R0_11_R1_01_T_R1'
p28
sS'E0_12_R0_10_R1_02_T_R1'
p29
S'E0_12_R0_10_R1_02_T_E0'
p30
sS'E0_12_R0_10_R1_02_T_R0'
p31
S'E0_12_R0_00_R1_02_T_R1'
p32
sS'E0_01_R0_12_R1_12_T_R0'
p33
S'E0_01_R0_22_R1_12_T_R1'
p34
sS'E0_01_R0_12_R1_12_T_R1'
p35
S'E0_01_R0_12_R1_22_T_E0'
p36
sS'E0_22_R0_01_R1_01_T_R1'
p37
S'E0_22_R0_01_R1_00_T_E0'
p38
sS'E0_22_R0_01_R1_01_T_R0'
p39
S'E0_22_R0_02_R1_01_T_R1'
p40
sS'E0_12_R0_01_R1_02_T_R1'
p41
S'E0_12_R0_01_R1_02_T_E0'
p42
sS'E0_11_R0_02_R1_20_T_E0'
p43
S'E0_11_R0_02_R1_20_T_R0'
p44
sS'E0_02_R0_22_R1_10_T_R0'
p45
S'E0_02_R0_22_R1_10_T_R1'
p46
sS'E0_02_R0_22_R1_10_T_R1'
p47
S'E0_02_R0_22_R1_20_T_E0'
p48
sS'E0_21_R0_00_R1_01_T_R1'
p49
S'E0_21_R0_00_R1_02_T_E0'
p50
sS'E0_21_R0_00_R1_01_T_R0'
p51
S'E0_21_R0_10_R1_01_T_R1'
p52
sS'E0_02_R0_22_R1_00_T_E0'
p53
S'E0_02_R0_22_R1_00_T_R0'
p54
sS'E0_22_R0_21_R1_22_T_E0'
p55
S'E0_22_R0_21_R1_22_T_R0'
p56
sS'E0_01_R0_10_R1_12_T_R0'
p57
S'E0_01_R0_20_R1_12_T_R1'
p58
sS'E0_01_R0_10_R1_12_T_R1'
p59
S'E0_01_R0_10_R1_22_T_E0'
p60
sS'E0_02_R0_21_R1_01_T_E0'
p61
S'E0_02_R0_21_R1_01_T_R0'
p62
sS'E0_11_R0_02_R1_01_T_R0'
p63
S'E0_11_R0_02_R1_01_T_R1'
p64
sS'E0_11_R0_02_R1_01_T_R1'
p65
S'E0_11_R0_02_R1_00_T_E0'
p66
sS'E0_00_R0_02_R1_01_T_R0'
p67
S'E0_00_R0_11_R1_01_T_R1'
p68
sS'E0_00_R0_02_R1_01_T_R1'
p69
S'E0_00_R0_02_R1_12_T_E0'
p70
sS'E0_21_R0_00_R1_12_T_E0'
p71
S'E0_21_R0_00_R1_12_T_R0'
p72
sS'E0_00_R0_02_R1_11_T_E0'
p73
S'E0_00_R0_02_R1_11_T_R0'
p74
sS'E0_00_R0_01_R1_01_T_R1'
p75
S'E0_00_R0_01_R1_12_T_E0'
p76
sS'E0_22_R0_02_R1_01_T_E0'
p77
S'E0_22_R0_02_R1_01_T_R0'
p78
sS'E0_21_R0_10_R1_00_T_E0'
p79
S'E0_21_R0_10_R1_00_T_R0'
p80
sS'E0_21_R0_11_R1_12_T_E0'
p81
S'E0_21_R0_11_R1_12_T_R0'
p82
sS'E0_21_R0_12_R1_10_T_R0'
p83
S'E0_21_R0_22_R1_10_T_R1'
p84
sS'E0_21_R0_12_R1_10_T_R1'
p85
S'E0_21_R0_12_R1_00_T_E0'
p86
sS'E0_20_R0_00_R1_10_T_R0'
p87
S'E0_20_R0_01_R1_10_T_R1'
p88
sS'E0_20_R0_00_R1_10_T_R1'
p89
S'E0_20_R0_00_R1_11_T_E0'
p90
sS'E0_12_R0_22_R1_11_T_E0'
p91
S'E0_12_R0_22_R1_11_T_R0'
p92
sS'E0_20_R0_00_R1_22_T_E0'
p93
S'E0_20_R0_00_R1_22_T_R0'
p94
sS'E0_10_R0_22_R1_20_T_R0'
p95
S'E0_10_R0_21_R1_20_T_R1'
p96
sS'E0_10_R0_22_R1_20_T_R1'
p97
S'E0_10_R0_22_R1_21_T_E0'
p98
sS'E0_21_R0_22_R1_00_T_E0'
p99
S'E0_21_R0_22_R1_00_T_R0'
p100
sS'E0_00_R0_21_R1_01_T_E0'
p101
S'E0_00_R0_21_R1_01_T_R0'
p102
sS'E0_02_R0_22_R1_11_T_R1'
p103
S'E0_02_R0_22_R1_20_T_E0'
p104
sS'E0_02_R0_22_R1_11_T_R0'
p105
S'E0_02_R0_12_R1_11_T_R1'
p106
sS'E0_01_R0_12_R1_21_T_E0'
p107
S'E0_01_R0_12_R1_21_T_R0'
p108
sS'E0_01_R0_10_R1_00_T_R1'
p109
S'E0_01_R0_10_R1_00_T_E0'
p110
sS'E0_01_R0_10_R1_00_T_R0'
p111
S'E0_01_R0_20_R1_00_T_R1'
p112
sS'E0_21_R0_21_R1_02_T_R1'
p113
S'E0_21_R0_21_R1_02_T_E0'
p114
sS'E0_20_R0_21_R1_00_T_E0'
p115
S'E0_20_R0_21_R1_00_T_R0'
p116
sS'E0_21_R0_00_R1_22_T_E0'
p117
S'E0_21_R0_00_R1_22_T_R0'
p118
sS'E0_00_R0_11_R1_00_T_E0'
p119
S'E0_00_R0_11_R1_00_T_R0'
p120
sS'E0_20_R0_20_R1_12_T_R1'
p121
S'E0_20_R0_20_R1_12_T_E0'
p122
sS'E0_01_R0_22_R1_21_T_E0'
p123
S'E0_01_R0_22_R1_21_T_R0'
p124
sS'E0_22_R0_00_R1_20_T_E0'
p125
S'E0_22_R0_00_R1_20_T_R0'
p126
sS'E0_22_R0_02_R1_20_T_E0'
p127
S'E0_22_R0_02_R1_20_T_R0'
p128
sS'E0_01_R0_00_R1_22_T_E0'
p129
S'E0_01_R0_00_R1_22_T_R0'
p130
sS'E0_22_R0_01_R1_11_T_E0'
p131
S'E0_22_R0_01_R1_11_T_R0'
p132
sS'E0_00_R0_10_R1_22_T_R0'
p133
S'E0_00_R0_20_R1_22_T_R1'
p134
sS'E0_00_R0_10_R1_22_T_R1'
p135
S'E0_00_R0_10_R1_21_T_E0'
p136
sS'E0_00_R0_10_R1_10_T_R1'
p137
S'E0_00_R0_10_R1_21_T_E0'
p138
sS'E0_11_R0_22_R1_00_T_E0'
p139
S'E0_11_R0_22_R1_00_T_R0'
p140
sS'E0_20_R0_22_R1_02_T_E0'
p141
S'E0_20_R0_22_R1_02_T_R0'
p142
sS'E0_21_R0_01_R1_12_T_E0'
p143
S'E0_21_R0_01_R1_12_T_R0'
p144
sS'E0_12_R0_10_R1_20_T_E0'
p145
S'E0_12_R0_10_R1_20_T_R0'
p146
sS'E0_02_R0_00_R1_10_T_E0'
p147
S'E0_02_R0_00_R1_10_T_R0'
p148
sS'E0_12_R0_10_R1_11_T_R0'
p149
S'E0_12_R0_00_R1_11_T_R1'
p150
sS'E0_20_R0_12_R1_20_T_E0'
p151
S'E0_20_R0_12_R1_20_T_R0'
p152
sS'E0_02_R0_12_R1_21_T_E0'
p153
S'E0_02_R0_12_R1_21_T_R0'
p154
sS'E0_11_R0_00_R1_00_T_R1'
p155
S'E0_11_R0_00_R1_10_T_E0'
p156
sS'E0_11_R0_00_R1_00_T_R0'
p157
S'E0_11_R0_01_R1_00_T_R1'
p158
sS'E0_12_R0_02_R1_12_T_E0'
p159
S'E0_12_R0_02_R1_12_T_R0'
p160
sS'E0_00_R0_21_R1_02_T_R1'
p161
S'E0_00_R0_21_R1_02_T_E0'
p162
sS'E0_22_R0_20_R1_02_T_R1'
p163
S'E0_22_R0_20_R1_11_T_E0'
p164
sS'E0_12_R0_10_R1_01_T_E0'
p165
S'E0_12_R0_10_R1_01_T_R0'
p166
sS'E0_12_R0_01_R1_10_T_R0'
p167
S'E0_12_R0_00_R1_10_T_R1'
p168
sS'E0_12_R0_01_R1_10_T_R1'
p169
S'E0_12_R0_01_R1_20_T_E0'
p170
sS'E0_20_R0_20_R1_00_T_R1'
p171
S'E0_20_R0_20_R1_00_T_E0'
p172
sS'E0_12_R0_01_R1_11_T_E0'
p173
S'E0_12_R0_01_R1_11_T_R0'
p174
sS'E0_01_R0_21_R1_02_T_E0'
p175
S'E0_01_R0_21_R1_02_T_R0'
p176
sS'E0_20_R0_11_R1_12_T_R1'
p177
S'E0_20_R0_11_R1_02_T_E0'
p178
sS'E0_01_R0_11_R1_11_T_R0'
p179
S'E0_01_R0_00_R1_11_T_R1'
p180
sS'E0_01_R0_11_R1_11_T_R1'
p181
S'E0_01_R0_11_R1_22_T_E0'
p182
sS'E0_21_R0_22_R1_01_T_E0'
p183
S'E0_21_R0_22_R1_01_T_R0'
p184
sS'E0_10_R0_22_R1_21_T_E0'
p185
S'E0_10_R0_22_R1_21_T_R0'
p186
sS'E0_22_R0_12_R1_02_T_R0'
p187
S'E0_22_R0_01_R1_02_T_R1'
p188
sS'E0_22_R0_12_R1_02_T_R1'
p189
S'E0_22_R0_12_R1_11_T_E0'
p190
sS'E0_02_R0_20_R1_22_T_R1'
p191
S'E0_02_R0_20_R1_21_T_E0'
p192
sS'E0_02_R0_20_R1_22_T_R0'
p193
S'E0_02_R0_20_R1_22_T_R1'
p194
sS'E0_12_R0_10_R1_22_T_E0'
p195
S'E0_12_R0_10_R1_22_T_R0'
p196
sS'E0_10_R0_00_R1_21_T_E0'
p197
S'E0_10_R0_00_R1_21_T_R0'
p198
sS'E0_12_R0_01_R1_02_T_R0'
p199
S'E0_12_R0_00_R1_02_T_R1'
p200
sS'E0_21_R0_01_R1_20_T_E0'
p201
S'E0_21_R0_01_R1_20_T_R0'
p202
sS'E0_00_R0_10_R1_11_T_R0'
p203
S'E0_00_R0_20_R1_11_T_R1'
p204
sS'E0_00_R0_10_R1_11_T_R1'
p205
S'E0_00_R0_10_R1_22_T_E0'
p206
sS'E0_22_R0_01_R1_10_T_R1'
p207
S'E0_22_R0_01_R1_20_T_E0'
p208
sS'E0_22_R0_01_R1_10_T_R0'
p209
S'E0_22_R0_00_R1_10_T_R1'
p210
sS'E0_22_R0_22_R1_21_T_R1'
p211
S'E0_22_R0_22_R1_21_T_E0'
p212
sS'E0_11_R0_10_R1_21_T_E0'
p213
S'E0_11_R0_10_R1_21_T_R0'
p214
sS'E0_00_R0_11_R1_01_T_R0'
p215
S'E0_00_R0_22_R1_01_T_R1'
p216
sS'E0_22_R0_00_R1_10_T_E0'
p217
S'E0_22_R0_00_R1_10_T_R0'
p218
sS'E0_12_R0_10_R1_21_T_R0'
p219
S'E0_12_R0_20_R1_21_T_R1'
p220
sS'E0_12_R0_10_R1_21_T_R1'
p221
S'E0_12_R0_10_R1_20_T_E0'
p222
sS'E0_11_R0_20_R1_02_T_R1'
p223
S'E0_11_R0_20_R1_12_T_E0'
p224
sS'E0_11_R0_20_R1_02_T_R0'
p225
S'E0_11_R0_21_R1_02_T_R1'
p226
sS'E0_11_R0_00_R1_20_T_E0'
p227
S'E0_11_R0_00_R1_20_T_R0'
p228
sS'E0_02_R0_22_R1_22_T_E0'
p229
S'E0_02_R0_22_R1_22_T_R0'
p230
sS'E0_00_R0_01_R1_02_T_R0'
p231
S'E0_00_R0_11_R1_02_T_R1'
p232
sS'E0_00_R0_01_R1_02_T_R1'
p233
S'E0_00_R0_01_R1_12_T_E0'
p234
sS'E0_21_R0_22_R1_02_T_E0'
p235
S'E0_21_R0_22_R1_02_T_R0'
p236
sS'E0_22_R0_21_R1_01_T_R1'
p237
S'E0_22_R0_21_R1_00_T_E0'
p238
sS'E0_22_R0_21_R1_01_T_R0'
p239
S'E0_22_R0_20_R1_01_T_R1'
p240
sS'E0_22_R0_02_R1_02_T_R1'
p241
S'E0_22_R0_02_R1_01_T_E0'
p242
sS'E0_22_R0_02_R1_02_T_R0'
p243
S'E0_22_R0_01_R1_02_T_R1'
p244
sS'E0_21_R0_02_R1_11_T_E0'
p245
S'E0_21_R0_02_R1_11_T_R0'
p246
sS'E0_21_R0_00_R1_20_T_E0'
p247
S'E0_21_R0_00_R1_20_T_R0'
p248
sS'E0_22_R0_11_R1_11_T_R1'
p249
S'E0_22_R0_11_R1_20_T_E0'
p250
sS'E0_22_R0_11_R1_11_T_R0'
p251
S'E0_22_R0_02_R1_11_T_R1'
p252
sS'E0_21_R0_02_R1_01_T_E0'
p253
S'E0_21_R0_02_R1_01_T_R0'
p254
sS'E0_11_R0_22_R1_02_T_E0'
p255
S'E0_11_R0_22_R1_02_T_R0'
p256
sS'E0_00_R0_10_R1_00_T_E0'
p257
S'E0_00_R0_10_R1_00_T_R0'
p258
sS'E0_02_R0_22_R1_00_T_R1'
p259
S'E0_02_R0_22_R1_11_T_E0'
p260
sS'E0_20_R0_21_R1_22_T_R0'
p261
S'E0_20_R0_11_R1_22_T_R1'
p262
sS'E0_20_R0_21_R1_22_T_R1'
p263
S'E0_20_R0_21_R1_12_T_E0'
p264
sS'E0_00_R0_20_R1_02_T_E0'
p265
S'E0_00_R0_20_R1_02_T_R0'
p266
sS'E0_10_R0_21_R1_02_T_E0'
p267
S'E0_10_R0_21_R1_02_T_R0'
p268
sS'E0_20_R0_22_R1_22_T_R0'
p269
S'E0_20_R0_11_R1_22_T_R1'
p270
sS'E0_02_R0_10_R1_21_T_E0'
p271
S'E0_02_R0_10_R1_21_T_R0'
p272
sS'E0_10_R0_21_R1_02_T_R0'
p273
S'E0_10_R0_22_R1_02_T_R1'
p274
sS'E0_21_R0_21_R1_20_T_R1'
p275
S'E0_21_R0_21_R1_20_T_E0'
p276
sS'E0_01_R0_22_R1_02_T_E0'
p277
S'E0_01_R0_22_R1_02_T_R0'
p278
sS'E0_20_R0_22_R1_12_T_E0'
p279
S'E0_20_R0_22_R1_12_T_R0'
p280
sS'E0_21_R0_21_R1_00_T_R1'
p281
S'E0_21_R0_21_R1_00_T_E0'
p282
sS'E0_21_R0_00_R1_11_T_E0'
p283
S'E0_21_R0_00_R1_11_T_R0'
p284
sS'E0_20_R0_22_R1_00_T_E0'
p285
S'E0_20_R0_22_R1_00_T_R0'
p286
sS'E0_21_R0_12_R1_00_T_R1'
p287
S'E0_21_R0_12_R1_11_T_E0'
p288
sS'E0_21_R0_20_R1_12_T_E0'
p289
S'E0_21_R0_20_R1_12_T_R0'
p290
sS'E0_11_R0_20_R1_12_T_E0'
p291
S'E0_11_R0_20_R1_12_T_R0'
p292
sS'E0_10_R0_00_R1_22_T_R0'
p293
S'E0_10_R0_11_R1_22_T_R1'
p294
sS'E0_10_R0_00_R1_22_T_R1'
p295
S'E0_10_R0_00_R1_21_T_E0'
p296
sS'E0_00_R0_02_R1_11_T_R1'
p297
S'E0_00_R0_02_R1_22_T_E0'
p298
sS'E0_00_R0_02_R1_11_T_R0'
p299
S'E0_00_R0_02_R1_11_T_R1'
p300
sS'E0_11_R0_12_R1_20_T_R0'
p301
S'E0_11_R0_22_R1_20_T_R1'
p302
sS'E0_11_R0_12_R1_20_T_R1'
p303
S'E0_11_R0_12_R1_20_T_E0'
p304
sS'E0_22_R0_21_R1_02_T_E0'
p305
S'E0_22_R0_21_R1_02_T_R0'
p306
sS'E0_00_R0_10_R1_22_T_E0'
p307
S'E0_00_R0_10_R1_22_T_R0'
p308
sS'E0_02_R0_20_R1_00_T_E0'
p309
S'E0_02_R0_20_R1_00_T_R0'
p310
sS'E0_01_R0_12_R1_20_T_E0'
p311
S'E0_01_R0_12_R1_20_T_R0'
p312
sS'E0_02_R0_21_R1_00_T_R1'
p313
S'E0_02_R0_21_R1_01_T_E0'
p314
sS'E0_22_R0_20_R1_00_T_R1'
p315
S'E0_22_R0_20_R1_00_T_E0'
p316
sS'E0_11_R0_21_R1_01_T_R1'
p317
S'E0_11_R0_21_R1_00_T_E0'
p318
sS'E0_11_R0_21_R1_01_T_R0'
p319
S'E0_11_R0_22_R1_01_T_R1'
p320
sS'E0_21_R0_11_R1_01_T_E0'
p321
S'E0_21_R0_11_R1_01_T_R0'
p322
sS'E0_20_R0_01_R1_22_T_E0'
p323
S'E0_20_R0_01_R1_22_T_R0'
p324
sS'E0_21_R0_11_R1_22_T_R0'
p325
S'E0_21_R0_20_R1_22_T_R1'
p326
sS'E0_00_R0_01_R1_22_T_R0'
p327
S'E0_00_R0_02_R1_22_T_R1'
p328
sS'E0_00_R0_01_R1_22_T_R1'
p329
S'E0_00_R0_01_R1_12_T_E0'
p330
sS'E0_02_R0_01_R1_00_T_E0'
p331
S'E0_02_R0_01_R1_00_T_R0'
p332
sS'E0_00_R0_11_R1_10_T_R0'
p333
S'E0_00_R0_22_R1_10_T_R1'
p334
sS'E0_00_R0_11_R1_10_T_R1'
p335
S'E0_00_R0_11_R1_20_T_E0'
p336
sS'E0_11_R0_00_R1_02_T_R1'
p337
S'E0_11_R0_00_R1_01_T_E0'
p338
sS'E0_11_R0_00_R1_02_T_R0'
p339
S'E0_11_R0_10_R1_02_T_R1'
p340
sS'E0_01_R0_12_R1_00_T_E0'
p341
S'E0_01_R0_12_R1_00_T_R0'
p342
sS'E0_02_R0_22_R1_10_T_E0'
p343
S'E0_02_R0_22_R1_10_T_R0'
p344
sS'E0_02_R0_20_R1_11_T_R1'
p345
S'E0_02_R0_20_R1_00_T_E0'
p346
sS'E0_02_R0_20_R1_11_T_R0'
p347
S'E0_02_R0_20_R1_11_T_R1'
p348
sS'E0_10_R0_20_R1_20_T_E0'
p349
S'E0_10_R0_20_R1_20_T_R0'
p350
sS'E0_12_R0_00_R1_02_T_E0'
p351
S'E0_12_R0_00_R1_02_T_R0'
p352
sS'E0_01_R0_12_R1_01_T_E0'
p353
S'E0_01_R0_12_R1_01_T_R0'
p354
sS'E0_11_R0_12_R1_21_T_R1'
p355
S'E0_11_R0_12_R1_20_T_E0'
p356
sS'E0_11_R0_12_R1_21_T_R0'
p357
S'E0_11_R0_02_R1_21_T_R1'
p358
sS'E0_10_R0_00_R1_21_T_R1'
p359
S'E0_10_R0_00_R1_20_T_E0'
p360
sS'E0_10_R0_00_R1_21_T_R0'
p361
S'E0_10_R0_01_R1_21_T_R1'
p362
sS'E0_21_R0_12_R1_11_T_R1'
p363
S'E0_21_R0_12_R1_02_T_E0'
p364
sS'E0_21_R0_12_R1_11_T_R0'
p365
S'E0_21_R0_22_R1_11_T_R1'
p366
sS'E0_11_R0_02_R1_02_T_R1'
p367
S'E0_11_R0_02_R1_01_T_E0'
p368
sS'E0_11_R0_02_R1_02_T_R0'
p369
S'E0_11_R0_12_R1_02_T_R1'
p370
sS'E0_22_R0_11_R1_02_T_E0'
p371
S'E0_22_R0_11_R1_02_T_R0'
p372
sS'E0_00_R0_22_R1_01_T_R0'
p373
S'E0_00_R0_22_R1_01_T_R1'
p374
sS'E0_11_R0_00_R1_12_T_E0'
p375
S'E0_11_R0_00_R1_12_T_R0'
p376
sS'E0_01_R0_12_R1_02_T_R0'
p377
S'E0_01_R0_22_R1_02_T_R1'
p378
sS'E0_20_R0_21_R1_11_T_E0'
p379
S'E0_20_R0_21_R1_11_T_R0'
p380
sS'E0_01_R0_11_R1_02_T_E0'
p381
S'E0_01_R0_11_R1_02_T_R0'
p382
sS'E0_12_R0_01_R1_20_T_E0'
p383
S'E0_12_R0_01_R1_20_T_R0'
p384
sS'E0_02_R0_10_R1_00_T_R1'
p385
S'E0_02_R0_10_R1_00_T_E0'
p386
sS'E0_11_R0_22_R1_01_T_R0'
p387
S'E0_11_R0_21_R1_01_T_R1'
p388
sS'E0_11_R0_22_R1_01_T_R1'
p389
S'E0_11_R0_22_R1_02_T_E0'
p390
sS'E0_20_R0_02_R1_01_T_R0'
p391
S'E0_20_R0_02_R1_01_T_R1'
p392
sS'E0_20_R0_02_R1_01_T_R1'
p393
S'E0_20_R0_02_R1_00_T_E0'
p394
sS'E0_11_R0_22_R1_00_T_R1'
p395
S'E0_11_R0_22_R1_01_T_E0'
p396
sS'E0_11_R0_22_R1_00_T_R0'
p397
S'E0_11_R0_21_R1_00_T_R1'
p398
sS'E0_10_R0_12_R1_20_T_E0'
p399
S'E0_10_R0_12_R1_20_T_R0'
p400
sS'E0_10_R0_11_R1_11_T_E0'
p401
S'E0_10_R0_11_R1_11_T_R0'
p402
sS'E0_00_R0_11_R1_01_T_E0'
p403
S'E0_00_R0_11_R1_01_T_R0'
p404
sS'E0_22_R0_21_R1_21_T_R1'
p405
S'E0_22_R0_21_R1_10_T_E0'
p406
sS'E0_22_R0_21_R1_21_T_R0'
p407
S'E0_22_R0_10_R1_21_T_R1'
p408
sS'E0_00_R0_12_R1_22_T_E0'
p409
S'E0_00_R0_12_R1_22_T_R0'
p410
sS'E0_01_R0_10_R1_02_T_E0'
p411
S'E0_01_R0_10_R1_02_T_R0'
p412
sS'E0_10_R0_22_R1_21_T_R1'
p413
S'E0_10_R0_22_R1_20_T_E0'
p414
sS'E0_10_R0_22_R1_21_T_R0'
p415
S'E0_10_R0_21_R1_21_T_R1'
p416
sS'E0_10_R0_00_R1_02_T_E0'
p417
S'E0_10_R0_00_R1_02_T_R0'
p418
sS'E0_21_R0_00_R1_21_T_E0'
p419
S'E0_21_R0_00_R1_21_T_R0'
p420
sS'E0_10_R0_11_R1_22_T_R0'
p421
S'E0_10_R0_02_R1_22_T_R1'
p422
sS'E0_10_R0_11_R1_22_T_R1'
p423
S'E0_10_R0_11_R1_21_T_E0'
p424
sS'E0_00_R0_22_R1_11_T_E0'
p425
S'E0_00_R0_22_R1_11_T_R0'
p426
sS'E0_11_R0_20_R1_22_T_E0'
p427
S'E0_11_R0_20_R1_22_T_R0'
p428
sS'E0_01_R0_11_R1_21_T_R1'
p429
S'E0_01_R0_11_R1_22_T_E0'
p430
sS'E0_01_R0_11_R1_21_T_R0'
p431
S'E0_01_R0_00_R1_21_T_R1'
p432
sS'E0_11_R0_22_R1_21_T_R0'
p433
S'E0_11_R0_21_R1_21_T_R1'
p434
sS'E0_22_R0_02_R1_21_T_E0'
p435
S'E0_22_R0_02_R1_21_T_R0'
p436
sS'E0_20_R0_10_R1_12_T_E0'
p437
S'E0_20_R0_10_R1_12_T_R0'
p438
sS'E0_21_R0_01_R1_20_T_R1'
p439
S'E0_21_R0_01_R1_20_T_E0'
p440
sS'E0_21_R0_01_R1_20_T_R0'
p441
S'E0_21_R0_00_R1_20_T_R1'
p442
sS'E0_11_R0_21_R1_10_T_R1'
p443
S'E0_11_R0_21_R1_20_T_E0'
p444
sS'E0_11_R0_21_R1_10_T_R0'
p445
S'E0_11_R0_20_R1_10_T_R1'
p446
sS'E0_11_R0_20_R1_01_T_E0'
p447
S'E0_11_R0_20_R1_01_T_R0'
p448
sS'E0_21_R0_12_R1_12_T_E0'
p449
S'E0_21_R0_12_R1_12_T_R0'
p450
sS'E0_01_R0_11_R1_20_T_R0'
p451
S'E0_01_R0_00_R1_20_T_R1'
p452
sS'E0_01_R0_11_R1_20_T_R1'
p453
S'E0_01_R0_11_R1_20_T_E0'
p454
sS'E0_11_R0_21_R1_02_T_E0'
p455
S'E0_11_R0_21_R1_02_T_R0'
p456
sS'E0_12_R0_02_R1_01_T_R1'
p457
S'E0_12_R0_02_R1_00_T_E0'
p458
sS'E0_12_R0_02_R1_01_T_R0'
p459
S'E0_12_R0_02_R1_01_T_R1'
p460
sS'E0_02_R0_01_R1_21_T_E0'
p461
S'E0_02_R0_01_R1_21_T_R0'
p462
sS'E0_11_R0_02_R1_21_T_E0'
p463
S'E0_11_R0_02_R1_21_T_R0'
p464
sS'E0_01_R0_20_R1_20_T_R0'
p465
S'E0_01_R0_10_R1_20_T_R1'
p466
sS'E0_01_R0_20_R1_20_T_R1'
p467
S'E0_01_R0_20_R1_10_T_E0'
p468
sS'E0_12_R0_21_R1_21_T_R0'
p469
S'E0_12_R0_20_R1_21_T_R1'
p470
sS'E0_12_R0_21_R1_21_T_R1'
p471
S'E0_12_R0_21_R1_20_T_E0'
p472
sS'E0_10_R0_12_R1_01_T_R0'
p473
S'E0_10_R0_02_R1_01_T_R1'
p474
sS'E0_10_R0_12_R1_01_T_R1'
p475
S'E0_10_R0_12_R1_00_T_E0'
p476
sS'E0_11_R0_11_R1_21_T_R1'
p477
S'E0_11_R0_11_R1_21_T_E0'
p478
sS'E0_11_R0_02_R1_12_T_R0'
p479
S'E0_11_R0_02_R1_12_T_R1'
p480
sS'E0_11_R0_02_R1_12_T_R1'
p481
S'E0_11_R0_02_R1_22_T_E0'
p482
sS'E0_12_R0_21_R1_00_T_E0'
p483
S'E0_12_R0_21_R1_00_T_R0'
p484
sS'E0_11_R0_10_R1_10_T_E0'
p485
S'E0_11_R0_10_R1_10_T_R0'
p486
sS'E0_22_R0_10_R1_01_T_R0'
p487
S'E0_22_R0_20_R1_01_T_R1'
p488
sS'E0_00_R0_00_R1_10_T_R1'
p489
S'E0_00_R0_00_R1_10_T_E0'
p490
sS'E0_21_R0_22_R1_01_T_R1'
p491
S'E0_21_R0_22_R1_02_T_E0'
p492
sS'E0_21_R0_22_R1_01_T_R0'
p493
S'E0_21_R0_22_R1_01_T_R1'
p494
sS'E0_00_R0_10_R1_01_T_E0'
p495
S'E0_00_R0_10_R1_01_T_R0'
p496
sS'E0_12_R0_01_R1_22_T_R1'
p497
S'E0_12_R0_01_R1_21_T_E0'
p498
sS'E0_12_R0_01_R1_22_T_R0'
p499
S'E0_12_R0_02_R1_22_T_R1'
p500
sS'E0_11_R0_12_R1_12_T_E0'
p501
S'E0_11_R0_12_R1_12_T_R0'
p502
sS'E0_10_R0_20_R1_00_T_E0'
p503
S'E0_10_R0_20_R1_00_T_R0'
p504
sS'E0_22_R0_10_R1_12_T_E0'
p505
S'E0_22_R0_10_R1_12_T_R0'
p506
sS'E0_01_R0_20_R1_02_T_R0'
p507
S'E0_01_R0_10_R1_02_T_R1'
p508
sS'E0_01_R0_20_R1_02_T_R1'
p509
S'E0_01_R0_20_R1_11_T_E0'
p510
sS'E0_11_R0_22_R1_11_T_E0'
p511
S'E0_11_R0_22_R1_11_T_R0'
p512
sS'E0_12_R0_00_R1_20_T_R0'
p513
S'E0_12_R0_11_R1_20_T_R1'
p514
sS'E0_12_R0_00_R1_20_T_R1'
p515
S'E0_12_R0_00_R1_10_T_E0'
p516
sS'E0_20_R0_11_R1_20_T_E0'
p517
S'E0_20_R0_11_R1_20_T_R0'
p518
sS'E0_02_R0_20_R1_00_T_R1'
p519
S'E0_02_R0_20_R1_11_T_E0'
p520
sS'E0_02_R0_20_R1_00_T_R0'
p521
S'E0_02_R0_11_R1_00_T_R1'
p522
sS'E0_01_R0_20_R1_22_T_R0'
p523
S'E0_01_R0_11_R1_22_T_R1'
p524
sS'E0_02_R0_00_R1_10_T_R1'
p525
S'E0_02_R0_00_R1_20_T_E0'
p526
sS'E0_20_R0_00_R1_11_T_E0'
p527
S'E0_20_R0_00_R1_11_T_R0'
p528
sS'E0_01_R0_01_R1_20_T_R1'
p529
S'E0_01_R0_01_R1_20_T_E0'
p530
sS'E0_11_R0_10_R1_00_T_R1'
p531
S'E0_11_R0_10_R1_01_T_E0'
p532
sS'E0_11_R0_11_R1_10_T_R1'
p533
S'E0_11_R0_11_R1_10_T_E0'
p534
sS'E0_10_R0_22_R1_02_T_R0'
p535
S'E0_10_R0_22_R1_02_T_R1'
p536
sS'E0_10_R0_22_R1_02_T_R1'
p537
S'E0_10_R0_22_R1_02_T_E0'
p538
sS'E0_22_R0_00_R1_00_T_E0'
p539
S'E0_22_R0_00_R1_00_T_R0'
p540
sS'E0_22_R0_01_R1_12_T_E0'
p541
S'E0_22_R0_01_R1_12_T_R0'
p542
sS'E0_22_R0_02_R1_10_T_R0'
p543
S'E0_22_R0_02_R1_10_T_R1'
p544
sS'E0_22_R0_02_R1_10_T_R1'
p545
S'E0_22_R0_02_R1_00_T_E0'
p546
sS'E0_10_R0_00_R1_01_T_E0'
p547
S'E0_10_R0_00_R1_01_T_R0'
p548
sS'E0_12_R0_02_R1_02_T_E0'
p549
S'E0_12_R0_02_R1_02_T_R0'
p550
sS'E0_11_R0_01_R1_21_T_E0'
p551
S'E0_11_R0_01_R1_21_T_R0'
p552
sS'E0_20_R0_10_R1_11_T_R0'
p553
S'E0_20_R0_00_R1_11_T_R1'
p554
sS'E0_12_R0_21_R1_01_T_R1'
p555
S'E0_12_R0_21_R1_00_T_E0'
p556
sS'E0_01_R0_21_R1_12_T_E0'
p557
S'E0_01_R0_21_R1_12_T_R0'
p558
sS'E0_01_R0_20_R1_21_T_E0'
p559
S'E0_01_R0_20_R1_21_T_R0'
p560
sS'E0_22_R0_12_R1_11_T_E0'
p561
S'E0_22_R0_12_R1_11_T_R0'
p562
sS'E0_12_R0_10_R1_10_T_E0'
p563
S'E0_12_R0_10_R1_10_T_R0'
p564
sS'E0_20_R0_10_R1_11_T_R1'
p565
S'E0_20_R0_10_R1_02_T_E0'
p566
sS'E0_22_R0_10_R1_22_T_E0'
p567
S'E0_22_R0_10_R1_22_T_R0'
p568
sS'E0_21_R0_02_R1_12_T_E0'
p569
S'E0_21_R0_02_R1_12_T_R0'
p570
sS'E0_12_R0_11_R1_11_T_E0'
p571
S'E0_12_R0_11_R1_11_T_R0'
p572
sS'E0_01_R0_12_R1_22_T_R1'
p573
S'E0_01_R0_12_R1_22_T_E0'
p574
sS'E0_01_R0_12_R1_22_T_R0'
p575
S'E0_01_R0_02_R1_22_T_R1'
p576
sS'E0_01_R0_22_R1_20_T_E0'
p577
S'E0_01_R0_22_R1_20_T_R0'
p578
sS'E0_02_R0_02_R1_20_T_R1'
p579
S'E0_02_R0_02_R1_20_T_E0'
p580
sS'E0_01_R0_11_R1_00_T_E0'
p581
S'E0_01_R0_11_R1_00_T_R0'
p582
sS'E0_10_R0_21_R1_20_T_E0'
p583
S'E0_10_R0_21_R1_20_T_R0'
p584
sS'E0_00_R0_11_R1_22_T_R1'
p585
S'E0_00_R0_11_R1_11_T_E0'
p586
sS'E0_00_R0_11_R1_22_T_R0'
p587
S'E0_00_R0_20_R1_22_T_R1'
p588
sS'E0_21_R0_11_R1_20_T_R0'
p589
S'E0_21_R0_22_R1_20_T_R1'
p590
sS'E0_21_R0_11_R1_20_T_R1'
p591
S'E0_21_R0_11_R1_20_T_E0'
p592
sS'E0_21_R0_11_R1_10_T_E0'
p593
S'E0_21_R0_11_R1_10_T_R0'
p594
sS'E0_22_R0_11_R1_12_T_E0'
p595
S'E0_22_R0_11_R1_12_T_R0'
p596
sS'E0_01_R0_00_R1_20_T_E0'
p597
S'E0_01_R0_00_R1_20_T_R0'
p598
sS'E0_01_R0_02_R1_22_T_R0'
p599
S'E0_01_R0_02_R1_22_T_R1'
p600
sS'E0_01_R0_22_R1_11_T_E0'
p601
S'E0_01_R0_22_R1_11_T_R0'
p602
sS'E0_20_R0_10_R1_00_T_E0'
p603
S'E0_20_R0_10_R1_00_T_R0'
p604
sS'E0_20_R0_10_R1_01_T_R1'
p605
S'E0_20_R0_10_R1_02_T_E0'
p606
sS'E0_02_R0_02_R1_10_T_R1'
p607
S'E0_02_R0_02_R1_10_T_E0'
p608
sS'E0_10_R0_10_R1_02_T_R1'
p609
S'E0_10_R0_10_R1_02_T_E0'
p610
sS'E0_20_R0_10_R1_01_T_R0'
p611
S'E0_20_R0_00_R1_01_T_R1'
p612
sS'E0_10_R0_20_R1_11_T_E0'
p613
S'E0_10_R0_20_R1_11_T_R0'
p614
sS'E0_10_R0_01_R1_12_T_E0'
p615
S'E0_10_R0_01_R1_12_T_R0'
p616
sS'E0_10_R0_01_R1_01_T_E0'
p617
S'E0_10_R0_01_R1_01_T_R0'
p618
sS'E0_20_R0_02_R1_12_T_E0'
p619
S'E0_20_R0_02_R1_12_T_R0'
p620
sS'E0_22_R0_10_R1_11_T_R0'
p621
S'E0_22_R0_20_R1_11_T_R1'
p622
sS'E0_12_R0_12_R1_21_T_R1'
p623
S'E0_12_R0_12_R1_21_T_E0'
p624
sS'E0_20_R0_01_R1_12_T_R1'
p625
S'E0_20_R0_01_R1_22_T_E0'
p626
sS'E0_20_R0_01_R1_12_T_R0'
p627
S'E0_20_R0_02_R1_12_T_R1'
p628
sS'E0_11_R0_12_R1_20_T_E0'
p629
S'E0_11_R0_12_R1_20_T_R0'
p630
sS'E0_02_R0_11_R1_11_T_R1'
p631
S'E0_02_R0_11_R1_22_T_E0'
p632
sS'E0_02_R0_11_R1_11_T_R0'
p633
S'E0_02_R0_00_R1_11_T_R1'
p634
sS'E0_12_R0_00_R1_10_T_R1'
p635
S'E0_12_R0_00_R1_20_T_E0'
p636
sS'E0_12_R0_00_R1_10_T_R0'
p637
S'E0_12_R0_00_R1_10_T_R1'
p638
sS'E0_20_R0_00_R1_12_T_R0'
p639
S'E0_20_R0_10_R1_12_T_R1'
p640
sS'E0_20_R0_00_R1_12_T_R1'
p641
S'E0_20_R0_00_R1_02_T_E0'
p642
sS'E0_00_R0_02_R1_12_T_E0'
p643
S'E0_00_R0_02_R1_12_T_R0'
p644
sS'E0_22_R0_11_R1_20_T_E0'
p645
S'E0_22_R0_11_R1_20_T_R0'
p646
sS'E0_01_R0_00_R1_11_T_E0'
p647
S'E0_01_R0_00_R1_11_T_R0'
p648
sS'E0_00_R0_00_R1_02_T_R1'
p649
S'E0_00_R0_00_R1_02_T_E0'
p650
sS'E0_10_R0_12_R1_01_T_E0'
p651
S'E0_10_R0_12_R1_01_T_R0'
p652
sS'E0_01_R0_21_R1_21_T_E0'
p653
S'E0_01_R0_21_R1_21_T_R0'
p654
sS'E0_01_R0_10_R1_11_T_E0'
p655
S'E0_01_R0_10_R1_11_T_R0'
p656
sS'E0_12_R0_11_R1_20_T_R0'
p657
S'E0_12_R0_00_R1_20_T_R1'
p658
sS'E0_12_R0_02_R1_10_T_E0'
p659
S'E0_12_R0_02_R1_10_T_R0'
p660
sS'E0_12_R0_10_R1_00_T_R1'
p661
S'E0_12_R0_10_R1_11_T_E0'
p662
sS'E0_01_R0_01_R1_10_T_R1'
p663
S'E0_01_R0_01_R1_10_T_E0'
p664
sS'E0_20_R0_12_R1_22_T_R0'
p665
S'E0_20_R0_02_R1_22_T_R1'
p666
sS'E0_12_R0_10_R1_00_T_R0'
p667
S'E0_12_R0_20_R1_00_T_R1'
p668
sS'E0_01_R0_22_R1_10_T_E0'
p669
S'E0_01_R0_22_R1_10_T_R0'
p670
sS'E0_20_R0_00_R1_11_T_R0'
p671
S'E0_20_R0_01_R1_11_T_R1'
p672
sS'E0_00_R0_00_R1_21_T_R1'
p673
S'E0_00_R0_00_R1_21_T_E0'
p674
sS'E0_20_R0_11_R1_22_T_E0'
p675
S'E0_20_R0_11_R1_22_T_R0'
p676
sS'E0_22_R0_20_R1_00_T_E0'
p677
S'E0_22_R0_20_R1_00_T_R0'
p678
sS'E0_12_R0_21_R1_01_T_E0'
p679
S'E0_12_R0_21_R1_01_T_R0'
p680
sS'E0_12_R0_20_R1_11_T_R0'
p681
S'E0_12_R0_20_R1_11_T_R1'
p682
sS'E0_12_R0_20_R1_11_T_R1'
p683
S'E0_12_R0_20_R1_22_T_E0'
p684
sS'E0_10_R0_20_R1_02_T_E0'
p685
S'E0_10_R0_20_R1_02_T_R0'
p686
sS'E0_10_R0_02_R1_11_T_R0'
p687
S'E0_10_R0_02_R1_11_T_R1'
p688
sS'E0_10_R0_02_R1_11_T_R1'
p689
S'E0_10_R0_02_R1_22_T_E0'
p690
sS'E0_20_R0_22_R1_20_T_E0'
p691
S'E0_20_R0_22_R1_20_T_R0'
p692
sS'E0_22_R0_10_R1_20_T_E0'
p693
S'E0_22_R0_10_R1_20_T_R0'
p694
sS'E0_12_R0_21_R1_11_T_R1'
p695
S'E0_12_R0_21_R1_02_T_E0'
p696
sS'E0_12_R0_21_R1_11_T_R0'
p697
S'E0_12_R0_22_R1_11_T_R1'
p698
sS'E0_00_R0_21_R1_12_T_E0'
p699
S'E0_00_R0_21_R1_12_T_R0'
p700
sS'E0_00_R0_02_R1_20_T_E0'
p701
S'E0_00_R0_02_R1_20_T_R0'
p702
sS'E0_21_R0_10_R1_22_T_E0'
p703
S'E0_21_R0_10_R1_22_T_R0'
p704
sS'E0_22_R0_12_R1_01_T_E0'
p705
S'E0_22_R0_12_R1_01_T_R0'
p706
sS'E0_02_R0_10_R1_01_T_E0'
p707
S'E0_02_R0_10_R1_01_T_R0'
p708
sS'E0_20_R0_00_R1_11_T_R1'
p709
S'E0_20_R0_00_R1_02_T_E0'
p710
sS'E0_20_R0_12_R1_22_T_R1'
p711
S'E0_20_R0_12_R1_11_T_E0'
p712
sS'E0_00_R0_22_R1_20_T_E0'
p713
S'E0_00_R0_22_R1_20_T_R0'
p714
sS'E0_11_R0_00_R1_21_T_R0'
p715
S'E0_11_R0_00_R1_21_T_R1'
p716
sS'E0_11_R0_00_R1_21_T_R1'
p717
S'E0_11_R0_00_R1_20_T_E0'
p718
sS'E0_10_R0_21_R1_01_T_R0'
p719
S'E0_10_R0_20_R1_01_T_R1'
p720
sS'E0_20_R0_22_R1_11_T_E0'
p721
S'E0_20_R0_22_R1_11_T_R0'
p722
sS'E0_10_R0_21_R1_01_T_R1'
p723
S'E0_10_R0_21_R1_02_T_E0'
p724
sS'E0_21_R0_01_R1_10_T_E0'
p725
S'E0_21_R0_01_R1_10_T_R0'
p726
sS'E0_20_R0_21_R1_10_T_E0'
p727
S'E0_20_R0_21_R1_10_T_R0'
p728
sS'E0_20_R0_01_R1_01_T_R1'
p729
S'E0_20_R0_01_R1_02_T_E0'
p730
sS'E0_20_R0_01_R1_01_T_R0'
p731
S'E0_20_R0_02_R1_01_T_R1'
p732
sS'E0_02_R0_21_R1_12_T_R1'
p733
S'E0_02_R0_21_R1_22_T_E0'
p734
sS'E0_02_R0_21_R1_12_T_R0'
p735
S'E0_02_R0_20_R1_12_T_R1'
p736
sS'E0_22_R0_21_R1_11_T_E0'
p737
S'E0_22_R0_21_R1_11_T_R0'
p738
sS'E0_02_R0_21_R1_21_T_R1'
p739
S'E0_02_R0_21_R1_22_T_E0'
p740
sS'E0_02_R0_21_R1_21_T_R0'
p741
S'E0_02_R0_22_R1_21_T_R1'
p742
sS'E0_01_R0_20_R1_21_T_R1'
p743
S'E0_01_R0_20_R1_22_T_E0'
p744
sS'E0_01_R0_20_R1_21_T_R0'
p745
S'E0_01_R0_20_R1_21_T_R1'
p746
sS'E0_11_R0_11_R1_02_T_R1'
p747
S'E0_11_R0_11_R1_02_T_E0'
p748
sS'E0_12_R0_10_R1_12_T_E0'
p749
S'E0_12_R0_10_R1_12_T_R0'
p750
sS'E0_10_R0_22_R1_00_T_E0'
p751
S'E0_10_R0_22_R1_00_T_R0'
p752
sS'E0_10_R0_22_R1_22_T_E0'
p753
S'E0_10_R0_22_R1_22_T_R0'
p754
sS'E0_20_R0_02_R1_21_T_E0'
p755
S'E0_20_R0_02_R1_21_T_R0'
p756
sS'E0_00_R0_01_R1_01_T_E0'
p757
S'E0_00_R0_01_R1_01_T_R0'
p758
sS'E0_21_R0_12_R1_01_T_E0'
p759
S'E0_21_R0_12_R1_01_T_R0'
p760
sS'E0_02_R0_11_R1_12_T_E0'
p761
S'E0_02_R0_11_R1_12_T_R0'
p762
sS'E0_10_R0_01_R1_22_T_E0'
p763
S'E0_10_R0_01_R1_22_T_R0'
p764
sS'E0_01_R0_11_R1_20_T_E0'
p765
S'E0_01_R0_11_R1_20_T_R0'
p766
sS'E0_11_R0_21_R1_00_T_R0'
p767
S'E0_11_R0_20_R1_00_T_R1'
p768
sS'E0_11_R0_21_R1_00_T_R1'
p769
S'E0_11_R0_21_R1_01_T_E0'
p770
sS'E0_22_R0_01_R1_01_T_E0'
p771
S'E0_22_R0_01_R1_01_T_R0'
p772
sS'E0_20_R0_10_R1_11_T_E0'
p773
S'E0_20_R0_10_R1_11_T_R0'
p774
sS'E0_02_R0_22_R1_12_T_R0'
p775
S'E0_02_R0_21_R1_12_T_R1'
p776
sS'E0_02_R0_22_R1_12_T_R1'
p777
S'E0_02_R0_22_R1_11_T_E0'
p778
sS'E0_20_R0_12_R1_11_T_R0'
p779
S'E0_20_R0_02_R1_11_T_R1'
p780
sS'E0_20_R0_12_R1_11_T_R1'
p781
S'E0_20_R0_12_R1_22_T_E0'
p782
sS'E0_21_R0_10_R1_22_T_R1'
p783
S'E0_21_R0_10_R1_12_T_E0'
p784
sS'E0_10_R0_20_R1_11_T_R1'
p785
S'E0_10_R0_20_R1_00_T_E0'
p786
sS'E0_20_R0_12_R1_10_T_R1'
p787
S'E0_20_R0_12_R1_00_T_E0'
p788
sS'E0_00_R0_11_R1_02_T_R1'
p789
S'E0_00_R0_11_R1_02_T_E0'
p790
sS'E0_00_R0_11_R1_02_T_R0'
p791
S'E0_00_R0_22_R1_02_T_R1'
p792
sS'E0_21_R0_10_R1_11_T_R1'
p793
S'E0_21_R0_10_R1_22_T_E0'
p794
sS'E0_21_R0_10_R1_11_T_R0'
p795
S'E0_21_R0_20_R1_11_T_R1'
p796
sS'E0_02_R0_11_R1_00_T_E0'
p797
S'E0_02_R0_11_R1_00_T_R0'
p798
sS'E0_02_R0_10_R1_12_T_E0'
p799
S'E0_02_R0_10_R1_12_T_R0'
p800
sS'E0_20_R0_02_R1_10_T_E0'
p801
S'E0_20_R0_02_R1_10_T_R0'
p802
sS'E0_12_R0_11_R1_01_T_E0'
p803
S'E0_12_R0_11_R1_01_T_R0'
p804
sS'E0_00_R0_11_R1_20_T_R1'
p805
S'E0_00_R0_11_R1_20_T_E0'
p806
sS'E0_00_R0_11_R1_20_T_R0'
p807
S'E0_00_R0_22_R1_20_T_R1'
p808
sS'E0_10_R0_22_R1_10_T_E0'
p809
S'E0_10_R0_22_R1_10_T_R0'
p810
sS'E0_02_R0_12_R1_00_T_E0'
p811
S'E0_02_R0_12_R1_00_T_R0'
p812
sS'E0_20_R0_10_R1_22_T_E0'
p813
S'E0_20_R0_10_R1_22_T_R0'
p814
sS'E0_20_R0_21_R1_21_T_E0'
p815
S'E0_20_R0_21_R1_21_T_R0'
p816
sS'E0_22_R0_02_R1_11_T_R1'
p817
S'E0_22_R0_02_R1_00_T_E0'
p818
sS'E0_22_R0_02_R1_11_T_R0'
p819
S'E0_22_R0_02_R1_11_T_R1'
p820
sS'E0_22_R0_10_R1_11_T_E0'
p821
S'E0_22_R0_10_R1_11_T_R0'
p822
sS'E0_21_R0_11_R1_00_T_R0'
p823
S'E0_21_R0_20_R1_00_T_R1'
p824
sS'E0_21_R0_11_R1_00_T_R1'
p825
S'E0_21_R0_11_R1_10_T_E0'
p826
sS'E0_00_R0_01_R1_02_T_E0'
p827
S'E0_00_R0_01_R1_02_T_R0'
p828
sS'E0_21_R0_22_R1_00_T_R0'
p829
S'E0_21_R0_11_R1_00_T_R1'
p830
sS'E0_21_R0_22_R1_00_T_R1'
p831
S'E0_21_R0_22_R1_01_T_E0'
p832
sS'E0_02_R0_22_R1_11_T_E0'
p833
S'E0_02_R0_22_R1_11_T_R0'
p834
sS'E0_21_R0_12_R1_00_T_E0'
p835
S'E0_21_R0_12_R1_00_T_R0'
p836
sS'E0_02_R0_21_R1_10_T_R1'
p837
S'E0_02_R0_21_R1_00_T_E0'
p838
sS'E0_02_R0_21_R1_10_T_R0'
p839
S'E0_02_R0_22_R1_10_T_R1'
p840
sS'E0_12_R0_10_R1_01_T_R0'
p841
S'E0_12_R0_00_R1_01_T_R1'
p842
sS'E0_12_R0_10_R1_01_T_R1'
p843
S'E0_12_R0_10_R1_02_T_E0'
p844
sS'E0_00_R0_21_R1_21_T_R1'
p845
S'E0_00_R0_21_R1_20_T_E0'
p846
sS'E0_00_R0_21_R1_21_T_R0'
p847
S'E0_00_R0_22_R1_21_T_R1'
p848
sS'E0_22_R0_10_R1_21_T_E0'
p849
S'E0_22_R0_10_R1_21_T_R0'
p850
sS'E0_01_R0_00_R1_00_T_R0'
p851
S'E0_01_R0_10_R1_00_T_R1'
p852
sS'E0_02_R0_12_R1_11_T_R1'
p853
S'E0_02_R0_12_R1_20_T_E0'
p854
sS'E0_10_R0_02_R1_11_T_E0'
p855
S'E0_10_R0_02_R1_11_T_R0'
p856
sS'E0_22_R0_00_R1_01_T_R0'
p857
S'E0_22_R0_00_R1_01_T_R1'
p858
sS'E0_00_R0_01_R1_11_T_E0'
p859
S'E0_00_R0_01_R1_11_T_R0'
p860
sS'E0_22_R0_11_R1_20_T_R1'
p861
S'E0_22_R0_11_R1_20_T_E0'
p862
sS'E0_22_R0_11_R1_20_T_R0'
p863
S'E0_22_R0_00_R1_20_T_R1'
p864
sS'E0_10_R0_11_R1_21_T_E0'
p865
S'E0_10_R0_11_R1_21_T_R0'
p866
sS'E0_02_R0_01_R1_22_T_R0'
p867
S'E0_02_R0_11_R1_22_T_R1'
p868
sS'E0_02_R0_01_R1_22_T_R1'
p869
S'E0_02_R0_01_R1_11_T_E0'
p870
sS'E0_20_R0_20_R1_22_T_R1'
p871
S'E0_20_R0_20_R1_22_T_E0'
p872
sS'E0_22_R0_02_R1_12_T_E0'
p873
S'E0_22_R0_02_R1_12_T_R0'
p874
sS'E0_21_R0_10_R1_20_T_R1'
p875
S'E0_21_R0_10_R1_20_T_E0'
p876
sS'E0_21_R0_10_R1_20_T_R0'
p877
S'E0_21_R0_00_R1_20_T_R1'
p878
sS'E0_11_R0_20_R1_10_T_E0'
p879
S'E0_11_R0_20_R1_10_T_R0'
p880
sS'E0_02_R0_11_R1_22_T_R1'
p881
S'E0_02_R0_11_R1_22_T_E0'
p882
sS'E0_02_R0_11_R1_22_T_R0'
p883
S'E0_02_R0_20_R1_22_T_R1'
p884
sS'E0_10_R0_02_R1_21_T_R1'
p885
S'E0_10_R0_02_R1_22_T_E0'
p886
sS'E0_10_R0_02_R1_21_T_R0'
p887
S'E0_10_R0_02_R1_21_T_R1'
p888
sS'E0_02_R0_01_R1_10_T_R1'
p889
S'E0_02_R0_01_R1_20_T_E0'
p890
sS'E0_02_R0_01_R1_10_T_R0'
p891
S'E0_02_R0_00_R1_10_T_R1'
p892
sS'E0_01_R0_10_R1_00_T_E0'
p893
S'E0_01_R0_10_R1_00_T_R0'
p894
sS'E0_02_R0_10_R1_11_T_R0'
p895
S'E0_02_R0_00_R1_11_T_R1'
p896
sS'E0_02_R0_10_R1_11_T_R1'
p897
S'E0_02_R0_10_R1_00_T_E0'
p898
sS'E0_12_R0_20_R1_21_T_R1'
p899
S'E0_12_R0_20_R1_22_T_E0'
p900
sS'E0_12_R0_20_R1_21_T_R0'
p901
S'E0_12_R0_20_R1_21_T_R1'
p902
sS'E0_21_R0_10_R1_00_T_R1'
p903
S'E0_21_R0_10_R1_01_T_E0'
p904
sS'E0_12_R0_11_R1_02_T_R0'
p905
S'E0_12_R0_22_R1_02_T_R1'
p906
sS'E0_00_R0_21_R1_02_T_R0'
p907
S'E0_00_R0_22_R1_02_T_R1'
p908
sS'E0_12_R0_20_R1_22_T_R1'
p909
S'E0_12_R0_20_R1_21_T_E0'
p910
sS'E0_02_R0_01_R1_02_T_E0'
p911
S'E0_02_R0_01_R1_02_T_R0'
p912
sS'E0_21_R0_20_R1_01_T_R1'
p913
S'E0_21_R0_20_R1_00_T_E0'
p914
sS'E0_21_R0_20_R1_01_T_R0'
p915
S'E0_21_R0_20_R1_01_T_R1'
p916
sS'E0_01_R0_02_R1_12_T_R1'
p917
S'E0_01_R0_02_R1_22_T_E0'
p918
sS'E0_01_R0_02_R1_12_T_R0'
p919
S'E0_01_R0_02_R1_12_T_R1'
p920
sS'E0_00_R0_21_R1_11_T_R1'
p921
S'E0_00_R0_21_R1_20_T_E0'
p922
sS'E0_21_R0_02_R1_11_T_R0'
p923
S'E0_21_R0_02_R1_11_T_R1'
p924
sS'E0_21_R0_02_R1_11_T_R1'
p925
S'E0_21_R0_02_R1_00_T_E0'
p926
sS'E0_22_R0_00_R1_02_T_E0'
p927
S'E0_22_R0_00_R1_02_T_R0'
p928
sS'E0_22_R0_01_R1_02_T_R0'
p929
S'E0_22_R0_00_R1_02_T_R1'
p930
sS'E0_22_R0_01_R1_02_T_R1'
p931
S'E0_22_R0_01_R1_02_T_E0'
p932
sS'E0_01_R0_10_R1_22_T_R1'
p933
S'E0_01_R0_10_R1_12_T_E0'
p934
sS'E0_00_R0_12_R1_10_T_R0'
p935
S'E0_00_R0_22_R1_10_T_R1'
p936
sS'E0_00_R0_02_R1_20_T_R1'
p937
S'E0_00_R0_02_R1_21_T_E0'
p938
sS'E0_00_R0_02_R1_20_T_R0'
p939
S'E0_00_R0_11_R1_20_T_R1'
p940
sS'E0_10_R0_20_R1_22_T_E0'
p941
S'E0_10_R0_20_R1_22_T_R0'
p942
sS'E0_21_R0_02_R1_20_T_E0'
p943
S'E0_21_R0_02_R1_20_T_R0'
p944
sS'E0_21_R0_10_R1_01_T_E0'
p945
S'E0_21_R0_10_R1_01_T_R0'
p946
sS'E0_11_R0_02_R1_11_T_E0'
p947
S'E0_11_R0_02_R1_11_T_R0'
p948
sS'E0_10_R0_01_R1_00_T_E0'
p949
S'E0_10_R0_01_R1_00_T_R0'
p950
sS'E0_02_R0_12_R1_02_T_E0'
p951
S'E0_02_R0_12_R1_02_T_R0'
p952
sS'E0_20_R0_10_R1_10_T_R1'
p953
S'E0_20_R0_10_R1_01_T_E0'
p954
sS'E0_00_R0_21_R1_02_T_E0'
p955
S'E0_00_R0_21_R1_02_T_R0'
p956
sS'E0_01_R0_22_R1_12_T_E0'
p957
S'E0_01_R0_22_R1_12_T_R0'
p958
sS'E0_21_R0_22_R1_22_T_R1'
p959
S'E0_21_R0_22_R1_12_T_E0'
p960
sS'E0_22_R0_21_R1_10_T_E0'
p961
S'E0_22_R0_21_R1_10_T_R0'
p962
sS'E0_02_R0_20_R1_20_T_R1'
p963
S'E0_02_R0_20_R1_10_T_E0'
p964
sS'E0_02_R0_20_R1_20_T_R0'
p965
S'E0_02_R0_21_R1_20_T_R1'
p966
sS'E0_11_R0_21_R1_12_T_R1'
p967
S'E0_11_R0_21_R1_02_T_E0'
p968
sS'E0_11_R0_21_R1_12_T_R0'
p969
S'E0_11_R0_22_R1_12_T_R1'
p970
sS'E0_10_R0_00_R1_20_T_E0'
p971
S'E0_10_R0_00_R1_20_T_R0'
p972
sS'E0_10_R0_21_R1_12_T_E0'
p973
S'E0_10_R0_21_R1_12_T_R0'
p974
sS'E0_21_R0_22_R1_11_T_R0'
p975
S'E0_21_R0_11_R1_11_T_R1'
p976
sS'E0_00_R0_11_R1_21_T_R0'
p977
S'E0_00_R0_22_R1_21_T_R1'
p978
sS'E0_00_R0_11_R1_21_T_R1'
p979
S'E0_00_R0_11_R1_20_T_E0'
p980
sS'E0_22_R0_20_R1_12_T_R0'
p981
S'E0_22_R0_11_R1_12_T_R1'
p982
sS'E0_22_R0_20_R1_12_T_R1'
p983
S'E0_22_R0_20_R1_11_T_E0'
p984
sS'E0_00_R0_20_R1_00_T_E0'
p985
S'E0_00_R0_20_R1_00_T_R0'
p986
sS'E0_20_R0_12_R1_01_T_R1'
p987
S'E0_20_R0_12_R1_02_T_E0'
p988
sS'E0_20_R0_12_R1_01_T_R0'
p989
S'E0_20_R0_22_R1_01_T_R1'
p990
sS'E0_02_R0_10_R1_12_T_R1'
p991
S'E0_02_R0_10_R1_22_T_E0'
p992
sS'E0_02_R0_10_R1_12_T_R0'
p993
S'E0_02_R0_20_R1_12_T_R1'
p994
sS'E0_01_R0_22_R1_10_T_R1'
p995
S'E0_01_R0_22_R1_20_T_E0'
p996
sS'E0_01_R0_22_R1_10_T_R0'
p997
S'E0_01_R0_12_R1_10_T_R1'
p998
sS'E0_20_R0_22_R1_10_T_R0'
p999
S'E0_20_R0_11_R1_10_T_R1'
p1000
sS'E0_20_R0_22_R1_10_T_R1'
p1001
S'E0_20_R0_22_R1_11_T_E0'
p1002
sS'E0_10_R0_11_R1_20_T_R0'
p1003
S'E0_10_R0_22_R1_20_T_R1'
p1004
sS'E0_10_R0_11_R1_20_T_R1'
p1005
S'E0_10_R0_11_R1_20_T_E0'
p1006
sS'E0_10_R0_20_R1_01_T_E0'
p1007
S'E0_10_R0_20_R1_01_T_R0'
p1008
sS'E0_11_R0_21_R1_01_T_E0'
p1009
S'E0_11_R0_21_R1_01_T_R0'
p1010
sS'E0_12_R0_12_R1_10_T_R1'
p1011
S'E0_12_R0_12_R1_10_T_E0'
p1012
sS'E0_21_R0_11_R1_11_T_R0'
p1013
S'E0_21_R0_20_R1_11_T_R1'
p1014
sS'E0_21_R0_11_R1_11_T_R1'
p1015
S'E0_21_R0_11_R1_22_T_E0'
p1016
sS'E0_11_R0_00_R1_01_T_E0'
p1017
S'E0_11_R0_00_R1_01_T_R0'
p1018
sS'E0_22_R0_01_R1_20_T_R0'
p1019
S'E0_22_R0_00_R1_20_T_R1'
p1020
sS'E0_01_R0_22_R1_02_T_R1'
p1021
S'E0_01_R0_22_R1_02_T_E0'
p1022
sS'E0_22_R0_01_R1_10_T_E0'
p1023
S'E0_22_R0_01_R1_10_T_R0'
p1024
sS'E0_21_R0_21_R1_22_T_R1'
p1025
S'E0_21_R0_21_R1_22_T_E0'
p1026
sS'E0_10_R0_12_R1_00_T_E0'
p1027
S'E0_10_R0_12_R1_00_T_R0'
p1028
sS'E0_21_R0_01_R1_22_T_R1'
p1029
S'E0_21_R0_01_R1_12_T_E0'
p1030
sS'E0_21_R0_01_R1_22_T_R0'
p1031
S'E0_21_R0_02_R1_22_T_R1'
p1032
sS'E0_11_R0_21_R1_00_T_E0'
p1033
S'E0_11_R0_21_R1_00_T_R0'
p1034
sS'E0_12_R0_20_R1_02_T_E0'
p1035
S'E0_12_R0_20_R1_02_T_R0'
p1036
sS'E0_12_R0_22_R1_21_T_R1'
p1037
S'E0_12_R0_22_R1_20_T_E0'
p1038
sS'E0_12_R0_22_R1_21_T_R0'
p1039
S'E0_12_R0_22_R1_21_T_R1'
p1040
sS'E0_20_R0_12_R1_00_T_R0'
p1041
S'E0_20_R0_02_R1_00_T_R1'
p1042
sS'E0_20_R0_12_R1_00_T_R1'
p1043
S'E0_20_R0_12_R1_10_T_E0'
p1044
sS'E0_20_R0_00_R1_00_T_R1'
p1045
S'E0_20_R0_00_R1_11_T_E0'
p1046
sS'E0_20_R0_00_R1_00_T_R0'
p1047
S'E0_20_R0_01_R1_00_T_R1'
p1048
sS'E0_11_R0_02_R1_10_T_R0'
p1049
S'E0_11_R0_02_R1_10_T_R1'
p1050
sS'E0_11_R0_02_R1_10_T_R1'
p1051
S'E0_11_R0_02_R1_00_T_E0'
p1052
sS'E0_10_R0_02_R1_20_T_E0'
p1053
S'E0_10_R0_02_R1_20_T_R0'
p1054
sS'E0_21_R0_22_R1_02_T_R0'
p1055
S'E0_21_R0_22_R1_02_T_R1'
p1056
sS'E0_21_R0_22_R1_02_T_R1'
p1057
S'E0_21_R0_22_R1_02_T_E0'
p1058
sS'E0_20_R0_10_R1_02_T_E0'
p1059
S'E0_20_R0_10_R1_02_T_R0'
p1060
sS'E0_12_R0_02_R1_20_T_R1'
p1061
S'E0_12_R0_02_R1_10_T_E0'
p1062
sS'E0_01_R0_01_R1_12_T_R1'
p1063
S'E0_01_R0_01_R1_12_T_E0'
p1064
sS'E0_12_R0_10_R1_11_T_E0'
p1065
S'E0_12_R0_10_R1_11_T_R0'
p1066
sS'E0_11_R0_12_R1_22_T_R0'
p1067
S'E0_11_R0_02_R1_22_T_R1'
p1068
sS'E0_11_R0_12_R1_22_T_R1'
p1069
S'E0_11_R0_12_R1_12_T_E0'
p1070
sS'E0_10_R0_12_R1_11_T_E0'
p1071
S'E0_10_R0_12_R1_11_T_R0'
p1072
sS'E0_02_R0_10_R1_10_T_E0'
p1073
S'E0_02_R0_10_R1_10_T_R0'
p1074
sS'E0_21_R0_11_R1_12_T_R0'
p1075
S'E0_21_R0_02_R1_12_T_R1'
p1076
sS'E0_01_R0_20_R1_00_T_R0'
p1077
S'E0_01_R0_20_R1_00_T_R1'
p1078
sS'E0_01_R0_20_R1_00_T_R1'
p1079
S'E0_01_R0_20_R1_00_T_E0'
p1080
sS'E0_21_R0_02_R1_22_T_E0'
p1081
S'E0_21_R0_02_R1_22_T_R0'
p1082
sS'E0_11_R0_00_R1_02_T_E0'
p1083
S'E0_11_R0_00_R1_02_T_R0'
p1084
sS'E0_21_R0_11_R1_00_T_E0'
p1085
S'E0_21_R0_11_R1_00_T_R0'
p1086
sS'E0_20_R0_01_R1_11_T_R0'
p1087
S'E0_20_R0_00_R1_11_T_R1'
p1088
sS'E0_20_R0_01_R1_11_T_R1'
p1089
S'E0_20_R0_01_R1_22_T_E0'
p1090
sS'E0_02_R0_02_R1_00_T_R1'
p1091
S'E0_02_R0_02_R1_00_T_E0'
p1092
sS'E0_10_R0_11_R1_02_T_E0'
p1093
S'E0_10_R0_11_R1_02_T_R0'
p1094
sS'E0_02_R0_00_R1_21_T_R0'
p1095
S'E0_02_R0_00_R1_21_T_R1'
p1096
sS'E0_02_R0_00_R1_21_T_R1'
p1097
S'E0_02_R0_00_R1_20_T_E0'
p1098
sS'E0_00_R0_11_R1_12_T_E0'
p1099
S'E0_00_R0_11_R1_12_T_R0'
p1100
sS'E0_20_R0_12_R1_11_T_E0'
p1101
S'E0_20_R0_12_R1_11_T_R0'
p1102
sS'E0_02_R0_11_R1_01_T_E0'
p1103
S'E0_02_R0_11_R1_01_T_R0'
p1104
sS'E0_10_R0_20_R1_02_T_R1'
p1105
S'E0_10_R0_20_R1_12_T_E0'
p1106
sS'E0_11_R0_12_R1_21_T_E0'
p1107
S'E0_11_R0_12_R1_21_T_R0'
p1108
sS'E0_12_R0_22_R1_02_T_E0'
p1109
S'E0_12_R0_22_R1_02_T_R0'
p1110
sS'E0_22_R0_10_R1_21_T_R1'
p1111
S'E0_22_R0_10_R1_20_T_E0'
p1112
sS'E0_22_R0_10_R1_21_T_R0'
p1113
S'E0_22_R0_00_R1_21_T_R1'
p1114
sS'E0_20_R0_11_R1_21_T_E0'
p1115
S'E0_20_R0_11_R1_21_T_R0'
p1116
sS'E0_20_R0_10_R1_02_T_R0'
p1117
S'E0_20_R0_00_R1_02_T_R1'
p1118
sS'E0_20_R0_10_R1_02_T_R1'
p1119
S'E0_20_R0_10_R1_02_T_E0'
p1120
sS'E0_21_R0_20_R1_10_T_E0'
p1121
S'E0_21_R0_20_R1_10_T_R0'
p1122
sS'E0_01_R0_11_R1_21_T_E0'
p1123
S'E0_01_R0_11_R1_21_T_R0'
p1124
sS'E0_00_R0_10_R1_21_T_R1'
p1125
S'E0_00_R0_10_R1_22_T_E0'
p1126
sS'E0_00_R0_10_R1_21_T_R0'
p1127
S'E0_00_R0_20_R1_21_T_R1'
p1128
sS'E0_21_R0_12_R1_02_T_E0'
p1129
S'E0_21_R0_12_R1_02_T_R0'
p1130
sS'E0_01_R0_00_R1_10_T_E0'
p1131
S'E0_01_R0_00_R1_10_T_R0'
p1132
sS'E0_22_R0_21_R1_02_T_R0'
p1133
S'E0_22_R0_11_R1_02_T_R1'
p1134
sS'E0_22_R0_21_R1_02_T_R1'
p1135
S'E0_22_R0_21_R1_11_T_E0'
p1136
sS'E0_02_R0_01_R1_22_T_E0'
p1137
S'E0_02_R0_01_R1_22_T_R0'
p1138
sS'E0_00_R0_20_R1_22_T_E0'
p1139
S'E0_00_R0_20_R1_22_T_R0'
p1140
sS'E0_20_R0_11_R1_02_T_R1'
p1141
S'E0_20_R0_11_R1_02_T_E0'
p1142
sS'E0_20_R0_11_R1_02_T_R0'
p1143
S'E0_20_R0_22_R1_02_T_R1'
p1144
sS'E0_20_R0_01_R1_10_T_R1'
p1145
S'E0_20_R0_01_R1_00_T_E0'
p1146
sS'E0_20_R0_01_R1_10_T_R0'
p1147
S'E0_20_R0_02_R1_10_T_R1'
p1148
sS'E0_00_R0_22_R1_22_T_R1'
p1149
S'E0_00_R0_22_R1_21_T_E0'
p1150
sS'E0_00_R0_22_R1_22_T_R0'
p1151
S'E0_00_R0_12_R1_22_T_R1'
p1152
sS'E0_01_R0_11_R1_02_T_R0'
p1153
S'E0_01_R0_00_R1_02_T_R1'
p1154
sS'E0_01_R0_11_R1_02_T_R1'
p1155
S'E0_01_R0_11_R1_02_T_E0'
p1156
sS'E0_00_R0_12_R1_11_T_E0'
p1157
S'E0_00_R0_12_R1_11_T_R0'
p1158
sS'E0_22_R0_21_R1_10_T_R1'
p1159
S'E0_22_R0_21_R1_00_T_E0'
p1160
sS'E0_22_R0_21_R1_10_T_R0'
p1161
S'E0_22_R0_20_R1_10_T_R1'
p1162
sS'E0_01_R0_21_R1_10_T_R0'
p1163
S'E0_01_R0_22_R1_10_T_R1'
p1164
sS'E0_21_R0_12_R1_00_T_R0'
p1165
S'E0_21_R0_02_R1_00_T_R1'
p1166
sS'E0_01_R0_10_R1_10_T_R0'
p1167
S'E0_01_R0_00_R1_10_T_R1'
p1168
sS'E0_01_R0_10_R1_10_T_R1'
p1169
S'E0_01_R0_10_R1_00_T_E0'
p1170
sS'E0_10_R0_20_R1_11_T_R0'
p1171
S'E0_10_R0_20_R1_11_T_R1'
p1172
sS'E0_21_R0_10_R1_22_T_R0'
p1173
S'E0_21_R0_20_R1_22_T_R1'
p1174
sS'E0_10_R0_10_R1_01_T_R1'
p1175
S'E0_10_R0_10_R1_01_T_E0'
p1176
sS'E0_22_R0_11_R1_10_T_E0'
p1177
S'E0_22_R0_11_R1_10_T_R0'
p1178
sS'E0_00_R0_12_R1_22_T_R0'
p1179
S'E0_00_R0_02_R1_22_T_R1'
p1180
sS'E0_00_R0_12_R1_22_T_R1'
p1181
S'E0_00_R0_12_R1_21_T_E0'
p1182
sS'E0_10_R0_12_R1_10_T_E0'
p1183
S'E0_10_R0_12_R1_10_T_R0'
p1184
sS'E0_00_R0_12_R1_02_T_R0'
p1185
S'E0_00_R0_22_R1_02_T_R1'
p1186
sS'E0_10_R0_11_R1_20_T_E0'
p1187
S'E0_10_R0_11_R1_20_T_R0'
p1188
sS'E0_21_R0_12_R1_12_T_R0'
p1189
S'E0_21_R0_02_R1_12_T_R1'
p1190
sS'E0_21_R0_12_R1_12_T_R1'
p1191
S'E0_21_R0_12_R1_02_T_E0'
p1192
sS'E0_12_R0_02_R1_20_T_E0'
p1193
S'E0_12_R0_02_R1_20_T_R0'
p1194
sS'E0_01_R0_12_R1_02_T_E0'
p1195
S'E0_01_R0_12_R1_02_T_R0'
p1196
sS'E0_11_R0_12_R1_02_T_E0'
p1197
S'E0_11_R0_12_R1_02_T_R0'
p1198
sS'E0_02_R0_22_R1_20_T_R1'
p1199
S'E0_02_R0_22_R1_11_T_E0'
p1200
sS'E0_02_R0_22_R1_20_T_R0'
p1201
S'E0_02_R0_21_R1_20_T_R1'
p1202
sS'E0_22_R0_02_R1_21_T_R0'
p1203
S'E0_22_R0_11_R1_21_T_R1'
p1204
sS'E0_22_R0_02_R1_21_T_R1'
p1205
S'E0_22_R0_02_R1_11_T_E0'
p1206
sS'E0_02_R0_21_R1_22_T_R0'
p1207
S'E0_02_R0_20_R1_22_T_R1'
p1208
sS'E0_02_R0_21_R1_22_T_R1'
p1209
S'E0_02_R0_21_R1_11_T_E0'
p1210
sS'E0_20_R0_20_R1_21_T_R1'
p1211
S'E0_20_R0_20_R1_21_T_E0'
p1212
sS'E0_01_R0_00_R1_11_T_R1'
p1213
S'E0_01_R0_00_R1_02_T_E0'
p1214
sS'E0_21_R0_10_R1_02_T_R1'
p1215
S'E0_21_R0_10_R1_02_T_E0'
p1216
sS'E0_21_R0_10_R1_02_T_R0'
p1217
S'E0_21_R0_00_R1_02_T_R1'
p1218
sS'E0_00_R0_12_R1_01_T_E0'
p1219
S'E0_00_R0_12_R1_01_T_R0'
p1220
sS'E0_02_R0_12_R1_01_T_R0'
p1221
S'E0_02_R0_11_R1_01_T_R1'
p1222
sS'E0_02_R0_00_R1_00_T_R1'
p1223
S'E0_02_R0_00_R1_11_T_E0'
p1224
sS'E0_02_R0_00_R1_00_T_R0'
p1225
S'E0_02_R0_11_R1_00_T_R1'
p1226
sS'E0_00_R0_02_R1_10_T_E0'
p1227
S'E0_00_R0_02_R1_10_T_R0'
p1228
sS'E0_01_R0_00_R1_12_T_R1'
p1229
S'E0_01_R0_00_R1_02_T_E0'
p1230
sS'E0_11_R0_22_R1_21_T_R1'
p1231
S'E0_11_R0_22_R1_20_T_E0'
p1232
sS'E0_21_R0_12_R1_22_T_E0'
p1233
S'E0_21_R0_12_R1_22_T_R0'
p1234
sS'E0_10_R0_12_R1_21_T_R0'
p1235
S'E0_10_R0_22_R1_21_T_R1'
p1236
sS'E0_10_R0_12_R1_21_T_R1'
p1237
S'E0_10_R0_12_R1_20_T_E0'
p1238
sS'E0_11_R0_00_R1_22_T_R1'
p1239
S'E0_11_R0_00_R1_21_T_E0'
p1240
sS'E0_11_R0_00_R1_22_T_R0'
p1241
S'E0_11_R0_10_R1_22_T_R1'
p1242
sS'E0_20_R0_12_R1_00_T_E0'
p1243
S'E0_20_R0_12_R1_00_T_R0'
p1244
sS'E0_22_R0_00_R1_11_T_R1'
p1245
S'E0_22_R0_00_R1_02_T_E0'
p1246
sS'E0_22_R0_00_R1_11_T_R0'
p1247
S'E0_22_R0_11_R1_11_T_R1'
p1248
sS'E0_11_R0_02_R1_10_T_E0'
p1249
S'E0_11_R0_02_R1_10_T_R0'
p1250
sS'E0_11_R0_10_R1_01_T_R0'
p1251
S'E0_11_R0_00_R1_01_T_R1'
p1252
sS'E0_02_R0_02_R1_21_T_R1'
p1253
S'E0_02_R0_02_R1_21_T_E0'
p1254
sS'E0_12_R0_22_R1_00_T_E0'
p1255
S'E0_12_R0_22_R1_00_T_R0'
p1256
sS'E0_10_R0_02_R1_10_T_E0'
p1257
S'E0_10_R0_02_R1_10_T_R0'
p1258
sS'E0_02_R0_12_R1_22_T_R0'
p1259
S'E0_02_R0_11_R1_22_T_R1'
p1260
sS'E0_02_R0_12_R1_22_T_R1'
p1261
S'E0_02_R0_12_R1_11_T_E0'
p1262
sS'E0_10_R0_21_R1_00_T_R1'
p1263
S'E0_10_R0_21_R1_00_T_E0'
p1264
sS'E0_10_R0_21_R1_00_T_R0'
p1265
S'E0_10_R0_20_R1_00_T_R1'
p1266
sS'E0_12_R0_02_R1_11_T_E0'
p1267
S'E0_12_R0_02_R1_11_T_R0'
p1268
sS'E0_01_R0_00_R1_12_T_E0'
p1269
S'E0_01_R0_00_R1_12_T_R0'
p1270
sS'E0_21_R0_10_R1_12_T_R0'
p1271
S'E0_21_R0_00_R1_12_T_R1'
p1272
sS'E0_21_R0_10_R1_12_T_R1'
p1273
S'E0_21_R0_10_R1_22_T_E0'
p1274
sS'E0_01_R0_11_R1_00_T_R0'
p1275
S'E0_01_R0_02_R1_00_T_R1'
p1276
sS'E0_01_R0_11_R1_00_T_R1'
p1277
S'E0_01_R0_11_R1_00_T_E0'
p1278
sS'E0_10_R0_20_R1_00_T_R0'
p1279
S'E0_10_R0_20_R1_00_T_R1'
p1280
sS'E0_10_R0_20_R1_00_T_R1'
p1281
S'E0_10_R0_20_R1_00_T_E0'
p1282
sS'E0_01_R0_20_R1_00_T_E0'
p1283
S'E0_01_R0_20_R1_00_T_R0'
p1284
sS'E0_22_R0_01_R1_00_T_R0'
p1285
S'E0_22_R0_02_R1_00_T_R1'
p1286
sS'E0_22_R0_01_R1_00_T_R1'
p1287
S'E0_22_R0_01_R1_10_T_E0'
p1288
sS'E0_12_R0_02_R1_01_T_E0'
p1289
S'E0_12_R0_02_R1_01_T_R0'
p1290
sS'E0_11_R0_02_R1_01_T_E0'
p1291
S'E0_11_R0_02_R1_01_T_R0'
p1292
sS'E0_20_R0_00_R1_01_T_R0'
p1293
S'E0_20_R0_10_R1_01_T_R1'
p1294
sS'E0_20_R0_00_R1_01_T_R1'
p1295
S'E0_20_R0_00_R1_02_T_E0'
p1296
sS'E0_22_R0_20_R1_01_T_E0'
p1297
S'E0_22_R0_20_R1_01_T_R0'
p1298
sS'E0_02_R0_01_R1_20_T_R0'
p1299
S'E0_02_R0_00_R1_20_T_R1'
p1300
sS'E0_02_R0_01_R1_20_T_R1'
p1301
S'E0_02_R0_01_R1_20_T_E0'
p1302
sS'E0_22_R0_02_R1_00_T_E0'
p1303
S'E0_22_R0_02_R1_00_T_R0'
p1304
sS'E0_20_R0_20_R1_11_T_R1'
p1305
S'E0_20_R0_20_R1_11_T_E0'
p1306
sS'E0_12_R0_21_R1_10_T_E0'
p1307
S'E0_12_R0_21_R1_10_T_R0'
p1308
sS'E0_10_R0_02_R1_01_T_E0'
p1309
S'E0_10_R0_02_R1_01_T_R0'
p1310
sS'E0_00_R0_20_R1_11_T_R1'
p1311
S'E0_00_R0_20_R1_22_T_E0'
p1312
sS'E0_00_R0_20_R1_11_T_R0'
p1313
S'E0_00_R0_20_R1_11_T_R1'
p1314
sS'E0_01_R0_20_R1_12_T_R1'
p1315
S'E0_01_R0_20_R1_22_T_E0'
p1316
sS'E0_01_R0_20_R1_12_T_R0'
p1317
S'E0_01_R0_20_R1_12_T_R1'
p1318
sS'E0_10_R0_21_R1_00_T_E0'
p1319
S'E0_10_R0_21_R1_00_T_R0'
p1320
sS'E0_20_R0_00_R1_10_T_E0'
p1321
S'E0_20_R0_00_R1_10_T_R0'
p1322
sS'E0_01_R0_21_R1_02_T_R1'
p1323
S'E0_01_R0_21_R1_02_T_E0'
p1324
sS'E0_01_R0_21_R1_02_T_R0'
p1325
S'E0_01_R0_22_R1_02_T_R1'
p1326
sS'E0_00_R0_22_R1_01_T_E0'
p1327
S'E0_00_R0_22_R1_01_T_R0'
p1328
sS'E0_12_R0_11_R1_10_T_E0'
p1329
S'E0_12_R0_11_R1_10_T_R0'
p1330
sS'E0_10_R0_20_R1_12_T_E0'
p1331
S'E0_10_R0_20_R1_12_T_R0'
p1332
sS'E0_02_R0_21_R1_01_T_R1'
p1333
S'E0_02_R0_21_R1_00_T_E0'
p1334
sS'E0_02_R0_21_R1_01_T_R0'
p1335
S'E0_02_R0_20_R1_01_T_R1'
p1336
sS'E0_12_R0_10_R1_10_T_R0'
p1337
S'E0_12_R0_00_R1_10_T_R1'
p1338
sS'E0_12_R0_10_R1_10_T_R1'
p1339
S'E0_12_R0_10_R1_00_T_E0'
p1340
sS'E0_20_R0_12_R1_12_T_R1'
p1341
S'E0_20_R0_12_R1_22_T_E0'
p1342
sS'E0_20_R0_12_R1_12_T_R0'
p1343
S'E0_20_R0_22_R1_12_T_R1'
p1344
sS'E0_01_R0_22_R1_11_T_R0'
p1345
S'E0_01_R0_21_R1_11_T_R1'
p1346
sS'E0_01_R0_22_R1_11_T_R1'
p1347
S'E0_01_R0_22_R1_02_T_E0'
p1348
sS'E0_10_R0_22_R1_20_T_E0'
p1349
S'E0_10_R0_22_R1_20_T_R0'
p1350
sS'E0_00_R0_00_R1_12_T_R1'
p1351
S'E0_00_R0_00_R1_12_T_E0'
p1352
sS'E0_12_R0_20_R1_22_T_R0'
p1353
S'E0_12_R0_21_R1_22_T_R1'
p1354
sS'E0_21_R0_10_R1_00_T_R0'
p1355
S'E0_21_R0_20_R1_00_T_R1'
p1356
sS'E0_01_R0_11_R1_12_T_R1'
p1357
S'E0_01_R0_11_R1_22_T_E0'
p1358
sS'E0_01_R0_11_R1_12_T_R0'
p1359
S'E0_01_R0_22_R1_12_T_R1'
p1360
sS'E0_22_R0_00_R1_20_T_R1'
p1361
S'E0_22_R0_00_R1_11_T_E0'
p1362
sS'E0_22_R0_00_R1_20_T_R0'
p1363
S'E0_22_R0_00_R1_20_T_R1'
p1364
sS'E0_11_R0_20_R1_00_T_E0'
p1365
S'E0_11_R0_20_R1_00_T_R0'
p1366
sS'E0_12_R0_21_R1_00_T_R1'
p1367
S'E0_12_R0_21_R1_11_T_E0'
p1368
sS'E0_20_R0_10_R1_10_T_R0'
p1369
S'E0_20_R0_11_R1_10_T_R1'
p1370
sS'E0_02_R0_01_R1_11_T_E0'
p1371
S'E0_02_R0_01_R1_11_T_R0'
p1372
sS'E0_12_R0_11_R1_12_T_E0'
p1373
S'E0_12_R0_11_R1_12_T_R0'
p1374
sS'E0_21_R0_22_R1_11_T_R1'
p1375
S'E0_21_R0_22_R1_02_T_E0'
p1376
sS'E0_01_R0_02_R1_21_T_R1'
p1377
S'E0_01_R0_02_R1_22_T_E0'
p1378
sS'E0_01_R0_02_R1_21_T_R0'
p1379
S'E0_01_R0_02_R1_21_T_R1'
p1380
sS'E0_21_R0_20_R1_22_T_R0'
p1381
S'E0_21_R0_11_R1_22_T_R1'
p1382
sS'E0_21_R0_20_R1_22_T_R1'
p1383
S'E0_21_R0_20_R1_11_T_E0'
p1384
sS'E0_22_R0_12_R1_12_T_R1'
p1385
S'E0_22_R0_12_R1_01_T_E0'
p1386
sS'E0_21_R0_20_R1_11_T_E0'
p1387
S'E0_21_R0_20_R1_11_T_R0'
p1388
sS'E0_12_R0_21_R1_12_T_E0'
p1389
S'E0_12_R0_21_R1_12_T_R0'
p1390
sS'E0_20_R0_10_R1_21_T_E0'
p1391
S'E0_20_R0_10_R1_21_T_R0'
p1392
sS'E0_12_R0_10_R1_02_T_E0'
p1393
S'E0_12_R0_10_R1_02_T_R0'
p1394
sS'E0_22_R0_12_R1_12_T_R0'
p1395
S'E0_22_R0_01_R1_12_T_R1'
p1396
sS'E0_20_R0_10_R1_10_T_E0'
p1397
S'E0_20_R0_10_R1_10_T_R0'
p1398
sS'E0_10_R0_20_R1_02_T_R0'
p1399
S'E0_10_R0_11_R1_02_T_R1'
p1400
sS'E0_22_R0_12_R1_11_T_R1'
p1401
S'E0_22_R0_12_R1_00_T_E0'
p1402
sS'E0_20_R0_02_R1_12_T_R0'
p1403
S'E0_20_R0_02_R1_12_T_R1'
p1404
sS'E0_20_R0_02_R1_12_T_R1'
p1405
S'E0_20_R0_02_R1_22_T_E0'
p1406
sS'E0_12_R0_10_R1_22_T_R1'
p1407
S'E0_12_R0_10_R1_11_T_E0'
p1408
sS'E0_12_R0_10_R1_22_T_R0'
p1409
S'E0_12_R0_20_R1_22_T_R1'
p1410
sS'E0_00_R0_21_R1_10_T_R1'
p1411
S'E0_00_R0_21_R1_20_T_E0'
p1412
sS'E0_00_R0_21_R1_10_T_R0'
p1413
S'E0_00_R0_22_R1_10_T_R1'
p1414
sS'E0_12_R0_11_R1_11_T_R0'
p1415
S'E0_12_R0_00_R1_11_T_R1'
p1416
sS'E0_12_R0_11_R1_11_T_R1'
p1417
S'E0_12_R0_11_R1_20_T_E0'
p1418
sS'E0_01_R0_00_R1_11_T_R0'
p1419
S'E0_01_R0_10_R1_11_T_R1'
p1420
sS'E0_22_R0_12_R1_20_T_E0'
p1421
S'E0_22_R0_12_R1_20_T_R0'
p1422
sS'E0_02_R0_12_R1_01_T_R1'
p1423
S'E0_02_R0_12_R1_10_T_E0'
p1424
sS'E0_22_R0_00_R1_01_T_E0'
p1425
S'E0_22_R0_00_R1_01_T_R0'
p1426
sS'E0_01_R0_00_R1_10_T_R1'
p1427
S'E0_01_R0_00_R1_20_T_E0'
p1428
sS'E0_01_R0_00_R1_10_T_R0'
p1429
S'E0_01_R0_11_R1_10_T_R1'
p1430
sS'E0_02_R0_11_R1_11_T_E0'
p1431
S'E0_02_R0_11_R1_11_T_R0'
p1432
sS'E0_20_R0_22_R1_02_T_R1'
p1433
S'E0_20_R0_22_R1_11_T_E0'
p1434
sS'E0_20_R0_22_R1_02_T_R0'
p1435
S'E0_20_R0_22_R1_02_T_R1'
p1436
sS'E0_12_R0_00_R1_10_T_E0'
p1437
S'E0_12_R0_00_R1_10_T_R0'
p1438
sS'E0_20_R0_10_R1_21_T_R1'
p1439
S'E0_20_R0_10_R1_12_T_E0'
p1440
sS'E0_00_R0_12_R1_01_T_R1'
p1441
S'E0_00_R0_12_R1_02_T_E0'
p1442
sS'E0_00_R0_12_R1_01_T_R0'
p1443
S'E0_00_R0_22_R1_01_T_R1'
p1444
sS'E0_20_R0_01_R1_02_T_R0'
p1445
S'E0_20_R0_00_R1_02_T_R1'
p1446
sS'E0_20_R0_01_R1_02_T_R1'
p1447
S'E0_20_R0_01_R1_02_T_E0'
p1448
sS'E0_20_R0_01_R1_11_T_E0'
p1449
S'E0_20_R0_01_R1_11_T_R0'
p1450
sS'E0_11_R0_20_R1_21_T_R0'
p1451
S'E0_11_R0_20_R1_21_T_R1'
p1452
sS'E0_11_R0_20_R1_21_T_R1'
p1453
S'E0_11_R0_20_R1_22_T_E0'
p1454
sS'E0_01_R0_02_R1_02_T_E0'
p1455
S'E0_01_R0_02_R1_02_T_R0'
p1456
sS'E0_01_R0_11_R1_11_T_E0'
p1457
S'E0_01_R0_11_R1_11_T_R0'
p1458
sS'E0_12_R0_22_R1_11_T_R0'
p1459
S'E0_12_R0_21_R1_11_T_R1'
p1460
sS'E0_12_R0_22_R1_11_T_R1'
p1461
S'E0_12_R0_22_R1_02_T_E0'
p1462
sS'E0_01_R0_10_R1_10_T_E0'
p1463
S'E0_01_R0_10_R1_10_T_R0'
p1464
sS'E0_12_R0_22_R1_01_T_E0'
p1465
S'E0_12_R0_22_R1_01_T_R0'
p1466
sS'E0_12_R0_01_R1_10_T_E0'
p1467
S'E0_12_R0_01_R1_10_T_R0'
p1468
sS'E0_02_R0_22_R1_01_T_R0'
p1469
S'E0_02_R0_21_R1_01_T_R1'
p1470
sS'E0_02_R0_22_R1_01_T_R1'
p1471
S'E0_02_R0_22_R1_11_T_E0'
p1472
sS'E0_10_R0_01_R1_10_T_E0'
p1473
S'E0_10_R0_01_R1_10_T_R0'
p1474
sS'E0_00_R0_01_R1_11_T_R0'
p1475
S'E0_00_R0_02_R1_11_T_R1'
p1476
sS'E0_22_R0_22_R1_10_T_R1'
p1477
S'E0_22_R0_22_R1_10_T_E0'
p1478
sS'E0_22_R0_11_R1_21_T_R0'
p1479
S'E0_22_R0_00_R1_21_T_R1'
p1480
sS'E0_22_R0_11_R1_21_T_R1'
p1481
S'E0_22_R0_11_R1_20_T_E0'
p1482
sS'E0_11_R0_10_R1_10_T_R1'
p1483
S'E0_11_R0_10_R1_00_T_E0'
p1484
sS'E0_21_R0_20_R1_10_T_R1'
p1485
S'E0_21_R0_20_R1_00_T_E0'
p1486
sS'E0_21_R0_20_R1_10_T_R0'
p1487
S'E0_21_R0_20_R1_10_T_R1'
p1488
sS'E0_21_R0_22_R1_10_T_E0'
p1489
S'E0_21_R0_22_R1_10_T_R0'
p1490
sS'E0_02_R0_20_R1_12_T_E0'
p1491
S'E0_02_R0_20_R1_12_T_R0'
p1492
sS'E0_00_R0_01_R1_11_T_R1'
p1493
S'E0_00_R0_01_R1_22_T_E0'
p1494
sS'E0_12_R0_21_R1_02_T_E0'
p1495
S'E0_12_R0_21_R1_02_T_R0'
p1496
sS'E0_00_R0_01_R1_20_T_E0'
p1497
S'E0_00_R0_01_R1_20_T_R0'
p1498
sS'E0_21_R0_00_R1_22_T_R0'
p1499
S'E0_21_R0_11_R1_22_T_R1'
p1500
sS'E0_21_R0_00_R1_22_T_R1'
p1501
S'E0_21_R0_00_R1_11_T_E0'
p1502
sS'E0_21_R0_00_R1_00_T_R0'
p1503
S'E0_21_R0_01_R1_00_T_R1'
p1504
sS'E0_21_R0_00_R1_00_T_R1'
p1505
S'E0_21_R0_00_R1_10_T_E0'
p1506
sS'E0_22_R0_12_R1_21_T_R1'
p1507
S'E0_22_R0_12_R1_10_T_E0'
p1508
sS'E0_22_R0_12_R1_21_T_R0'
p1509
S'E0_22_R0_01_R1_21_T_R1'
p1510
sS'E0_11_R0_10_R1_02_T_R0'
p1511
S'E0_11_R0_00_R1_02_T_R1'
p1512
sS'E0_11_R0_10_R1_02_T_R1'
p1513
S'E0_11_R0_10_R1_02_T_E0'
p1514
sS'E0_22_R0_01_R1_11_T_R0'
p1515
S'E0_22_R0_02_R1_11_T_R1'
p1516
sS'E0_22_R0_01_R1_11_T_R1'
p1517
S'E0_22_R0_01_R1_20_T_E0'
p1518
sS'E0_02_R0_12_R1_21_T_R1'
p1519
S'E0_02_R0_12_R1_20_T_E0'
p1520
sS'E0_02_R0_12_R1_21_T_R0'
p1521
S'E0_02_R0_22_R1_21_T_R1'
p1522
sS'E0_21_R0_01_R1_12_T_R0'
p1523
S'E0_21_R0_02_R1_12_T_R1'
p1524
sS'E0_21_R0_01_R1_12_T_R1'
p1525
S'E0_21_R0_01_R1_22_T_E0'
p1526
sS'E0_02_R0_00_R1_12_T_R0'
p1527
S'E0_02_R0_10_R1_12_T_R1'
p1528
sS'E0_02_R0_00_R1_12_T_R1'
p1529
S'E0_02_R0_00_R1_21_T_E0'
p1530
sS'E0_11_R0_12_R1_10_T_R1'
p1531
S'E0_11_R0_12_R1_00_T_E0'
p1532
sS'E0_11_R0_12_R1_10_T_R0'
p1533
S'E0_11_R0_02_R1_10_T_R1'
p1534
sS'E0_10_R0_21_R1_21_T_R0'
p1535
S'E0_10_R0_20_R1_21_T_R1'
p1536
sS'E0_10_R0_21_R1_21_T_R1'
p1537
S'E0_10_R0_21_R1_22_T_E0'
p1538
sS'E0_20_R0_02_R1_10_T_R0'
p1539
S'E0_20_R0_02_R1_10_T_R1'
p1540
sS'E0_20_R0_02_R1_10_T_R1'
p1541
S'E0_20_R0_02_R1_00_T_E0'
p1542
sS'E0_00_R0_02_R1_21_T_R0'
p1543
S'E0_00_R0_02_R1_21_T_R1'
p1544
sS'E0_00_R0_02_R1_21_T_R1'
p1545
S'E0_00_R0_02_R1_22_T_E0'
p1546
sS'E0_12_R0_01_R1_01_T_R0'
p1547
S'E0_12_R0_00_R1_01_T_R1'
p1548
sS'E0_12_R0_01_R1_01_T_R1'
p1549
S'E0_12_R0_01_R1_00_T_E0'
p1550
sS'E0_12_R0_21_R1_10_T_R1'
p1551
S'E0_12_R0_21_R1_00_T_E0'
p1552
sS'E0_01_R0_21_R1_22_T_E0'
p1553
S'E0_01_R0_21_R1_22_T_R0'
p1554
sS'E0_10_R0_10_R1_12_T_R1'
p1555
S'E0_10_R0_10_R1_12_T_E0'
p1556
sS'E0_22_R0_21_R1_20_T_E0'
p1557
S'E0_22_R0_21_R1_20_T_R0'
p1558
sS'E0_22_R0_20_R1_02_T_E0'
p1559
S'E0_22_R0_20_R1_02_T_R0'
p1560
sS'E0_02_R0_10_R1_21_T_R1'
p1561
S'E0_02_R0_10_R1_22_T_E0'
p1562
sS'E0_02_R0_10_R1_21_T_R0'
p1563
S'E0_02_R0_20_R1_21_T_R1'
p1564
sS'E0_21_R0_12_R1_01_T_R0'
p1565
S'E0_21_R0_02_R1_01_T_R1'
p1566
sS'E0_21_R0_12_R1_01_T_R1'
p1567
S'E0_21_R0_12_R1_02_T_E0'
p1568
sS'E0_12_R0_21_R1_11_T_E0'
p1569
S'E0_12_R0_21_R1_11_T_R0'
p1570
sS'E0_02_R0_12_R1_22_T_E0'
p1571
S'E0_02_R0_12_R1_22_T_R0'
p1572
sS'E0_22_R0_21_R1_00_T_E0'
p1573
S'E0_22_R0_21_R1_00_T_R0'
p1574
sS'E0_00_R0_01_R1_21_T_R1'
p1575
S'E0_00_R0_01_R1_22_T_E0'
p1576
sS'E0_00_R0_01_R1_21_T_R0'
p1577
S'E0_00_R0_02_R1_21_T_R1'
p1578
sS'E0_02_R0_12_R1_10_T_E0'
p1579
S'E0_02_R0_12_R1_10_T_R0'
p1580
sS'E0_20_R0_12_R1_10_T_R0'
p1581
S'E0_20_R0_02_R1_10_T_R1'
p1582
sS'E0_11_R0_10_R1_22_T_R0'
p1583
S'E0_11_R0_20_R1_22_T_R1'
p1584
sS'E0_11_R0_10_R1_22_T_R1'
p1585
S'E0_11_R0_10_R1_22_T_E0'
p1586
sS'E0_21_R0_20_R1_01_T_E0'
p1587
S'E0_21_R0_20_R1_01_T_R0'
p1588
sS'E0_10_R0_10_R1_21_T_R1'
p1589
S'E0_10_R0_10_R1_21_T_E0'
p1590
sS'E0_02_R0_21_R1_22_T_E0'
p1591
S'E0_02_R0_21_R1_22_T_R0'
p1592
sS'E0_11_R0_21_R1_21_T_R1'
p1593
S'E0_11_R0_21_R1_20_T_E0'
p1594
sS'E0_01_R0_02_R1_20_T_R1'
p1595
S'E0_01_R0_02_R1_10_T_E0'
p1596
sS'E0_22_R0_12_R1_22_T_E0'
p1597
S'E0_22_R0_12_R1_22_T_R0'
p1598
sS'E0_22_R0_01_R1_00_T_E0'
p1599
S'E0_22_R0_01_R1_00_T_R0'
p1600
sS'E0_00_R0_02_R1_22_T_R1'
p1601
S'E0_00_R0_02_R1_12_T_E0'
p1602
sS'E0_00_R0_02_R1_22_T_R0'
p1603
S'E0_00_R0_11_R1_22_T_R1'
p1604
sS'E0_01_R0_10_R1_20_T_E0'
p1605
S'E0_01_R0_10_R1_20_T_R0'
p1606
sS'E0_01_R0_21_R1_20_T_E0'
p1607
S'E0_01_R0_21_R1_20_T_R0'
p1608
sS'E0_21_R0_21_R1_12_T_R1'
p1609
S'E0_21_R0_21_R1_12_T_E0'
p1610
sS'E0_01_R0_22_R1_01_T_E0'
p1611
S'E0_01_R0_22_R1_01_T_R0'
p1612
sS'E0_01_R0_00_R1_21_T_R1'
p1613
S'E0_01_R0_00_R1_20_T_E0'
p1614
sS'E0_01_R0_00_R1_21_T_R0'
p1615
S'E0_01_R0_00_R1_21_T_R1'
p1616
sS'E0_20_R0_22_R1_21_T_E0'
p1617
S'E0_20_R0_22_R1_21_T_R0'
p1618
sS'E0_01_R0_11_R1_22_T_E0'
p1619
S'E0_01_R0_11_R1_22_T_R0'
p1620
sS'E0_12_R0_01_R1_12_T_E0'
p1621
S'E0_12_R0_01_R1_12_T_R0'
p1622
sS'E0_21_R0_20_R1_12_T_R1'
p1623
S'E0_21_R0_20_R1_22_T_E0'
p1624
sS'E0_21_R0_20_R1_12_T_R0'
p1625
S'E0_21_R0_20_R1_12_T_R1'
p1626
sS'E0_20_R0_02_R1_02_T_R1'
p1627
S'E0_20_R0_02_R1_01_T_E0'
p1628
sS'E0_20_R0_02_R1_02_T_R0'
p1629
S'E0_20_R0_12_R1_02_T_R1'
p1630
sS'E0_11_R0_22_R1_12_T_E0'
p1631
S'E0_11_R0_22_R1_12_T_R0'
p1632
sS'E0_11_R0_01_R1_01_T_E0'
p1633
S'E0_11_R0_01_R1_01_T_R0'
p1634
sS'E0_12_R0_00_R1_12_T_E0'
p1635
S'E0_12_R0_00_R1_12_T_R0'
p1636
sS'E0_10_R0_00_R1_22_T_E0'
p1637
S'E0_10_R0_00_R1_22_T_R0'
p1638
sS'E0_02_R0_10_R1_20_T_R0'
p1639
S'E0_02_R0_00_R1_20_T_R1'
p1640
sS'E0_22_R0_02_R1_02_T_E0'
p1641
S'E0_22_R0_02_R1_02_T_R0'
p1642
sS'E0_21_R0_10_R1_12_T_E0'
p1643
S'E0_21_R0_10_R1_12_T_R0'
p1644
sS'E0_11_R0_22_R1_02_T_R1'
p1645
S'E0_11_R0_22_R1_01_T_E0'
p1646
sS'E0_11_R0_22_R1_02_T_R0'
p1647
S'E0_11_R0_21_R1_02_T_R1'
p1648
sS'E0_00_R0_01_R1_22_T_E0'
p1649
S'E0_00_R0_01_R1_22_T_R0'
p1650
sS'E0_12_R0_11_R1_00_T_E0'
p1651
S'E0_12_R0_11_R1_00_T_R0'
p1652
sS'E0_10_R0_00_R1_12_T_R1'
p1653
S'E0_10_R0_00_R1_02_T_E0'
p1654
sS'E0_10_R0_00_R1_12_T_R0'
p1655
S'E0_10_R0_01_R1_12_T_R1'
p1656
sS'E0_12_R0_20_R1_22_T_E0'
p1657
S'E0_12_R0_20_R1_22_T_R0'
p1658
sS'E0_12_R0_20_R1_01_T_E0'
p1659
S'E0_12_R0_20_R1_01_T_R0'
p1660
sS'E0_01_R0_11_R1_10_T_E0'
p1661
S'E0_01_R0_11_R1_10_T_R0'
p1662
sS'E0_11_R0_10_R1_20_T_R0'
p1663
S'E0_11_R0_00_R1_20_T_R1'
p1664
sS'E0_11_R0_10_R1_20_T_R1'
p1665
S'E0_11_R0_10_R1_20_T_E0'
p1666
sS'E0_20_R0_22_R1_00_T_R1'
p1667
S'E0_20_R0_22_R1_11_T_E0'
p1668
sS'E0_12_R0_20_R1_00_T_R0'
p1669
S'E0_12_R0_10_R1_00_T_R1'
p1670
sS'E0_12_R0_20_R1_00_T_R1'
p1671
S'E0_12_R0_20_R1_11_T_E0'
p1672
sS'E0_10_R0_22_R1_11_T_R0'
p1673
S'E0_10_R0_21_R1_11_T_R1'
p1674
sS'E0_02_R0_20_R1_02_T_E0'
p1675
S'E0_02_R0_20_R1_02_T_R0'
p1676
sS'E0_11_R0_20_R1_21_T_E0'
p1677
S'E0_11_R0_20_R1_21_T_R0'
p1678
sS'E0_22_R0_02_R1_00_T_R1'
p1679
S'E0_22_R0_02_R1_10_T_E0'
p1680
sS'E0_22_R0_02_R1_00_T_R0'
p1681
S'E0_22_R0_12_R1_00_T_R1'
p1682
sS'E0_10_R0_02_R1_00_T_E0'
p1683
S'E0_10_R0_02_R1_00_T_R0'
p1684
sS'E0_12_R0_01_R1_20_T_R1'
p1685
S'E0_12_R0_01_R1_20_T_E0'
p1686
sS'E0_02_R0_10_R1_00_T_E0'
p1687
S'E0_02_R0_10_R1_00_T_R0'
p1688
sS'E0_10_R0_12_R1_22_T_E0'
p1689
S'E0_10_R0_12_R1_22_T_R0'
p1690
sS'E0_11_R0_01_R1_02_T_E0'
p1691
S'E0_11_R0_01_R1_02_T_R0'
p1692
sS'E0_21_R0_20_R1_22_T_E0'
p1693
S'E0_21_R0_20_R1_22_T_R0'
p1694
sS'E0_21_R0_00_R1_02_T_E0'
p1695
S'E0_21_R0_00_R1_02_T_R0'
p1696
sS'E0_11_R0_21_R1_20_T_E0'
p1697
S'E0_11_R0_21_R1_20_T_R0'
p1698
sS'E0_21_R0_22_R1_10_T_R1'
p1699
S'E0_21_R0_22_R1_20_T_E0'
p1700
sS'E0_21_R0_22_R1_10_T_R0'
p1701
S'E0_21_R0_11_R1_10_T_R1'
p1702
sS'E0_22_R0_02_R1_12_T_R0'
p1703
S'E0_22_R0_11_R1_12_T_R1'
p1704
sS'E0_22_R0_02_R1_12_T_R1'
p1705
S'E0_22_R0_02_R1_11_T_E0'
p1706
sS'E0_20_R0_11_R1_12_T_E0'
p1707
S'E0_20_R0_11_R1_12_T_R0'
p1708
sS'E0_20_R0_02_R1_01_T_E0'
p1709
S'E0_20_R0_02_R1_01_T_R0'
p1710
sS'E0_01_R0_20_R1_01_T_E0'
p1711
S'E0_01_R0_20_R1_01_T_R0'
p1712
sS'E0_10_R0_22_R1_12_T_R1'
p1713
S'E0_10_R0_22_R1_02_T_E0'
p1714
sS'E0_10_R0_22_R1_12_T_R0'
p1715
S'E0_10_R0_21_R1_12_T_R1'
p1716
sS'E0_11_R0_10_R1_02_T_E0'
p1717
S'E0_11_R0_10_R1_02_T_R0'
p1718
sS'E0_01_R0_20_R1_20_T_E0'
p1719
S'E0_01_R0_20_R1_20_T_R0'
p1720
sS'E0_11_R0_21_R1_12_T_E0'
p1721
S'E0_11_R0_21_R1_12_T_R0'
p1722
sS'E0_22_R0_00_R1_02_T_R1'
p1723
S'E0_22_R0_00_R1_11_T_E0'
p1724
sS'E0_22_R0_00_R1_02_T_R0'
p1725
S'E0_22_R0_10_R1_02_T_R1'
p1726
sS'E0_12_R0_22_R1_01_T_R1'
p1727
S'E0_12_R0_22_R1_02_T_E0'
p1728
sS'E0_12_R0_22_R1_01_T_R0'
p1729
S'E0_12_R0_11_R1_01_T_R1'
p1730
sS'E0_22_R0_02_R1_22_T_E0'
p1731
S'E0_22_R0_02_R1_22_T_R0'
p1732
sS'E0_02_R0_12_R1_11_T_R0'
p1733
S'E0_02_R0_22_R1_11_T_R1'
p1734
sS'E0_22_R0_01_R1_20_T_E0'
p1735
S'E0_22_R0_01_R1_20_T_R0'
p1736
sS'E0_01_R0_00_R1_00_T_R1'
p1737
S'E0_01_R0_00_R1_11_T_E0'
p1738
sS'E0_02_R0_00_R1_11_T_R1'
p1739
S'E0_02_R0_00_R1_20_T_E0'
p1740
sS'E0_02_R0_00_R1_11_T_R0'
p1741
S'E0_02_R0_01_R1_11_T_R1'
p1742
sS'E0_10_R0_20_R1_20_T_R0'
p1743
S'E0_10_R0_21_R1_20_T_R1'
p1744
sS'E0_10_R0_20_R1_20_T_R1'
p1745
S'E0_10_R0_20_R1_11_T_E0'
p1746
sS'E0_20_R0_12_R1_21_T_E0'
p1747
S'E0_20_R0_12_R1_21_T_R0'
p1748
sS'E0_12_R0_00_R1_02_T_R0'
p1749
S'E0_12_R0_11_R1_02_T_R1'
p1750
sS'E0_12_R0_00_R1_02_T_R1'
p1751
S'E0_12_R0_00_R1_02_T_E0'
p1752
sS'E0_00_R0_12_R1_10_T_E0'
p1753
S'E0_00_R0_12_R1_10_T_R0'
p1754
sS'E0_22_R0_00_R1_12_T_R0'
p1755
S'E0_22_R0_10_R1_12_T_R1'
p1756
sS'E0_11_R0_10_R1_10_T_R0'
p1757
S'E0_11_R0_00_R1_10_T_R1'
p1758
sS'E0_10_R0_12_R1_02_T_R1'
p1759
S'E0_10_R0_12_R1_02_T_E0'
p1760
sS'E0_10_R0_12_R1_02_T_R0'
p1761
S'E0_10_R0_22_R1_02_T_R1'
p1762
sS'E0_11_R0_22_R1_10_T_E0'
p1763
S'E0_11_R0_22_R1_10_T_R0'
p1764
sS'E0_10_R0_11_R1_00_T_R0'
p1765
S'E0_10_R0_20_R1_00_T_R1'
p1766
sS'E0_10_R0_11_R1_00_T_R1'
p1767
S'E0_10_R0_11_R1_11_T_E0'
p1768
sS'E0_21_R0_12_R1_11_T_E0'
p1769
S'E0_21_R0_12_R1_11_T_R0'
p1770
sS'E0_10_R0_12_R1_20_T_R1'
p1771
S'E0_10_R0_12_R1_20_T_E0'
p1772
sS'E0_10_R0_12_R1_20_T_R0'
p1773
S'E0_10_R0_22_R1_20_T_R1'
p1774
sS'E0_12_R0_11_R1_20_T_E0'
p1775
S'E0_12_R0_11_R1_20_T_R0'
p1776
sS'E0_02_R0_00_R1_12_T_E0'
p1777
S'E0_02_R0_00_R1_12_T_R0'
p1778
sS'E0_12_R0_02_R1_00_T_R0'
p1779
S'E0_12_R0_01_R1_00_T_R1'
p1780
sS'E0_12_R0_02_R1_00_T_R1'
p1781
S'E0_12_R0_02_R1_10_T_E0'
p1782
sS'E0_02_R0_10_R1_22_T_E0'
p1783
S'E0_02_R0_10_R1_22_T_R0'
p1784
sS'E0_02_R0_20_R1_20_T_E0'
p1785
S'E0_02_R0_20_R1_20_T_R0'
p1786
sS'E0_02_R0_00_R1_20_T_E0'
p1787
S'E0_02_R0_00_R1_20_T_R0'
p1788
sS'E0_00_R0_22_R1_12_T_R0'
p1789
S'E0_00_R0_22_R1_12_T_R1'
p1790
sS'E0_00_R0_22_R1_12_T_R1'
p1791
S'E0_00_R0_22_R1_02_T_E0'
p1792
sS'E0_01_R0_21_R1_20_T_R1'
p1793
S'E0_01_R0_21_R1_20_T_E0'
p1794
sS'E0_01_R0_21_R1_20_T_R0'
p1795
S'E0_01_R0_22_R1_20_T_R1'
p1796
sS'E0_10_R0_11_R1_11_T_R0'
p1797
S'E0_10_R0_00_R1_11_T_R1'
p1798
sS'E0_10_R0_11_R1_11_T_R1'
p1799
S'E0_10_R0_11_R1_02_T_E0'
p1800
sS'E0_22_R0_20_R1_11_T_R1'
p1801
S'E0_22_R0_20_R1_00_T_E0'
p1802
sS'E0_22_R0_20_R1_11_T_R0'
p1803
S'E0_22_R0_20_R1_11_T_R1'
p1804
sS'E0_00_R0_12_R1_20_T_R0'
p1805
S'E0_00_R0_22_R1_20_T_R1'
p1806
sS'E0_00_R0_12_R1_20_T_R1'
p1807
S'E0_00_R0_12_R1_20_T_E0'
p1808
sS'E0_01_R0_02_R1_12_T_E0'
p1809
S'E0_01_R0_02_R1_12_T_R0'
p1810
sS'E0_10_R0_00_R1_01_T_R1'
p1811
S'E0_10_R0_00_R1_02_T_E0'
p1812
sS'E0_10_R0_00_R1_01_T_R0'
p1813
S'E0_10_R0_11_R1_01_T_R1'
p1814
sS'E0_21_R0_02_R1_00_T_E0'
p1815
S'E0_21_R0_02_R1_00_T_R0'
p1816
sS'E0_11_R0_11_R1_01_T_R1'
p1817
S'E0_11_R0_11_R1_01_T_E0'
p1818
sS'E0_02_R0_01_R1_01_T_E0'
p1819
S'E0_02_R0_01_R1_01_T_R0'
p1820
sS'E0_21_R0_20_R1_00_T_E0'
p1821
S'E0_21_R0_20_R1_00_T_R0'
p1822
sS'E0_10_R0_00_R1_00_T_R0'
p1823
S'E0_10_R0_01_R1_00_T_R1'
p1824
sS'E0_10_R0_00_R1_00_T_R1'
p1825
S'E0_10_R0_00_R1_11_T_E0'
p1826
sS'E0_20_R0_21_R1_02_T_R0'
p1827
S'E0_20_R0_22_R1_02_T_R1'
p1828
sS'E0_20_R0_21_R1_02_T_R1'
p1829
S'E0_20_R0_21_R1_02_T_E0'
p1830
sS'E0_11_R0_21_R1_22_T_E0'
p1831
S'E0_11_R0_21_R1_22_T_R0'
p1832
sS'E0_01_R0_10_R1_21_T_R0'
p1833
S'E0_01_R0_00_R1_21_T_R1'
p1834
sS'E0_01_R0_10_R1_21_T_R1'
p1835
S'E0_01_R0_10_R1_22_T_E0'
p1836
sS'E0_02_R0_02_R1_22_T_R1'
p1837
S'E0_02_R0_02_R1_22_T_E0'
p1838
sS'E0_10_R0_11_R1_12_T_E0'
p1839
S'E0_10_R0_11_R1_12_T_R0'
p1840
sS'E0_11_R0_21_R1_21_T_E0'
p1841
S'E0_11_R0_21_R1_21_T_R0'
p1842
sS'E0_02_R0_01_R1_21_T_R1'
p1843
S'E0_02_R0_01_R1_20_T_E0'
p1844
sS'E0_02_R0_01_R1_21_T_R0'
p1845
S'E0_02_R0_00_R1_21_T_R1'
p1846
sS'E0_02_R0_20_R1_01_T_R0'
p1847
S'E0_02_R0_20_R1_01_T_R1'
p1848
sS'E0_02_R0_20_R1_01_T_R1'
p1849
S'E0_02_R0_20_R1_00_T_E0'
p1850
sS'E0_21_R0_01_R1_01_T_E0'
p1851
S'E0_21_R0_01_R1_01_T_R0'
p1852
sS'E0_22_R0_00_R1_00_T_R1'
p1853
S'E0_22_R0_00_R1_01_T_E0'
p1854
sS'E0_22_R0_00_R1_00_T_R0'
p1855
S'E0_22_R0_11_R1_00_T_R1'
p1856
sS'E0_12_R0_11_R1_21_T_R1'
p1857
S'E0_12_R0_11_R1_20_T_E0'
p1858
sS'E0_12_R0_11_R1_21_T_R0'
p1859
S'E0_12_R0_02_R1_21_T_R1'
p1860
sS'E0_12_R0_12_R1_01_T_R1'
p1861
S'E0_12_R0_12_R1_01_T_E0'
p1862
sS'E0_11_R0_02_R1_21_T_R0'
p1863
S'E0_11_R0_02_R1_21_T_R1'
p1864
sS'E0_11_R0_02_R1_21_T_R1'
p1865
S'E0_11_R0_02_R1_22_T_E0'
p1866
sS'E0_11_R0_01_R1_00_T_E0'
p1867
S'E0_11_R0_01_R1_00_T_R0'
p1868
sS'E0_00_R0_21_R1_22_T_E0'
p1869
S'E0_00_R0_21_R1_22_T_R0'
p1870
sS'E0_21_R0_11_R1_21_T_E0'
p1871
S'E0_21_R0_11_R1_21_T_R0'
p1872
sS'E0_20_R0_02_R1_00_T_E0'
p1873
S'E0_20_R0_02_R1_00_T_R0'
p1874
sS'E0_00_R0_22_R1_10_T_R0'
p1875
S'E0_00_R0_22_R1_10_T_R1'
p1876
sS'E0_00_R0_22_R1_10_T_R1'
p1877
S'E0_00_R0_22_R1_20_T_E0'
p1878
sS'E0_00_R0_20_R1_20_T_R1'
p1879
S'E0_00_R0_20_R1_21_T_E0'
p1880
sS'E0_00_R0_20_R1_20_T_R0'
p1881
S'E0_00_R0_21_R1_20_T_R1'
p1882
sS'E0_21_R0_10_R1_02_T_E0'
p1883
S'E0_21_R0_10_R1_02_T_R0'
p1884
sS'E0_20_R0_01_R1_20_T_E0'
p1885
S'E0_20_R0_01_R1_20_T_R0'
p1886
sS'E0_20_R0_22_R1_22_T_R1'
p1887
S'E0_20_R0_22_R1_11_T_E0'
p1888
sS'E0_11_R0_10_R1_22_T_E0'
p1889
S'E0_11_R0_10_R1_22_T_R0'
p1890
sS'E0_11_R0_02_R1_22_T_E0'
p1891
S'E0_11_R0_02_R1_22_T_R0'
p1892
sS'E0_21_R0_02_R1_21_T_E0'
p1893
S'E0_21_R0_02_R1_21_T_R0'
p1894
sS'E0_10_R0_21_R1_10_T_E0'
p1895
S'E0_10_R0_21_R1_10_T_R0'
p1896
sS'E0_01_R0_11_R1_10_T_R1'
p1897
S'E0_01_R0_11_R1_00_T_E0'
p1898
sS'E0_01_R0_11_R1_10_T_R0'
p1899
S'E0_01_R0_00_R1_10_T_R1'
p1900
sS'E0_21_R0_01_R1_00_T_R1'
p1901
S'E0_21_R0_01_R1_00_T_E0'
p1902
sS'E0_21_R0_01_R1_00_T_R0'
p1903
S'E0_21_R0_02_R1_00_T_R1'
p1904
sS'E0_02_R0_11_R1_10_T_E0'
p1905
S'E0_02_R0_11_R1_10_T_R0'
p1906
sS'E0_01_R0_22_R1_22_T_R0'
p1907
S'E0_01_R0_21_R1_22_T_R1'
p1908
sS'E0_01_R0_22_R1_22_T_R1'
p1909
S'E0_01_R0_22_R1_12_T_E0'
p1910
sS'E0_01_R0_02_R1_11_T_R0'
p1911
S'E0_01_R0_02_R1_11_T_R1'
p1912
sS'E0_01_R0_02_R1_11_T_R1'
p1913
S'E0_01_R0_02_R1_22_T_E0'
p1914
sS'E0_02_R0_00_R1_10_T_R0'
p1915
S'E0_02_R0_00_R1_10_T_R1'
p1916
sS'E0_01_R0_12_R1_12_T_E0'
p1917
S'E0_01_R0_12_R1_12_T_R0'
p1918
sS'E0_02_R0_11_R1_21_T_E0'
p1919
S'E0_02_R0_11_R1_21_T_R0'
p1920
sS'E0_02_R0_11_R1_01_T_R0'
p1921
S'E0_02_R0_20_R1_01_T_R1'
p1922
sS'E0_02_R0_11_R1_01_T_R1'
p1923
S'E0_02_R0_11_R1_00_T_E0'
p1924
sS'E0_11_R0_00_R1_10_T_R0'
p1925
S'E0_11_R0_00_R1_10_T_R1'
p1926
sS'E0_11_R0_00_R1_10_T_R1'
p1927
S'E0_11_R0_00_R1_20_T_E0'
p1928
sS'E0_11_R0_00_R1_00_T_E0'
p1929
S'E0_11_R0_00_R1_00_T_R0'
p1930
sS'E0_02_R0_22_R1_00_T_R0'
p1931
S'E0_02_R0_11_R1_00_T_R1'
p1932
sS'E0_01_R0_21_R1_12_T_R0'
p1933
S'E0_01_R0_22_R1_12_T_R1'
p1934
sS'E0_01_R0_21_R1_12_T_R1'
p1935
S'E0_01_R0_21_R1_22_T_E0'
p1936
sS'E0_11_R0_01_R1_01_T_R1'
p1937
S'E0_11_R0_01_R1_00_T_E0'
p1938
sS'E0_11_R0_01_R1_01_T_R0'
p1939
S'E0_11_R0_02_R1_01_T_R1'
p1940
sS'E0_20_R0_01_R1_10_T_E0'
p1941
S'E0_20_R0_01_R1_10_T_R0'
p1942
sS'E0_00_R0_11_R1_12_T_R0'
p1943
S'E0_00_R0_22_R1_12_T_R1'
p1944
sS'E0_00_R0_11_R1_12_T_R1'
p1945
S'E0_00_R0_11_R1_02_T_E0'
p1946
sS'E0_21_R0_00_R1_12_T_R1'
p1947
S'E0_21_R0_00_R1_02_T_E0'
p1948
sS'E0_21_R0_00_R1_12_T_R0'
p1949
S'E0_21_R0_10_R1_12_T_R1'
p1950
sS'E0_22_R0_10_R1_00_T_R0'
p1951
S'E0_22_R0_20_R1_00_T_R1'
p1952
sS'E0_22_R0_10_R1_00_T_R1'
p1953
S'E0_22_R0_10_R1_11_T_E0'
p1954
sS'E0_12_R0_10_R1_11_T_R1'
p1955
S'E0_12_R0_10_R1_02_T_E0'
p1956
sS'E0_20_R0_00_R1_12_T_E0'
p1957
S'E0_20_R0_00_R1_12_T_R0'
p1958
sS'E0_21_R0_12_R1_20_T_R1'
p1959
S'E0_21_R0_12_R1_20_T_E0'
p1960
sS'E0_21_R0_12_R1_20_T_R0'
p1961
S'E0_21_R0_22_R1_20_T_R1'
p1962
sS'E0_01_R0_22_R1_20_T_R0'
p1963
S'E0_01_R0_11_R1_20_T_R1'
p1964
sS'E0_01_R0_22_R1_20_T_R1'
p1965
S'E0_01_R0_22_R1_10_T_E0'
p1966
sS'E0_12_R0_11_R1_22_T_E0'
p1967
S'E0_12_R0_11_R1_22_T_R0'
p1968
sS'E0_10_R0_10_R1_20_T_R1'
p1969
S'E0_10_R0_10_R1_20_T_E0'
p1970
sS'E0_02_R0_01_R1_12_T_R0'
p1971
S'E0_02_R0_11_R1_12_T_R1'
p1972
sS'E0_10_R0_02_R1_22_T_R0'
p1973
S'E0_10_R0_01_R1_22_T_R1'
p1974
sS'E0_10_R0_02_R1_22_T_R1'
p1975
S'E0_10_R0_02_R1_12_T_E0'
p1976
sS'E0_20_R0_00_R1_22_T_R1'
p1977
S'E0_20_R0_00_R1_11_T_E0'
p1978
sS'E0_20_R0_00_R1_22_T_R0'
p1979
S'E0_20_R0_11_R1_22_T_R1'
p1980
sS'E0_22_R0_11_R1_12_T_R0'
p1981
S'E0_22_R0_00_R1_12_T_R1'
p1982
sS'E0_22_R0_11_R1_12_T_R1'
p1983
S'E0_22_R0_11_R1_02_T_E0'
p1984
sS'E0_12_R0_02_R1_21_T_R1'
p1985
S'E0_12_R0_02_R1_22_T_E0'
p1986
sS'E0_12_R0_02_R1_21_T_R0'
p1987
S'E0_12_R0_02_R1_21_T_R1'
p1988
sS'E0_01_R0_00_R1_20_T_R0'
p1989
S'E0_01_R0_11_R1_20_T_R1'
p1990
sS'E0_01_R0_00_R1_20_T_R1'
p1991
S'E0_01_R0_00_R1_10_T_E0'
p1992
sS'E0_12_R0_20_R1_20_T_E0'
p1993
S'E0_12_R0_20_R1_20_T_R0'
p1994
sS'E0_00_R0_22_R1_20_T_R1'
p1995
S'E0_00_R0_22_R1_11_T_E0'
p1996
sS'E0_00_R0_22_R1_20_T_R0'
p1997
S'E0_00_R0_21_R1_20_T_R1'
p1998
sS'E0_01_R0_00_R1_01_T_E0'
p1999
S'E0_01_R0_00_R1_01_T_R0'
p2000
sS'E0_02_R0_21_R1_00_T_R0'
p2001
S'E0_02_R0_20_R1_00_T_R1'
p2002
sS'E0_10_R0_02_R1_12_T_R1'
p2003
S'E0_10_R0_02_R1_22_T_E0'
p2004
sS'E0_10_R0_02_R1_12_T_R0'
p2005
S'E0_10_R0_02_R1_12_T_R1'
p2006
sS'E0_10_R0_21_R1_20_T_R1'
p2007
S'E0_10_R0_21_R1_20_T_E0'
p2008
sS'E0_10_R0_21_R1_20_T_R0'
p2009
S'E0_10_R0_22_R1_20_T_R1'
p2010
sS'E0_00_R0_12_R1_20_T_E0'
p2011
S'E0_00_R0_12_R1_20_T_R0'
p2012
sS'E0_20_R0_22_R1_22_T_E0'
p2013
S'E0_20_R0_22_R1_22_T_R0'
p2014
sS'E0_21_R0_11_R1_02_T_E0'
p2015
S'E0_21_R0_11_R1_02_T_R0'
p2016
sS'E0_20_R0_22_R1_00_T_R0'
p2017
S'E0_20_R0_12_R1_00_T_R1'
p2018
sS'E0_21_R0_02_R1_02_T_R0'
p2019
S'E0_21_R0_11_R1_02_T_R1'
p2020
sS'E0_22_R0_02_R1_01_T_R0'
p2021
S'E0_22_R0_02_R1_01_T_R1'
p2022
sS'E0_22_R0_02_R1_01_T_R1'
p2023
S'E0_22_R0_02_R1_00_T_E0'
p2024
sS'E0_20_R0_12_R1_21_T_R1'
p2025
S'E0_20_R0_12_R1_22_T_E0'
p2026
sS'E0_20_R0_12_R1_21_T_R0'
p2027
S'E0_20_R0_02_R1_21_T_R1'
p2028
sS'E0_00_R0_21_R1_12_T_R1'
p2029
S'E0_00_R0_21_R1_22_T_E0'
p2030
sS'E0_00_R0_21_R1_12_T_R0'
p2031
S'E0_00_R0_22_R1_12_T_R1'
p2032
sS'E0_12_R0_11_R1_02_T_R1'
p2033
S'E0_12_R0_11_R1_02_T_E0'
p2034
sS'E0_02_R0_11_R1_20_T_E0'
p2035
S'E0_02_R0_11_R1_20_T_R0'
p2036
sS'E0_12_R0_21_R1_10_T_R0'
p2037
S'E0_12_R0_22_R1_10_T_R1'
p2038
sS'E0_01_R0_02_R1_10_T_E0'
p2039
S'E0_01_R0_02_R1_10_T_R0'
p2040
sS'E0_02_R0_21_R1_20_T_R0'
p2041
S'E0_02_R0_22_R1_20_T_R1'
p2042
sS'E0_02_R0_21_R1_20_T_R1'
p2043
S'E0_02_R0_21_R1_20_T_E0'
p2044
sS'E0_12_R0_02_R1_20_T_R0'
p2045
S'E0_12_R0_11_R1_20_T_R1'
p2046
sS'E0_00_R0_21_R1_20_T_E0'
p2047
S'E0_00_R0_21_R1_20_T_R0'
p2048
sS'E0_11_R0_10_R1_11_T_E0'
p2049
S'E0_11_R0_10_R1_11_T_R0'
p2050
sS'E0_21_R0_20_R1_02_T_R0'
p2051
S'E0_21_R0_11_R1_02_T_R1'
p2052
sS'E0_10_R0_11_R1_12_T_R1'
p2053
S'E0_10_R0_11_R1_02_T_E0'
p2054
sS'E0_10_R0_11_R1_12_T_R0'
p2055
S'E0_10_R0_20_R1_12_T_R1'
p2056
sS'E0_21_R0_20_R1_02_T_R1'
p2057
S'E0_21_R0_20_R1_12_T_E0'
p2058
sS'E0_01_R0_02_R1_01_T_E0'
p2059
S'E0_01_R0_02_R1_01_T_R0'
p2060
sS'E0_20_R0_11_R1_02_T_E0'
p2061
S'E0_20_R0_11_R1_02_T_R0'
p2062
sS'E0_12_R0_21_R1_20_T_E0'
p2063
S'E0_12_R0_21_R1_20_T_R0'
p2064
sS'E0_01_R0_12_R1_11_T_E0'
p2065
S'E0_01_R0_12_R1_11_T_R0'
p2066
sS'E0_00_R0_02_R1_12_T_R0'
p2067
S'E0_00_R0_02_R1_12_T_R1'
p2068
sS'E0_00_R0_02_R1_12_T_R1'
p2069
S'E0_00_R0_02_R1_22_T_E0'
p2070
sS'E0_11_R0_20_R1_20_T_E0'
p2071
S'E0_11_R0_20_R1_20_T_R0'
p2072
sS'E0_20_R0_22_R1_11_T_R1'
p2073
S'E0_20_R0_22_R1_02_T_E0'
p2074
sS'E0_20_R0_22_R1_11_T_R0'
p2075
S'E0_20_R0_12_R1_11_T_R1'
p2076
sS'E0_10_R0_01_R1_12_T_R0'
p2077
S'E0_10_R0_02_R1_12_T_R1'
p2078
sS'E0_10_R0_01_R1_12_T_R1'
p2079
S'E0_10_R0_01_R1_02_T_E0'
p2080
sS'E0_00_R0_22_R1_21_T_R0'
p2081
S'E0_00_R0_22_R1_21_T_R1'
p2082
sS'E0_00_R0_22_R1_21_T_R1'
p2083
S'E0_00_R0_22_R1_20_T_E0'
p2084
sS'E0_11_R0_22_R1_22_T_E0'
p2085
S'E0_11_R0_22_R1_22_T_R0'
p2086
sS'E0_11_R0_10_R1_12_T_R1'
p2087
S'E0_11_R0_10_R1_22_T_E0'
p2088
sS'E0_22_R0_21_R1_21_T_E0'
p2089
S'E0_22_R0_21_R1_21_T_R0'
p2090
sS'E0_11_R0_10_R1_12_T_R0'
p2091
S'E0_11_R0_00_R1_12_T_R1'
p2092
sS'E0_10_R0_00_R1_00_T_E0'
p2093
S'E0_10_R0_00_R1_00_T_R0'
p2094
sS'E0_00_R0_10_R1_02_T_R0'
p2095
S'E0_00_R0_11_R1_02_T_R1'
p2096
sS'E0_00_R0_10_R1_02_T_R1'
p2097
S'E0_00_R0_10_R1_11_T_E0'
p2098
sS'E0_12_R0_01_R1_11_T_R1'
p2099
S'E0_12_R0_01_R1_22_T_E0'
p2100
sS'E0_12_R0_01_R1_11_T_R0'
p2101
S'E0_12_R0_00_R1_11_T_R1'
p2102
sS'E0_12_R0_00_R1_11_T_E0'
p2103
S'E0_12_R0_00_R1_11_T_R0'
p2104
sS'E0_12_R0_12_R1_02_T_R1'
p2105
S'E0_12_R0_12_R1_02_T_E0'
p2106
sS'E0_21_R0_10_R1_10_T_R0'
p2107
S'E0_21_R0_20_R1_10_T_R1'
p2108
sS'E0_21_R0_10_R1_10_T_R1'
p2109
S'E0_21_R0_10_R1_20_T_E0'
p2110
sS'E0_10_R0_10_R1_11_T_R1'
p2111
S'E0_10_R0_10_R1_11_T_E0'
p2112
sS'E0_11_R0_02_R1_22_T_R1'
p2113
S'E0_11_R0_02_R1_12_T_E0'
p2114
sS'E0_11_R0_02_R1_22_T_R0'
p2115
S'E0_11_R0_01_R1_22_T_R1'
p2116
sS'E0_22_R0_20_R1_02_T_R0'
p2117
S'E0_22_R0_11_R1_02_T_R1'
p2118
sS'E0_22_R0_00_R1_12_T_E0'
p2119
S'E0_22_R0_00_R1_12_T_R0'
p2120
sS'E0_02_R0_12_R1_11_T_E0'
p2121
S'E0_02_R0_12_R1_11_T_R0'
p2122
sS'E0_20_R0_12_R1_22_T_E0'
p2123
S'E0_20_R0_12_R1_22_T_R0'
p2124
sS'E0_00_R0_10_R1_21_T_E0'
p2125
S'E0_00_R0_10_R1_21_T_R0'
p2126
sS'E0_11_R0_10_R1_01_T_E0'
p2127
S'E0_11_R0_10_R1_01_T_R0'
p2128
sS'E0_20_R0_10_R1_01_T_E0'
p2129
S'E0_20_R0_10_R1_01_T_R0'
p2130
sS'E0_22_R0_22_R1_20_T_R1'
p2131
S'E0_22_R0_22_R1_20_T_E0'
p2132
sS'E0_00_R0_10_R1_11_T_E0'
p2133
S'E0_00_R0_10_R1_11_T_R0'
p2134
sS'E0_01_R0_02_R1_20_T_R0'
p2135
S'E0_01_R0_11_R1_20_T_R1'
p2136
sS'E0_11_R0_21_R1_21_T_R0'
p2137
S'E0_11_R0_22_R1_21_T_R1'
p2138
sS'E0_20_R0_21_R1_12_T_R0'
p2139
S'E0_20_R0_22_R1_12_T_R1'
p2140
sS'E0_12_R0_22_R1_10_T_R1'
p2141
S'E0_12_R0_22_R1_20_T_E0'
p2142
sS'E0_12_R0_22_R1_10_T_R0'
p2143
S'E0_12_R0_11_R1_10_T_R1'
p2144
sS'E0_20_R0_21_R1_21_T_R1'
p2145
S'E0_20_R0_21_R1_12_T_E0'
p2146
sS'E0_20_R0_21_R1_21_T_R0'
p2147
S'E0_20_R0_11_R1_21_T_R1'
p2148
sS'E0_01_R0_02_R1_21_T_E0'
p2149
S'E0_01_R0_02_R1_21_T_R0'
p2150
sS'E0_12_R0_01_R1_00_T_E0'
p2151
S'E0_12_R0_01_R1_00_T_R0'
p2152
sS'E0_21_R0_20_R1_11_T_R0'
p2153
S'E0_21_R0_20_R1_11_T_R1'
p2154
sS'E0_21_R0_20_R1_11_T_R1'
p2155
S'E0_21_R0_20_R1_22_T_E0'
p2156
sS'E0_11_R0_10_R1_21_T_R1'
p2157
S'E0_11_R0_10_R1_22_T_E0'
p2158
sS'E0_11_R0_10_R1_21_T_R0'
p2159
S'E0_11_R0_00_R1_21_T_R1'
p2160
sS'E0_12_R0_02_R1_22_T_E0'
p2161
S'E0_12_R0_02_R1_22_T_R0'
p2162
sS'E0_00_R0_22_R1_12_T_E0'
p2163
S'E0_00_R0_22_R1_12_T_R0'
p2164
sS'E0_11_R0_12_R1_00_T_E0'
p2165
S'E0_11_R0_12_R1_00_T_R0'
p2166
sS'E0_11_R0_00_R1_22_T_E0'
p2167
S'E0_11_R0_00_R1_22_T_R0'
p2168
sS'E0_20_R0_02_R1_00_T_R1'
p2169
S'E0_20_R0_02_R1_11_T_E0'
p2170
sS'E0_20_R0_02_R1_00_T_R0'
p2171
S'E0_20_R0_12_R1_00_T_R1'
p2172
sS'E0_11_R0_01_R1_11_T_E0'
p2173
S'E0_11_R0_01_R1_11_T_R0'
p2174
sS'E0_00_R0_12_R1_10_T_R1'
p2175
S'E0_00_R0_12_R1_20_T_E0'
p2176
sS'E0_22_R0_10_R1_02_T_E0'
p2177
S'E0_22_R0_10_R1_02_T_R0'
p2178
sS'E0_01_R0_10_R1_22_T_R0'
p2179
S'E0_01_R0_20_R1_22_T_R1'
p2180
sS'E0_10_R0_01_R1_21_T_R0'
p2181
S'E0_10_R0_02_R1_21_T_R1'
p2182
sS'E0_10_R0_01_R1_21_T_R1'
p2183
S'E0_10_R0_01_R1_20_T_E0'
p2184
sS'E0_22_R0_22_R1_02_T_R1'
p2185
S'E0_22_R0_22_R1_02_T_E0'
p2186
sS'E0_12_R0_02_R1_11_T_R0'
p2187
S'E0_12_R0_02_R1_11_T_R1'
p2188
sS'E0_12_R0_02_R1_11_T_R1'
p2189
S'E0_12_R0_02_R1_22_T_E0'
p2190
sS'E0_01_R0_01_R1_21_T_R1'
p2191
S'E0_01_R0_01_R1_21_T_E0'
p2192
sS'E0_10_R0_22_R1_22_T_R0'
p2193
S'E0_10_R0_11_R1_22_T_R1'
p2194
sS'E0_10_R0_22_R1_22_T_R1'
p2195
S'E0_10_R0_22_R1_11_T_E0'
p2196
sS'E0_20_R0_11_R1_01_T_R0'
p2197
S'E0_20_R0_22_R1_01_T_R1'
p2198
sS'E0_20_R0_11_R1_01_T_R1'
p2199
S'E0_20_R0_11_R1_02_T_E0'
p2200
sS'E0_20_R0_02_R1_21_T_R0'
p2201
S'E0_20_R0_02_R1_21_T_R1'
p2202
sS'E0_20_R0_02_R1_21_T_R1'
p2203
S'E0_20_R0_02_R1_22_T_E0'
p2204
sS'E0_21_R0_01_R1_02_T_E0'
p2205
S'E0_21_R0_01_R1_02_T_R0'
p2206
sS'E0_11_R0_02_R1_02_T_E0'
p2207
S'E0_11_R0_02_R1_02_T_R0'
p2208
sS'E0_20_R0_21_R1_22_T_E0'
p2209
S'E0_20_R0_21_R1_22_T_R0'
p2210
sS'E0_02_R0_22_R1_12_T_E0'
p2211
S'E0_02_R0_22_R1_12_T_R0'
p2212
sS'E0_20_R0_10_R1_00_T_R0'
p2213
S'E0_20_R0_01_R1_00_T_R1'
p2214
sS'E0_20_R0_10_R1_00_T_R1'
p2215
S'E0_20_R0_10_R1_01_T_E0'
p2216
sS'E0_10_R0_21_R1_22_T_R1'
p2217
S'E0_10_R0_21_R1_12_T_E0'
p2218
sS'E0_10_R0_21_R1_22_T_R0'
p2219
S'E0_10_R0_20_R1_22_T_R1'
p2220
sS'E0_12_R0_21_R1_22_T_E0'
p2221
S'E0_12_R0_21_R1_22_T_R0'
p2222
sS'E0_00_R0_11_R1_02_T_E0'
p2223
S'E0_00_R0_11_R1_02_T_R0'
p2224
sS'E0_21_R0_20_R1_20_T_E0'
p2225
S'E0_21_R0_20_R1_20_T_R0'
p2226
sS'E0_22_R0_20_R1_22_T_E0'
p2227
S'E0_22_R0_20_R1_22_T_R0'
p2228
sS'E0_10_R0_01_R1_02_T_E0'
p2229
S'E0_10_R0_01_R1_02_T_R0'
p2230
sS'E0_00_R0_10_R1_12_T_E0'
p2231
S'E0_00_R0_10_R1_12_T_R0'
p2232
sS'E0_10_R0_11_R1_21_T_R0'
p2233
S'E0_10_R0_20_R1_21_T_R1'
p2234
sS'E0_22_R0_10_R1_00_T_E0'
p2235
S'E0_22_R0_10_R1_00_T_R0'
p2236
sS'E0_10_R0_00_R1_02_T_R0'
p2237
S'E0_10_R0_11_R1_02_T_R1'
p2238
sS'E0_10_R0_00_R1_02_T_R1'
p2239
S'E0_10_R0_00_R1_12_T_E0'
p2240
sS'E0_10_R0_11_R1_21_T_R1'
p2241
S'E0_10_R0_11_R1_22_T_E0'
p2242
sS'E0_01_R0_01_R1_22_T_R1'
p2243
S'E0_01_R0_01_R1_22_T_E0'
p2244
sS'E0_00_R0_11_R1_11_T_R1'
p2245
S'E0_00_R0_11_R1_02_T_E0'
p2246
sS'E0_00_R0_11_R1_11_T_R0'
p2247
S'E0_00_R0_20_R1_11_T_R1'
p2248
sS'E0_11_R0_11_R1_22_T_R1'
p2249
S'E0_11_R0_11_R1_22_T_E0'
p2250
sS'E0_10_R0_22_R1_01_T_E0'
p2251
S'E0_10_R0_22_R1_01_T_R0'
p2252
sS'E0_11_R0_02_R1_00_T_E0'
p2253
S'E0_11_R0_02_R1_00_T_R0'
p2254
sS'E0_01_R0_12_R1_20_T_R1'
p2255
S'E0_01_R0_12_R1_20_T_E0'
p2256
sS'E0_02_R0_21_R1_00_T_E0'
p2257
S'E0_02_R0_21_R1_00_T_R0'
p2258
sS'E0_22_R0_02_R1_11_T_E0'
p2259
S'E0_22_R0_02_R1_11_T_R0'
p2260
sS'E0_01_R0_11_R1_12_T_E0'
p2261
S'E0_01_R0_11_R1_12_T_R0'
p2262
sS'E0_12_R0_11_R1_02_T_E0'
p2263
S'E0_12_R0_11_R1_02_T_R0'
p2264
sS'E0_11_R0_21_R1_10_T_E0'
p2265
S'E0_11_R0_21_R1_10_T_R0'
p2266
sS'E0_11_R0_22_R1_20_T_R1'
p2267
S'E0_11_R0_22_R1_21_T_E0'
p2268
sS'E0_11_R0_22_R1_20_T_R0'
p2269
S'E0_11_R0_21_R1_20_T_R1'
p2270
sS'E0_11_R0_20_R1_01_T_R0'
p2271
S'E0_11_R0_20_R1_01_T_R1'
p2272
sS'E0_11_R0_20_R1_01_T_R1'
p2273
S'E0_11_R0_20_R1_00_T_E0'
p2274
sS'E0_20_R0_11_R1_00_T_E0'
p2275
S'E0_20_R0_11_R1_00_T_R0'
p2276
sS'E0_22_R0_22_R1_11_T_R1'
p2277
S'E0_22_R0_22_R1_11_T_E0'
p2278
sS'E0_02_R0_10_R1_11_T_E0'
p2279
S'E0_02_R0_10_R1_11_T_R0'
p2280
sS'E0_01_R0_02_R1_02_T_R0'
p2281
S'E0_01_R0_11_R1_02_T_R1'
p2282
sS'E0_01_R0_02_R1_02_T_R1'
p2283
S'E0_01_R0_02_R1_11_T_E0'
p2284
sS'E0_00_R0_22_R1_21_T_E0'
p2285
S'E0_00_R0_22_R1_21_T_R0'
p2286
sS'E0_20_R0_20_R1_02_T_R1'
p2287
S'E0_20_R0_20_R1_02_T_E0'
p2288
sS'E0_02_R0_20_R1_21_T_E0'
p2289
S'E0_02_R0_20_R1_21_T_R0'
p2290
sS'E0_01_R0_20_R1_22_T_E0'
p2291
S'E0_01_R0_20_R1_22_T_R0'
p2292
sS'E0_00_R0_11_R1_01_T_R1'
p2293
S'E0_00_R0_11_R1_02_T_E0'
p2294
sS'E0_00_R0_21_R1_21_T_E0'
p2295
S'E0_00_R0_21_R1_21_T_R0'
p2296
sS'E0_20_R0_11_R1_11_T_E0'
p2297
S'E0_20_R0_11_R1_11_T_R0'
p2298
sS'E0_11_R0_00_R1_10_T_E0'
p2299
S'E0_11_R0_00_R1_10_T_R0'
p2300
sS'E0_01_R0_21_R1_00_T_R1'
p2301
S'E0_01_R0_21_R1_00_T_E0'
p2302
sS'E0_01_R0_21_R1_00_T_R0'
p2303
S'E0_01_R0_20_R1_00_T_R1'
p2304
sS'E0_22_R0_12_R1_00_T_E0'
p2305
S'E0_22_R0_12_R1_00_T_R0'
p2306
sS'E0_12_R0_20_R1_10_T_E0'
p2307
S'E0_12_R0_20_R1_10_T_R0'
p2308
sS'E0_01_R0_02_R1_10_T_R1'
p2309
S'E0_01_R0_02_R1_00_T_E0'
p2310
sS'E0_01_R0_02_R1_10_T_R0'
p2311
S'E0_01_R0_02_R1_10_T_R1'
p2312
sS'E0_02_R0_20_R1_12_T_R0'
p2313
S'E0_02_R0_20_R1_12_T_R1'
p2314
sS'E0_02_R0_20_R1_12_T_R1'
p2315
S'E0_02_R0_20_R1_22_T_E0'
p2316
sS'E0_21_R0_01_R1_21_T_E0'
p2317
S'E0_21_R0_01_R1_21_T_R0'
p2318
sS'E0_02_R0_10_R1_02_T_E0'
p2319
S'E0_02_R0_10_R1_02_T_R0'
p2320
sS'E0_21_R0_11_R1_22_T_E0'
p2321
S'E0_21_R0_11_R1_22_T_R0'
p2322
sS'E0_21_R0_22_R1_22_T_R0'
p2323
S'E0_21_R0_11_R1_22_T_R1'
p2324
sS'E0_10_R0_00_R1_11_T_R0'
p2325
S'E0_10_R0_00_R1_11_T_R1'
p2326
sS'E0_10_R0_00_R1_11_T_R1'
p2327
S'E0_10_R0_00_R1_20_T_E0'
p2328
sS'E0_11_R0_12_R1_10_T_E0'
p2329
S'E0_11_R0_12_R1_10_T_R0'
p2330
sS'E0_22_R0_11_R1_01_T_E0'
p2331
S'E0_22_R0_11_R1_01_T_R0'
p2332
sS'E0_02_R0_00_R1_11_T_E0'
p2333
S'E0_02_R0_00_R1_11_T_R0'
p2334
sS'E0_11_R0_01_R1_10_T_R1'
p2335
S'E0_11_R0_01_R1_00_T_E0'
p2336
sS'E0_11_R0_01_R1_10_T_R0'
p2337
S'E0_11_R0_02_R1_10_T_R1'
p2338
sS'E0_12_R0_00_R1_11_T_R0'
p2339
S'E0_12_R0_00_R1_11_T_R1'
p2340
sS'E0_02_R0_11_R1_22_T_E0'
p2341
S'E0_02_R0_11_R1_22_T_R0'
p2342
sS'E0_12_R0_00_R1_11_T_R1'
p2343
S'E0_12_R0_00_R1_02_T_E0'
p2344
sS'E0_22_R0_21_R1_00_T_R0'
p2345
S'E0_22_R0_20_R1_00_T_R1'
p2346
sS'E0_22_R0_21_R1_00_T_R1'
p2347
S'E0_22_R0_21_R1_01_T_E0'
p2348
sS'E0_00_R0_01_R1_00_T_E0'
p2349
S'E0_00_R0_01_R1_00_T_R0'
p2350
sS'E0_20_R0_12_R1_10_T_E0'
p2351
S'E0_20_R0_12_R1_10_T_R0'
p2352
sS'E0_12_R0_20_R1_21_T_E0'
p2353
S'E0_12_R0_20_R1_21_T_R0'
p2354
sS'E0_22_R0_20_R1_21_T_R0'
p2355
S'E0_22_R0_10_R1_21_T_R1'
p2356
sS'E0_11_R0_22_R1_22_T_R0'
p2357
S'E0_11_R0_12_R1_22_T_R1'
p2358
sS'E0_00_R0_20_R1_12_T_E0'
p2359
S'E0_00_R0_20_R1_12_T_R0'
p2360
sS'E0_22_R0_01_R1_21_T_E0'
p2361
S'E0_22_R0_01_R1_21_T_R0'
p2362
sS'E0_01_R0_12_R1_22_T_E0'
p2363
S'E0_01_R0_12_R1_22_T_R0'
p2364
sS'E0_00_R0_10_R1_10_T_E0'
p2365
S'E0_00_R0_10_R1_10_T_R0'
p2366
sS'E0_00_R0_22_R1_11_T_R1'
p2367
S'E0_00_R0_22_R1_02_T_E0'
p2368
sS'E0_00_R0_22_R1_11_T_R0'
p2369
S'E0_00_R0_11_R1_11_T_R1'
p2370
sS'E0_01_R0_12_R1_20_T_R0'
p2371
S'E0_01_R0_22_R1_20_T_R1'
p2372
sS'E0_02_R0_11_R1_20_T_R1'
p2373
S'E0_02_R0_11_R1_20_T_E0'
p2374
sS'E0_02_R0_11_R1_20_T_R0'
p2375
S'E0_02_R0_22_R1_20_T_R1'
p2376
sS'E0_01_R0_10_R1_12_T_E0'
p2377
S'E0_01_R0_10_R1_12_T_R0'
p2378
sS'E0_01_R0_02_R1_00_T_E0'
p2379
S'E0_01_R0_02_R1_00_T_R0'
p2380
sS'E0_22_R0_21_R1_12_T_R1'
p2381
S'E0_22_R0_21_R1_01_T_E0'
p2382
sS'E0_22_R0_21_R1_12_T_R0'
p2383
S'E0_22_R0_11_R1_12_T_R1'
p2384
sS'E0_10_R0_12_R1_00_T_R1'
p2385
S'E0_10_R0_12_R1_11_T_E0'
p2386
sS'E0_10_R0_12_R1_00_T_R0'
p2387
S'E0_10_R0_02_R1_00_T_R1'
p2388
sS'E0_00_R0_02_R1_01_T_E0'
p2389
S'E0_00_R0_02_R1_01_T_R0'
p2390
sS'E0_21_R0_02_R1_20_T_R0'
p2391
S'E0_21_R0_12_R1_20_T_R1'
p2392
sS'E0_21_R0_02_R1_20_T_R1'
p2393
S'E0_21_R0_02_R1_11_T_E0'
p2394
sS'E0_11_R0_00_R1_21_T_E0'
p2395
S'E0_11_R0_00_R1_21_T_R0'
p2396
sS'E0_22_R0_11_R1_00_T_R1'
p2397
S'E0_22_R0_11_R1_00_T_E0'
p2398
sS'E0_22_R0_11_R1_00_T_R0'
p2399
S'E0_22_R0_20_R1_00_T_R1'
p2400
sS'E0_20_R0_21_R1_20_T_E0'
p2401
S'E0_20_R0_21_R1_20_T_R0'
p2402
sS'E0_12_R0_21_R1_21_T_E0'
p2403
S'E0_12_R0_21_R1_21_T_R0'
p2404
sS'E0_01_R0_20_R1_11_T_R0'
p2405
S'E0_01_R0_20_R1_11_T_R1'
p2406
sS'E0_01_R0_20_R1_11_T_R1'
p2407
S'E0_01_R0_20_R1_22_T_E0'
p2408
sS'E0_11_R0_22_R1_12_T_R0'
p2409
S'E0_11_R0_12_R1_12_T_R1'
p2410
sS'E0_11_R0_22_R1_12_T_R1'
p2411
S'E0_11_R0_22_R1_02_T_E0'
p2412
sS'E0_12_R0_12_R1_11_T_R1'
p2413
S'E0_12_R0_12_R1_11_T_E0'
p2414
sS'E0_00_R0_12_R1_21_T_E0'
p2415
S'E0_00_R0_12_R1_21_T_R0'
p2416
sS'E0_10_R0_20_R1_21_T_R1'
p2417
S'E0_10_R0_20_R1_22_T_E0'
p2418
sS'E0_10_R0_20_R1_21_T_R0'
p2419
S'E0_10_R0_20_R1_21_T_R1'
p2420
sS'E0_02_R0_10_R1_00_T_R0'
p2421
S'E0_02_R0_20_R1_00_T_R1'
p2422
sS'E0_01_R0_00_R1_21_T_E0'
p2423
S'E0_01_R0_00_R1_21_T_R0'
p2424
sS'E0_00_R0_12_R1_00_T_E0'
p2425
S'E0_00_R0_12_R1_00_T_R0'
p2426
sS'E0_12_R0_02_R1_00_T_E0'
p2427
S'E0_12_R0_02_R1_00_T_R0'
p2428
sS'E0_00_R0_10_R1_01_T_R1'
p2429
S'E0_00_R0_10_R1_11_T_E0'
p2430
sS'E0_00_R0_10_R1_01_T_R0'
p2431
S'E0_00_R0_21_R1_01_T_R1'
p2432
sS'E0_12_R0_20_R1_20_T_R0'
p2433
S'E0_12_R0_10_R1_20_T_R1'
p2434
sS'E0_12_R0_20_R1_20_T_R1'
p2435
S'E0_12_R0_20_R1_10_T_E0'
p2436
sS'E0_21_R0_01_R1_02_T_R1'
p2437
S'E0_21_R0_01_R1_02_T_E0'
p2438
sS'E0_21_R0_01_R1_02_T_R0'
p2439
S'E0_21_R0_00_R1_02_T_R1'
p2440
sS'E0_02_R0_11_R1_02_T_E0'
p2441
S'E0_02_R0_11_R1_02_T_R0'
p2442
sS'E0_22_R0_10_R1_12_T_R1'
p2443
S'E0_22_R0_10_R1_02_T_E0'
p2444
sS'E0_22_R0_10_R1_12_T_R0'
p2445
S'E0_22_R0_00_R1_12_T_R1'
p2446
sS'E0_22_R0_20_R1_20_T_E0'
p2447
S'E0_22_R0_20_R1_20_T_R0'
p2448
sS'E0_11_R0_02_R1_00_T_R1'
p2449
S'E0_11_R0_02_R1_10_T_E0'
p2450
sS'E0_11_R0_02_R1_00_T_R0'
p2451
S'E0_11_R0_01_R1_00_T_R1'
p2452
sS'E0_12_R0_20_R1_12_T_E0'
p2453
S'E0_12_R0_20_R1_12_T_R0'
p2454
sS'E0_01_R0_21_R1_10_T_E0'
p2455
S'E0_01_R0_21_R1_10_T_R0'
p2456
sS'E0_22_R0_02_R1_20_T_R1'
p2457
S'E0_22_R0_02_R1_11_T_E0'
p2458
sS'E0_22_R0_02_R1_20_T_R0'
p2459
S'E0_22_R0_01_R1_20_T_R1'
p2460
sS'E0_20_R0_01_R1_12_T_E0'
p2461
S'E0_20_R0_01_R1_12_T_R0'
p2462
sS'E0_01_R0_02_R1_20_T_E0'
p2463
S'E0_01_R0_02_R1_20_T_R0'
p2464
sS'E0_20_R0_01_R1_00_T_R0'
p2465
S'E0_20_R0_02_R1_00_T_R1'
p2466
sS'E0_20_R0_01_R1_00_T_R1'
p2467
S'E0_20_R0_01_R1_10_T_E0'
p2468
sS'E0_11_R0_10_R1_00_T_E0'
p2469
S'E0_11_R0_10_R1_00_T_R0'
p2470
sS'E0_00_R0_10_R1_20_T_E0'
p2471
S'E0_00_R0_10_R1_20_T_R0'
p2472
sS'E0_11_R0_21_R1_20_T_R0'
p2473
S'E0_11_R0_22_R1_20_T_R1'
p2474
sS'E0_11_R0_21_R1_20_T_R1'
p2475
S'E0_11_R0_21_R1_20_T_E0'
p2476
sS'E0_10_R0_02_R1_00_T_R0'
p2477
S'E0_10_R0_02_R1_00_T_R1'
p2478
sS'E0_10_R0_02_R1_00_T_R1'
p2479
S'E0_10_R0_02_R1_01_T_E0'
p2480
sS'E0_12_R0_21_R1_00_T_R0'
p2481
S'E0_12_R0_20_R1_00_T_R1'
p2482
sS'E0_11_R0_11_R1_00_T_R1'
p2483
S'E0_11_R0_11_R1_00_T_E0'
p2484
sS'E0_20_R0_12_R1_02_T_R0'
p2485
S'E0_20_R0_22_R1_02_T_R1'
p2486
sS'E0_22_R0_01_R1_02_T_E0'
p2487
S'E0_22_R0_01_R1_02_T_R0'
p2488
sS'E0_10_R0_01_R1_21_T_E0'
p2489
S'E0_10_R0_01_R1_21_T_R0'
p2490
sS'E0_11_R0_12_R1_22_T_E0'
p2491
S'E0_11_R0_12_R1_22_T_R0'
p2492
sS'E0_20_R0_02_R1_02_T_E0'
p2493
S'E0_20_R0_02_R1_02_T_R0'
p2494
sS'E0_01_R0_12_R1_21_T_R0'
p2495
S'E0_01_R0_02_R1_21_T_R1'
p2496
sS'E0_01_R0_12_R1_21_T_R1'
p2497
S'E0_01_R0_12_R1_22_T_E0'
p2498
sS'E0_00_R0_20_R1_22_T_R1'
p2499
S'E0_00_R0_20_R1_21_T_E0'
p2500
sS'E0_00_R0_20_R1_22_T_R0'
p2501
S'E0_00_R0_10_R1_22_T_R1'
p2502
sS'E0_21_R0_00_R1_10_T_E0'
p2503
S'E0_21_R0_00_R1_10_T_R0'
p2504
sS'E0_20_R0_11_R1_12_T_R0'
p2505
S'E0_20_R0_22_R1_12_T_R1'
p2506
sS'E0_00_R0_20_R1_10_T_E0'
p2507
S'E0_00_R0_20_R1_10_T_R0'
p2508
sS'E0_21_R0_00_R1_01_T_E0'
p2509
S'E0_21_R0_00_R1_01_T_R0'
p2510
sS'E0_21_R0_22_R1_20_T_R0'
p2511
S'E0_21_R0_12_R1_20_T_R1'
p2512
sS'E0_21_R0_22_R1_20_T_R1'
p2513
S'E0_21_R0_22_R1_20_T_E0'
p2514
sS'E0_21_R0_22_R1_12_T_R1'
p2515
S'E0_21_R0_22_R1_02_T_E0'
p2516
sS'E0_21_R0_22_R1_12_T_R0'
p2517
S'E0_21_R0_11_R1_12_T_R1'
p2518
sS'E0_20_R0_11_R1_00_T_R1'
p2519
S'E0_20_R0_11_R1_11_T_E0'
p2520
sS'E0_20_R0_11_R1_00_T_R0'
p2521
S'E0_20_R0_02_R1_00_T_R1'
p2522
sS'E0_22_R0_20_R1_10_T_R0'
p2523
S'E0_22_R0_20_R1_10_T_R1'
p2524
sS'E0_22_R0_20_R1_10_T_R1'
p2525
S'E0_22_R0_20_R1_00_T_E0'
p2526
sS'E0_22_R0_20_R1_11_T_E0'
p2527
S'E0_22_R0_20_R1_11_T_R0'
p2528
sS'E0_10_R0_11_R1_02_T_R0'
p2529
S'E0_10_R0_22_R1_02_T_R1'
p2530
sS'E0_10_R0_11_R1_02_T_R1'
p2531
S'E0_10_R0_11_R1_02_T_E0'
p2532
sS'E0_02_R0_22_R1_21_T_R0'
p2533
S'E0_02_R0_22_R1_21_T_R1'
p2534
sS'E0_02_R0_22_R1_21_T_R1'
p2535
S'E0_02_R0_22_R1_20_T_E0'
p2536
sS'E0_21_R0_00_R1_02_T_R0'
p2537
S'E0_21_R0_00_R1_02_T_R1'
p2538
sS'E0_21_R0_00_R1_02_T_R1'
p2539
S'E0_21_R0_00_R1_02_T_E0'
p2540
sS'E0_22_R0_11_R1_02_T_R1'
p2541
S'E0_22_R0_11_R1_02_T_E0'
p2542
sS'E0_00_R0_01_R1_20_T_R1'
p2543
S'E0_00_R0_01_R1_11_T_E0'
p2544
sS'E0_12_R0_22_R1_02_T_R0'
p2545
S'E0_12_R0_21_R1_02_T_R1'
p2546
sS'E0_12_R0_22_R1_02_T_R1'
p2547
S'E0_12_R0_22_R1_02_T_E0'
p2548
sS'E0_20_R0_11_R1_11_T_R1'
p2549
S'E0_20_R0_11_R1_02_T_E0'
p2550
sS'E0_20_R0_11_R1_11_T_R0'
p2551
S'E0_20_R0_02_R1_11_T_R1'
p2552
sS'E0_20_R0_11_R1_21_T_R0'
p2553
S'E0_20_R0_02_R1_21_T_R1'
p2554
sS'E0_20_R0_11_R1_21_T_R1'
p2555
S'E0_20_R0_11_R1_22_T_E0'
p2556
sS'E0_12_R0_22_R1_20_T_R0'
p2557
S'E0_12_R0_11_R1_20_T_R1'
p2558
sS'E0_12_R0_22_R1_20_T_R1'
p2559
S'E0_12_R0_22_R1_10_T_E0'
p2560
sS'E0_21_R0_02_R1_12_T_R1'
p2561
S'E0_21_R0_02_R1_22_T_E0'
p2562
sS'E0_22_R0_00_R1_10_T_R0'
p2563
S'E0_22_R0_01_R1_10_T_R1'
p2564
sS'E0_22_R0_00_R1_10_T_R1'
p2565
S'E0_22_R0_00_R1_20_T_E0'
p2566
sS'E0_21_R0_02_R1_12_T_R0'
p2567
S'E0_21_R0_02_R1_12_T_R1'
p2568
sS'E0_10_R0_22_R1_11_T_R1'
p2569
S'E0_10_R0_22_R1_02_T_E0'
p2570
sS'E0_10_R0_00_R1_10_T_E0'
p2571
S'E0_10_R0_00_R1_10_T_R0'
p2572
sS'E0_02_R0_21_R1_21_T_E0'
p2573
S'E0_02_R0_21_R1_21_T_R0'
p2574
sS'E0_02_R0_21_R1_11_T_R0'
p2575
S'E0_02_R0_20_R1_11_T_R1'
p2576
sS'E0_02_R0_21_R1_11_T_R1'
p2577
S'E0_02_R0_21_R1_22_T_E0'
p2578
sS'E0_22_R0_12_R1_12_T_E0'
p2579
S'E0_22_R0_12_R1_12_T_R0'
p2580
sS'E0_12_R0_00_R1_01_T_R1'
p2581
S'E0_12_R0_00_R1_02_T_E0'
p2582
sS'E0_12_R0_00_R1_01_T_R0'
p2583
S'E0_12_R0_01_R1_01_T_R1'
p2584
sS'E0_12_R0_12_R1_20_T_R1'
p2585
S'E0_12_R0_12_R1_20_T_E0'
p2586
sS'E0_01_R0_10_R1_20_T_R1'
p2587
S'E0_01_R0_10_R1_20_T_E0'
p2588
sS'E0_10_R0_02_R1_20_T_R0'
p2589
S'E0_10_R0_12_R1_20_T_R1'
p2590
sS'E0_10_R0_02_R1_20_T_R1'
p2591
S'E0_10_R0_02_R1_11_T_E0'
p2592
sS'E0_21_R0_12_R1_22_T_R1'
p2593
S'E0_21_R0_12_R1_11_T_E0'
p2594
sS'E0_21_R0_12_R1_22_T_R0'
p2595
S'E0_21_R0_02_R1_22_T_R1'
p2596
sS'E0_01_R0_10_R1_20_T_R0'
p2597
S'E0_01_R0_00_R1_20_T_R1'
p2598
sS'E0_21_R0_02_R1_01_T_R1'
p2599
S'E0_21_R0_02_R1_00_T_E0'
p2600
sS'E0_21_R0_02_R1_01_T_R0'
p2601
S'E0_21_R0_02_R1_01_T_R1'
p2602
sS'E0_10_R0_00_R1_11_T_E0'
p2603
S'E0_10_R0_00_R1_11_T_R0'
p2604
sS'E0_20_R0_02_R1_20_T_E0'
p2605
S'E0_20_R0_02_R1_20_T_R0'
p2606
sS'E0_12_R0_11_R1_20_T_R1'
p2607
S'E0_12_R0_11_R1_20_T_E0'
p2608
sS'E0_11_R0_01_R1_00_T_R0'
p2609
S'E0_11_R0_02_R1_00_T_R1'
p2610
sS'E0_11_R0_01_R1_00_T_R1'
p2611
S'E0_11_R0_01_R1_00_T_E0'
p2612
sS'E0_00_R0_12_R1_11_T_R0'
p2613
S'E0_00_R0_02_R1_11_T_R1'
p2614
sS'E0_00_R0_12_R1_11_T_R1'
p2615
S'E0_00_R0_12_R1_02_T_E0'
p2616
sS'E0_00_R0_20_R1_02_T_R1'
p2617
S'E0_00_R0_20_R1_11_T_E0'
p2618
sS'E0_00_R0_20_R1_02_T_R0'
p2619
S'E0_00_R0_21_R1_02_T_R1'
p2620
sS'E0_20_R0_11_R1_10_T_E0'
p2621
S'E0_20_R0_11_R1_10_T_R0'
p2622
sS'E0_22_R0_21_R1_20_T_R0'
p2623
S'E0_22_R0_10_R1_20_T_R1'
p2624
sS'E0_22_R0_21_R1_20_T_R1'
p2625
S'E0_22_R0_21_R1_10_T_E0'
p2626
sS'E0_21_R0_02_R1_00_T_R0'
p2627
S'E0_21_R0_02_R1_00_T_R1'
p2628
sS'E0_21_R0_02_R1_00_T_R1'
p2629
S'E0_21_R0_02_R1_00_T_E0'
p2630
sS'E0_21_R0_10_R1_11_T_E0'
p2631
S'E0_21_R0_10_R1_11_T_R0'
p2632
sS'E0_12_R0_20_R1_11_T_E0'
p2633
S'E0_12_R0_20_R1_11_T_R0'
p2634
sS'E0_12_R0_01_R1_20_T_R0'
p2635
S'E0_12_R0_00_R1_20_T_R1'
p2636
sS'E0_12_R0_00_R1_22_T_E0'
p2637
S'E0_12_R0_00_R1_22_T_R0'
p2638
sS'E0_10_R0_01_R1_11_T_R1'
p2639
S'E0_10_R0_01_R1_02_T_E0'
p2640
sS'E0_10_R0_22_R1_00_T_R0'
p2641
S'E0_10_R0_21_R1_00_T_R1'
p2642
sS'E0_10_R0_22_R1_00_T_R1'
p2643
S'E0_10_R0_22_R1_11_T_E0'
p2644
sS'E0_22_R0_22_R1_01_T_R1'
p2645
S'E0_22_R0_22_R1_01_T_E0'
p2646
sS'E0_20_R0_00_R1_01_T_E0'
p2647
S'E0_20_R0_00_R1_01_T_R0'
p2648
sS'E0_20_R0_01_R1_00_T_E0'
p2649
S'E0_20_R0_01_R1_00_T_R0'
p2650
sS'E0_21_R0_22_R1_11_T_E0'
p2651
S'E0_21_R0_22_R1_11_T_R0'
p2652
sS'E0_20_R0_00_R1_21_T_R0'
p2653
S'E0_20_R0_11_R1_21_T_R1'
p2654
sS'E0_20_R0_00_R1_21_T_R1'
p2655
S'E0_20_R0_00_R1_11_T_E0'
p2656
sS'E0_00_R0_21_R1_22_T_R0'
p2657
S'E0_00_R0_20_R1_22_T_R1'
p2658
sS'E0_00_R0_21_R1_22_T_R1'
p2659
S'E0_00_R0_21_R1_21_T_E0'
p2660
sS'E0_11_R0_20_R1_02_T_E0'
p2661
S'E0_11_R0_20_R1_02_T_R0'
p2662
sS'E0_20_R0_20_R1_10_T_R1'
p2663
S'E0_20_R0_20_R1_10_T_E0'
p2664
sS'E0_21_R0_00_R1_20_T_R0'
p2665
S'E0_21_R0_10_R1_20_T_R1'
p2666
sS'E0_21_R0_00_R1_20_T_R1'
p2667
S'E0_21_R0_00_R1_20_T_E0'
p2668
sS'E0_20_R0_21_R1_10_T_R1'
p2669
S'E0_20_R0_21_R1_01_T_E0'
p2670
sS'E0_20_R0_21_R1_10_T_R0'
p2671
S'E0_20_R0_11_R1_10_T_R1'
p2672
sS'E0_00_R0_20_R1_01_T_E0'
p2673
S'E0_00_R0_20_R1_01_T_R0'
p2674
sS'E0_01_R0_00_R1_02_T_E0'
p2675
S'E0_01_R0_00_R1_02_T_R0'
p2676
sS'E0_20_R0_01_R1_22_T_R0'
p2677
S'E0_20_R0_02_R1_22_T_R1'
p2678
sS'E0_20_R0_01_R1_22_T_R1'
p2679
S'E0_20_R0_01_R1_11_T_E0'
p2680
sS'E0_22_R0_01_R1_21_T_R1'
p2681
S'E0_22_R0_01_R1_20_T_E0'
p2682
sS'E0_22_R0_01_R1_21_T_R0'
p2683
S'E0_22_R0_00_R1_21_T_R1'
p2684
sS'E0_01_R0_21_R1_11_T_E0'
p2685
S'E0_01_R0_21_R1_11_T_R0'
p2686
sS'E0_01_R0_00_R1_12_T_R0'
p2687
S'E0_01_R0_10_R1_12_T_R1'
p2688
sS'E0_01_R0_22_R1_02_T_R0'
p2689
S'E0_01_R0_11_R1_02_T_R1'
p2690
sS'E0_22_R0_01_R1_20_T_R1'
p2691
S'E0_22_R0_01_R1_20_T_E0'
p2692
sS'E0_22_R0_20_R1_20_T_R1'
p2693
S'E0_22_R0_20_R1_11_T_E0'
p2694
sS'E0_22_R0_20_R1_20_T_R0'
p2695
S'E0_22_R0_11_R1_20_T_R1'
p2696
sS'E0_00_R0_02_R1_02_T_E0'
p2697
S'E0_00_R0_02_R1_02_T_R0'
p2698
sS'E0_22_R0_22_R1_00_T_R1'
p2699
S'E0_22_R0_22_R1_00_T_E0'
p2700
sS'E0_10_R0_21_R1_11_T_E0'
p2701
S'E0_10_R0_21_R1_11_T_R0'
p2702
sS'E0_12_R0_11_R1_22_T_R0'
p2703
S'E0_12_R0_02_R1_22_T_R1'
p2704
sS'E0_12_R0_11_R1_22_T_R1'
p2705
S'E0_12_R0_11_R1_21_T_E0'
p2706
sS'E0_10_R0_01_R1_22_T_R1'
p2707
S'E0_10_R0_01_R1_21_T_E0'
p2708
sS'E0_10_R0_01_R1_22_T_R0'
p2709
S'E0_10_R0_02_R1_22_T_R1'
p2710
sS'E0_21_R0_02_R1_02_T_E0'
p2711
S'E0_21_R0_02_R1_02_T_R0'
p2712
sS'E0_21_R0_02_R1_10_T_E0'
p2713
S'E0_21_R0_02_R1_10_T_R0'
p2714
sS'E0_02_R0_02_R1_11_T_R1'
p2715
S'E0_02_R0_02_R1_11_T_E0'
p2716
sS'E0_21_R0_20_R1_02_T_E0'
p2717
S'E0_21_R0_20_R1_02_T_R0'
p2718
sS'E0_02_R0_11_R1_21_T_R0'
p2719
S'E0_02_R0_22_R1_21_T_R1'
p2720
sS'E0_02_R0_11_R1_21_T_R1'
p2721
S'E0_02_R0_11_R1_22_T_E0'
p2722
sS'E0_22_R0_20_R1_01_T_R0'
p2723
S'E0_22_R0_20_R1_01_T_R1'
p2724
sS'E0_22_R0_20_R1_01_T_R1'
p2725
S'E0_22_R0_20_R1_00_T_E0'
p2726
sS'E0_12_R0_22_R1_22_T_E0'
p2727
S'E0_12_R0_22_R1_22_T_R0'
p2728
sS'E0_11_R0_00_R1_12_T_R0'
p2729
S'E0_11_R0_01_R1_12_T_R1'
p2730
sS'E0_11_R0_00_R1_12_T_R1'
p2731
S'E0_11_R0_00_R1_02_T_E0'
p2732
sS'E0_11_R0_01_R1_20_T_R0'
p2733
S'E0_11_R0_00_R1_20_T_R1'
p2734
sS'E0_11_R0_01_R1_20_T_R1'
p2735
S'E0_11_R0_01_R1_20_T_E0'
p2736
sS'E0_20_R0_21_R1_11_T_R0'
p2737
S'E0_20_R0_22_R1_11_T_R1'
p2738
sS'E0_20_R0_21_R1_11_T_R1'
p2739
S'E0_20_R0_21_R1_02_T_E0'
p2740
sS'E0_21_R0_00_R1_11_T_R0'
p2741
S'E0_21_R0_01_R1_11_T_R1'
p2742
sS'E0_21_R0_00_R1_11_T_R1'
p2743
S'E0_21_R0_00_R1_02_T_E0'
p2744
sS'E0_00_R0_12_R1_02_T_E0'
p2745
S'E0_00_R0_12_R1_02_T_R0'
p2746
sS'E0_10_R0_02_R1_21_T_E0'
p2747
S'E0_10_R0_02_R1_21_T_R0'
p2748
sS'E0_00_R0_20_R1_11_T_E0'
p2749
S'E0_00_R0_20_R1_11_T_R0'
p2750
sS'E0_02_R0_01_R1_00_T_R0'
p2751
S'E0_02_R0_11_R1_00_T_R1'
p2752
sS'E0_02_R0_01_R1_00_T_R1'
p2753
S'E0_02_R0_01_R1_11_T_E0'
p2754
sS'E0_21_R0_00_R1_10_T_R1'
p2755
S'E0_21_R0_00_R1_20_T_E0'
p2756
sS'E0_21_R0_00_R1_10_T_R0'
p2757
S'E0_21_R0_11_R1_10_T_R1'
p2758
sS'E0_11_R0_20_R1_12_T_R0'
p2759
S'E0_11_R0_20_R1_12_T_R1'
p2760
sS'E0_11_R0_20_R1_12_T_R1'
p2761
S'E0_11_R0_20_R1_22_T_E0'
p2762
sS'E0_22_R0_11_R1_21_T_E0'
p2763
S'E0_22_R0_11_R1_21_T_R0'
p2764
sS'E0_11_R0_01_R1_12_T_R1'
p2765
S'E0_11_R0_01_R1_22_T_E0'
p2766
sS'E0_11_R0_01_R1_12_T_R0'
p2767
S'E0_11_R0_00_R1_12_T_R1'
p2768
sS'E0_02_R0_21_R1_11_T_E0'
p2769
S'E0_02_R0_21_R1_11_T_R0'
p2770
sS'E0_11_R0_20_R1_22_T_R1'
p2771
S'E0_11_R0_20_R1_22_T_E0'
p2772
sS'E0_11_R0_20_R1_22_T_R0'
p2773
S'E0_11_R0_20_R1_22_T_R1'
p2774
sS'E0_21_R0_01_R1_00_T_E0'
p2775
S'E0_21_R0_01_R1_00_T_R0'
p2776
sS'E0_01_R0_01_R1_11_T_R1'
p2777
S'E0_01_R0_01_R1_11_T_E0'
p2778
sS'E0_11_R0_20_R1_00_T_R1'
p2779
S'E0_11_R0_20_R1_01_T_E0'
p2780
sS'E0_11_R0_20_R1_00_T_R0'
p2781
S'E0_11_R0_20_R1_00_T_R1'
p2782
sS'E0_11_R0_00_R1_11_T_E0'
p2783
S'E0_11_R0_00_R1_11_T_R0'
p2784
sS'E0_21_R0_10_R1_01_T_R0'
p2785
S'E0_21_R0_00_R1_01_T_R1'
p2786
sS'E0_21_R0_10_R1_01_T_R1'
p2787
S'E0_21_R0_10_R1_00_T_E0'
p2788
sS'E0_02_R0_20_R1_11_T_E0'
p2789
S'E0_02_R0_20_R1_11_T_R0'
p2790
sS'E0_21_R0_22_R1_20_T_E0'
p2791
S'E0_21_R0_22_R1_20_T_R0'
p2792
sS'E0_02_R0_10_R1_01_T_R1'
p2793
S'E0_02_R0_10_R1_00_T_E0'
p2794
sS'E0_02_R0_10_R1_01_T_R0'
p2795
S'E0_02_R0_20_R1_01_T_R1'
p2796
sS'E0_12_R0_11_R1_21_T_E0'
p2797
S'E0_12_R0_11_R1_21_T_R0'
p2798
sS'E0_12_R0_12_R1_22_T_R1'
p2799
S'E0_12_R0_12_R1_22_T_E0'
p2800
sS'E0_20_R0_10_R1_20_T_E0'
p2801
S'E0_20_R0_10_R1_20_T_R0'
p2802
sS'E0_10_R0_21_R1_12_T_R0'
p2803
S'E0_10_R0_20_R1_12_T_R1'
p2804
sS'E0_10_R0_21_R1_12_T_R1'
p2805
S'E0_10_R0_21_R1_02_T_E0'
p2806
sS'E0_12_R0_22_R1_20_T_E0'
p2807
S'E0_12_R0_22_R1_20_T_R0'
p2808
sS'E0_02_R0_22_R1_21_T_E0'
p2809
S'E0_02_R0_22_R1_21_T_R0'
p2810
sS'E0_10_R0_10_R1_22_T_R1'
p2811
S'E0_10_R0_10_R1_22_T_E0'
p2812
sS'E0_20_R0_22_R1_12_T_R0'
p2813
S'E0_20_R0_22_R1_12_T_R1'
p2814
sS'E0_11_R0_01_R1_22_T_R0'
p2815
S'E0_11_R0_02_R1_22_T_R1'
p2816
sS'E0_11_R0_01_R1_22_T_R1'
p2817
S'E0_11_R0_01_R1_12_T_E0'
p2818
sS'E0_00_R0_02_R1_21_T_E0'
p2819
S'E0_00_R0_02_R1_21_T_R0'
p2820
sS'E0_21_R0_10_R1_21_T_E0'
p2821
S'E0_21_R0_10_R1_21_T_R0'
p2822
sS'E0_01_R0_00_R1_00_T_E0'
p2823
S'E0_01_R0_00_R1_00_T_R0'
p2824
sS'E0_00_R0_21_R1_10_T_E0'
p2825
S'E0_00_R0_21_R1_10_T_R0'
p2826
sS'E0_20_R0_12_R1_02_T_E0'
p2827
S'E0_20_R0_12_R1_02_T_R0'
p2828
sS'E0_10_R0_12_R1_12_T_R0'
p2829
S'E0_10_R0_02_R1_12_T_R1'
p2830
sS'E0_10_R0_12_R1_12_T_R1'
p2831
S'E0_10_R0_12_R1_02_T_E0'
p2832
sS'E0_02_R0_12_R1_12_T_E0'
p2833
S'E0_02_R0_12_R1_12_T_R0'
p2834
sS'E0_22_R0_12_R1_20_T_R0'
p2835
S'E0_22_R0_01_R1_20_T_R1'
p2836
sS'E0_22_R0_12_R1_20_T_R1'
p2837
S'E0_22_R0_12_R1_11_T_E0'
p2838
sS'E0_12_R0_02_R1_22_T_R0'
p2839
S'E0_12_R0_02_R1_22_T_R1'
p2840
sS'E0_12_R0_02_R1_22_T_R1'
p2841
S'E0_12_R0_02_R1_11_T_E0'
p2842
sS'E0_12_R0_01_R1_22_T_E0'
p2843
S'E0_12_R0_01_R1_22_T_R0'
p2844
sS'E0_02_R0_12_R1_20_T_R0'
p2845
S'E0_02_R0_22_R1_20_T_R1'
p2846
sS'E0_11_R0_12_R1_00_T_R0'
p2847
S'E0_11_R0_02_R1_00_T_R1'
p2848
sS'E0_11_R0_12_R1_00_T_R1'
p2849
S'E0_11_R0_12_R1_00_T_E0'
p2850
sS'E0_02_R0_12_R1_20_T_R1'
p2851
S'E0_02_R0_12_R1_20_T_E0'
p2852
sS'E0_22_R0_20_R1_10_T_E0'
p2853
S'E0_22_R0_20_R1_10_T_R0'
p2854
sS'E0_01_R0_20_R1_10_T_E0'
p2855
S'E0_01_R0_20_R1_10_T_R0'
p2856
sS'E0_02_R0_22_R1_01_T_E0'
p2857
S'E0_02_R0_22_R1_01_T_R0'
p2858
sS'E0_11_R0_21_R1_02_T_R0'
p2859
S'E0_11_R0_22_R1_02_T_R1'
p2860
sS'E0_11_R0_21_R1_02_T_R1'
p2861
S'E0_11_R0_21_R1_02_T_E0'
p2862
sS'E0_10_R0_21_R1_01_T_E0'
p2863
S'E0_10_R0_21_R1_01_T_R0'
p2864
sS'E0_20_R0_21_R1_01_T_E0'
p2865
S'E0_20_R0_21_R1_01_T_R0'
p2866
sS'E0_21_R0_01_R1_22_T_E0'
p2867
S'E0_21_R0_01_R1_22_T_R0'
p2868
sS'E0_01_R0_21_R1_11_T_R1'
p2869
S'E0_01_R0_21_R1_20_T_E0'
p2870
sS'E0_01_R0_21_R1_11_T_R0'
p2871
S'E0_01_R0_22_R1_11_T_R1'
p2872
sS'E0_20_R0_00_R1_00_T_E0'
p2873
S'E0_20_R0_00_R1_00_T_R0'
p2874
sS'E0_20_R0_12_R1_02_T_R1'
p2875
S'E0_20_R0_12_R1_02_T_E0'
p2876
sS'E0_02_R0_20_R1_10_T_R0'
p2877
S'E0_02_R0_20_R1_10_T_R1'
p2878
sS'E0_02_R0_20_R1_10_T_R1'
p2879
S'E0_02_R0_20_R1_00_T_E0'
p2880
sS'E0_00_R0_22_R1_00_T_E0'
p2881
S'E0_00_R0_22_R1_00_T_R0'
p2882
sS'E0_00_R0_21_R1_20_T_R0'
p2883
S'E0_00_R0_22_R1_20_T_R1'
p2884
sS'E0_00_R0_21_R1_20_T_R1'
p2885
S'E0_00_R0_21_R1_20_T_E0'
p2886
sS'E0_00_R0_01_R1_20_T_R0'
p2887
S'E0_00_R0_11_R1_20_T_R1'
p2888
sS'E0_22_R0_11_R1_02_T_R0'
p2889
S'E0_22_R0_00_R1_02_T_R1'
p2890
sS'E0_02_R0_00_R1_01_T_R0'
p2891
S'E0_02_R0_11_R1_01_T_R1'
p2892
sS'E0_02_R0_00_R1_01_T_R1'
p2893
S'E0_02_R0_00_R1_11_T_E0'
p2894
sS'E0_10_R0_01_R1_00_T_R1'
p2895
S'E0_10_R0_01_R1_00_T_E0'
p2896
sS'E0_10_R0_01_R1_00_T_R0'
p2897
S'E0_10_R0_02_R1_00_T_R1'
p2898
sS'E0_12_R0_02_R1_02_T_R1'
p2899
S'E0_12_R0_02_R1_01_T_E0'
p2900
sS'E0_10_R0_01_R1_20_T_R1'
p2901
S'E0_10_R0_01_R1_20_T_E0'
p2902
sS'E0_10_R0_01_R1_20_T_R0'
p2903
S'E0_10_R0_00_R1_20_T_R1'
p2904
sS'E0_20_R0_00_R1_20_T_E0'
p2905
S'E0_20_R0_00_R1_20_T_R0'
p2906
sS'E0_10_R0_10_R1_00_T_R1'
p2907
S'E0_10_R0_10_R1_00_T_E0'
p2908
sS'E0_00_R0_01_R1_12_T_E0'
p2909
S'E0_00_R0_01_R1_12_T_R0'
p2910
sS'E0_10_R0_21_R1_21_T_E0'
p2911
S'E0_10_R0_21_R1_21_T_R0'
p2912
sS'E0_11_R0_02_R1_20_T_R1'
p2913
S'E0_11_R0_02_R1_10_T_E0'
p2914
sS'E0_11_R0_02_R1_20_T_R0'
p2915
S'E0_11_R0_01_R1_20_T_R1'
p2916
sS'E0_02_R0_22_R1_02_T_E0'
p2917
S'E0_02_R0_22_R1_02_T_R0'
p2918
sS'E0_01_R0_02_R1_22_T_E0'
p2919
S'E0_01_R0_02_R1_22_T_R0'
p2920
sS'E0_00_R0_11_R1_21_T_E0'
p2921
S'E0_00_R0_11_R1_21_T_R0'
p2922
sS'E0_20_R0_00_R1_21_T_E0'
p2923
S'E0_20_R0_00_R1_21_T_R0'
p2924
sS'E0_11_R0_12_R1_01_T_E0'
p2925
S'E0_11_R0_12_R1_01_T_R0'
p2926
sS'E0_10_R0_22_R1_11_T_E0'
p2927
S'E0_10_R0_22_R1_11_T_R0'
p2928
sS'E0_21_R0_12_R1_10_T_E0'
p2929
S'E0_21_R0_12_R1_10_T_R0'
p2930
sS'E0_20_R0_00_R1_02_T_E0'
p2931
S'E0_20_R0_00_R1_02_T_R0'
p2932
sS'E0_20_R0_22_R1_12_T_R1'
p2933
S'E0_20_R0_22_R1_02_T_E0'
p2934
sS'E0_20_R0_22_R1_10_T_E0'
p2935
S'E0_20_R0_22_R1_10_T_R0'
p2936
sS'E0_02_R0_12_R1_10_T_R1'
p2937
S'E0_02_R0_12_R1_20_T_E0'
p2938
sS'E0_02_R0_12_R1_10_T_R0'
p2939
S'E0_02_R0_22_R1_10_T_R1'
p2940
sS'E0_12_R0_10_R1_20_T_R1'
p2941
S'E0_12_R0_10_R1_20_T_E0'
p2942
sS'E0_10_R0_12_R1_22_T_R1'
p2943
S'E0_10_R0_12_R1_11_T_E0'
p2944
sS'E0_10_R0_12_R1_22_T_R0'
p2945
S'E0_10_R0_02_R1_22_T_R1'
p2946
sS'E0_00_R0_02_R1_02_T_R1'
p2947
S'E0_00_R0_02_R1_11_T_E0'
p2948
sS'E0_00_R0_02_R1_02_T_R0'
p2949
S'E0_00_R0_12_R1_02_T_R1'
p2950
sS'E0_12_R0_02_R1_02_T_R0'
p2951
S'E0_12_R0_11_R1_02_T_R1'
p2952
sS'E0_11_R0_22_R1_22_T_R1'
p2953
S'E0_11_R0_22_R1_12_T_E0'
p2954
sS'E0_22_R0_10_R1_10_T_E0'
p2955
S'E0_22_R0_10_R1_10_T_R0'
p2956
sS'E0_22_R0_20_R1_21_T_R1'
p2957
S'E0_22_R0_20_R1_11_T_E0'
p2958
sS'E0_02_R0_02_R1_01_T_R1'
p2959
S'E0_02_R0_02_R1_01_T_E0'
p2960
sS'E0_10_R0_01_R1_01_T_R0'
p2961
S'E0_10_R0_02_R1_01_T_R1'
p2962
sS'E0_10_R0_01_R1_01_T_R1'
p2963
S'E0_10_R0_01_R1_02_T_E0'
p2964
sS'E0_22_R0_10_R1_01_T_E0'
p2965
S'E0_22_R0_10_R1_01_T_R0'
p2966
sS'E0_22_R0_22_R1_12_T_R1'
p2967
S'E0_22_R0_22_R1_12_T_E0'
p2968
sS'E0_20_R0_02_R1_22_T_R1'
p2969
S'E0_20_R0_02_R1_12_T_E0'
p2970
sS'E0_20_R0_02_R1_22_T_R0'
p2971
S'E0_20_R0_12_R1_22_T_R1'
p2972
sS'E0_12_R0_22_R1_10_T_E0'
p2973
S'E0_12_R0_22_R1_10_T_R0'
p2974
sS'E0_10_R0_21_R1_22_T_E0'
p2975
S'E0_10_R0_21_R1_22_T_R0'
p2976
sS'E0_01_R0_00_R1_02_T_R0'
p2977
S'E0_01_R0_11_R1_02_T_R1'
p2978
sS'E0_21_R0_02_R1_10_T_R1'
p2979
S'E0_21_R0_02_R1_00_T_E0'
p2980
sS'E0_21_R0_02_R1_10_T_R0'
p2981
S'E0_21_R0_02_R1_10_T_R1'
p2982
sS'E0_00_R0_21_R1_01_T_R1'
p2983
S'E0_00_R0_21_R1_02_T_E0'
p2984
sS'E0_00_R0_21_R1_01_T_R0'
p2985
S'E0_00_R0_22_R1_01_T_R1'
p2986
sS'E0_12_R0_21_R1_02_T_R1'
p2987
S'E0_12_R0_21_R1_02_T_E0'
p2988
sS'E0_12_R0_02_R1_10_T_R0'
p2989
S'E0_12_R0_02_R1_10_T_R1'
p2990
sS'E0_21_R0_11_R1_12_T_R1'
p2991
S'E0_21_R0_11_R1_22_T_E0'
p2992
sS'E0_01_R0_11_R1_22_T_R1'
p2993
S'E0_01_R0_11_R1_22_T_E0'
p2994
sS'E0_22_R0_10_R1_01_T_R1'
p2995
S'E0_22_R0_10_R1_02_T_E0'
p2996
sS'E0_10_R0_11_R1_00_T_E0'
p2997
S'E0_10_R0_11_R1_00_T_R0'
p2998
sS'E0_10_R0_12_R1_12_T_E0'
p2999
S'E0_10_R0_12_R1_12_T_R0'
p3000
sS'E0_02_R0_10_R1_10_T_R1'
p3001
S'E0_02_R0_10_R1_00_T_E0'
p3002
sS'E0_02_R0_10_R1_10_T_R0'
p3003
S'E0_02_R0_00_R1_10_T_R1'
p3004
sS'E0_10_R0_21_R1_11_T_R1'
p3005
S'E0_10_R0_21_R1_02_T_E0'
p3006
sS'E0_10_R0_21_R1_11_T_R0'
p3007
S'E0_10_R0_20_R1_11_T_R1'
p3008
sS'E0_11_R0_10_R1_20_T_E0'
p3009
S'E0_11_R0_10_R1_20_T_R0'
p3010
sS'E0_01_R0_22_R1_21_T_R1'
p3011
S'E0_01_R0_22_R1_20_T_E0'
p3012
sS'E0_20_R0_20_R1_01_T_R1'
p3013
S'E0_20_R0_20_R1_01_T_E0'
p3014
sS'E0_12_R0_20_R1_00_T_E0'
p3015
S'E0_12_R0_20_R1_00_T_R0'
p3016
sS'E0_00_R0_11_R1_22_T_E0'
p3017
S'E0_00_R0_11_R1_22_T_R0'
p3018
sS'E0_11_R0_12_R1_02_T_R0'
p3019
S'E0_11_R0_22_R1_02_T_R1'
p3020
sS'E0_11_R0_12_R1_02_T_R1'
p3021
S'E0_11_R0_12_R1_02_T_E0'
p3022
sS'E0_12_R0_11_R1_00_T_R0'
p3023
S'E0_12_R0_02_R1_00_T_R1'
p3024
sS'E0_12_R0_11_R1_00_T_R1'
p3025
S'E0_12_R0_11_R1_01_T_E0'
p3026
sS'E0_22_R0_12_R1_01_T_R1'
p3027
S'E0_22_R0_12_R1_00_T_E0'
p3028
sS'E0_22_R0_12_R1_01_T_R0'
p3029
S'E0_22_R0_02_R1_01_T_R1'
p3030
sS'E0_00_R0_22_R1_02_T_E0'
p3031
S'E0_00_R0_22_R1_02_T_R0'
p3032
sS'E0_01_R0_20_R1_10_T_R1'
p3033
S'E0_01_R0_20_R1_00_T_E0'
p3034
sS'E0_01_R0_20_R1_10_T_R0'
p3035
S'E0_01_R0_20_R1_10_T_R1'
p3036
sS'E0_02_R0_00_R1_21_T_E0'
p3037
S'E0_02_R0_00_R1_21_T_R0'
p3038
sS'E0_01_R0_11_R1_01_T_E0'
p3039
S'E0_01_R0_11_R1_01_T_R0'
p3040
sS'E0_11_R0_01_R1_20_T_E0'
p3041
S'E0_11_R0_01_R1_20_T_R0'
p3042
sS'E0_10_R0_02_R1_02_T_R0'
p3043
S'E0_10_R0_11_R1_02_T_R1'
p3044
sS'E0_10_R0_02_R1_02_T_R1'
p3045
S'E0_10_R0_02_R1_12_T_E0'
p3046
sS'E0_02_R0_00_R1_22_T_E0'
p3047
S'E0_02_R0_00_R1_22_T_R0'
p3048
sS'E0_22_R0_12_R1_21_T_E0'
p3049
S'E0_22_R0_12_R1_21_T_R0'
p3050
sS'E0_01_R0_21_R1_00_T_E0'
p3051
S'E0_01_R0_21_R1_00_T_R0'
p3052
sS'E0_12_R0_10_R1_21_T_E0'
p3053
S'E0_12_R0_10_R1_21_T_R0'
p3054
sS'E0_01_R0_02_R1_00_T_R0'
p3055
S'E0_01_R0_11_R1_00_T_R1'
p3056
sS'E0_01_R0_02_R1_00_T_R1'
p3057
S'E0_01_R0_02_R1_00_T_E0'
p3058
sS'E0_02_R0_22_R1_22_T_R1'
p3059
S'E0_02_R0_22_R1_11_T_E0'
p3060
sS'E0_02_R0_22_R1_22_T_R0'
p3061
S'E0_02_R0_11_R1_22_T_R1'
p3062
sS'E0_01_R0_10_R1_21_T_E0'
p3063
S'E0_01_R0_10_R1_21_T_R0'
p3064
sS'E0_22_R0_00_R1_11_T_E0'
p3065
S'E0_22_R0_00_R1_11_T_R0'
p3066
sS'E0_02_R0_20_R1_10_T_E0'
p3067
S'E0_02_R0_20_R1_10_T_R0'
p3068
sS'E0_22_R0_00_R1_21_T_R0'
p3069
S'E0_22_R0_00_R1_21_T_R1'
p3070
sS'E0_22_R0_00_R1_21_T_R1'
p3071
S'E0_22_R0_00_R1_20_T_E0'
p3072
sS'E0_11_R0_01_R1_10_T_E0'
p3073
S'E0_11_R0_01_R1_10_T_R0'
p3074
sS'E0_11_R0_12_R1_11_T_E0'
p3075
S'E0_11_R0_12_R1_11_T_R0'
p3076
sS'E0_10_R0_01_R1_11_T_E0'
p3077
S'E0_10_R0_01_R1_11_T_R0'
p3078
sS'E0_00_R0_01_R1_01_T_R0'
p3079
S'E0_00_R0_12_R1_01_T_R1'
p3080
sS'E0_02_R0_12_R1_12_T_R1'
p3081
S'E0_02_R0_12_R1_21_T_E0'
p3082
sS'E0_02_R0_12_R1_12_T_R0'
p3083
S'E0_02_R0_11_R1_12_T_R1'
p3084
sS'E0_02_R0_20_R1_01_T_E0'
p3085
S'E0_02_R0_20_R1_01_T_R0'
p3086
sS'E0_00_R0_20_R1_12_T_R0'
p3087
S'E0_00_R0_20_R1_12_T_R1'
p3088
sS'E0_00_R0_20_R1_12_T_R1'
p3089
S'E0_00_R0_20_R1_22_T_E0'
p3090
sS'E0_11_R0_22_R1_21_T_E0'
p3091
S'E0_11_R0_22_R1_21_T_R0'
p3092
sS'E0_20_R0_21_R1_01_T_R1'
p3093
S'E0_20_R0_21_R1_02_T_E0'
p3094
sS'E0_20_R0_21_R1_01_T_R0'
p3095
S'E0_20_R0_22_R1_01_T_R1'
p3096
sS'E0_01_R0_21_R1_21_T_R0'
p3097
S'E0_01_R0_22_R1_21_T_R1'
p3098
sS'E0_01_R0_21_R1_21_T_R1'
p3099
S'E0_01_R0_21_R1_20_T_E0'
p3100
sS'E0_22_R0_10_R1_20_T_R0'
p3101
S'E0_22_R0_00_R1_20_T_R1'
p3102
sS'E0_22_R0_10_R1_20_T_R1'
p3103
S'E0_22_R0_10_R1_20_T_E0'
p3104
sS'E0_20_R0_01_R1_21_T_E0'
p3105
S'E0_20_R0_01_R1_21_T_R0'
p3106
sS'E0_10_R0_21_R1_02_T_R1'
p3107
S'E0_10_R0_21_R1_02_T_E0'
p3108
sS'E0_00_R0_20_R1_21_T_E0'
p3109
S'E0_00_R0_20_R1_21_T_R0'
p3110
sS'E0_20_R0_00_R1_02_T_R1'
p3111
S'E0_20_R0_00_R1_01_T_E0'
p3112
sS'E0_20_R0_00_R1_02_T_R0'
p3113
S'E0_20_R0_10_R1_02_T_R1'
p3114
sS'E0_02_R0_11_R1_00_T_R1'
p3115
S'E0_02_R0_11_R1_11_T_E0'
p3116
sS'E0_02_R0_11_R1_00_T_R0'
p3117
S'E0_02_R0_20_R1_00_T_R1'
p3118
sS'E0_00_R0_00_R1_20_T_R1'
p3119
S'E0_00_R0_00_R1_20_T_E0'
p3120
sS'E0_01_R0_20_R1_12_T_E0'
p3121
S'E0_01_R0_20_R1_12_T_R0'
p3122
sS'E0_02_R0_01_R1_12_T_E0'
p3123
S'E0_02_R0_01_R1_12_T_R0'
p3124
sS'E0_21_R0_20_R1_21_T_E0'
p3125
S'E0_21_R0_20_R1_21_T_R0'
p3126
sS'E0_21_R0_11_R1_22_T_R1'
p3127
S'E0_21_R0_11_R1_11_T_E0'
p3128
sS'E0_02_R0_21_R1_12_T_E0'
p3129
S'E0_02_R0_21_R1_12_T_R0'
p3130
sS'E0_02_R0_00_R1_01_T_E0'
p3131
S'E0_02_R0_00_R1_01_T_R0'
p3132
sS'E0_01_R0_22_R1_00_T_R0'
p3133
S'E0_01_R0_21_R1_00_T_R1'
p3134
sS'E0_01_R0_12_R1_02_T_R1'
p3135
S'E0_01_R0_12_R1_02_T_E0'
p3136
sS'E0_00_R0_22_R1_01_T_R1'
p3137
S'E0_00_R0_22_R1_02_T_E0'
p3138
sS'E0_22_R0_20_R1_00_T_R0'
p3139
S'E0_22_R0_10_R1_00_T_R1'
p3140
sS'E0_21_R0_01_R1_10_T_R0'
p3141
S'E0_21_R0_02_R1_10_T_R1'
p3142
sS'E0_21_R0_01_R1_10_T_R1'
p3143
S'E0_21_R0_01_R1_20_T_E0'
p3144
sS'E0_11_R0_00_R1_20_T_R1'
p3145
S'E0_11_R0_00_R1_10_T_E0'
p3146
sS'E0_11_R0_00_R1_20_T_R0'
p3147
S'E0_11_R0_10_R1_20_T_R1'
p3148
sS'E0_22_R0_21_R1_12_T_E0'
p3149
S'E0_22_R0_21_R1_12_T_R0'
p3150
sS'E0_00_R0_11_R1_20_T_E0'
p3151
S'E0_00_R0_11_R1_20_T_R0'
p3152
sS'E0_01_R0_22_R1_22_T_E0'
p3153
S'E0_01_R0_22_R1_22_T_R0'
p3154
sS'E0_20_R0_12_R1_12_T_E0'
p3155
S'E0_20_R0_12_R1_12_T_R0'
p3156
sS'E0_10_R0_12_R1_02_T_E0'
p3157
S'E0_10_R0_12_R1_02_T_R0'
p3158
sS'E0_22_R0_12_R1_02_T_E0'
p3159
S'E0_22_R0_12_R1_02_T_R0'
p3160
sS'E0_22_R0_12_R1_10_T_E0'
p3161
S'E0_22_R0_12_R1_10_T_R0'
p3162
sS'E0_02_R0_00_R1_20_T_R1'
p3163
S'E0_02_R0_00_R1_11_T_E0'
p3164
sS'E0_02_R0_00_R1_20_T_R0'
p3165
S'E0_02_R0_10_R1_20_T_R1'
p3166
sS'E0_21_R0_00_R1_00_T_E0'
p3167
S'E0_21_R0_00_R1_00_T_R0'
p3168
sS'E0_01_R0_01_R1_02_T_R1'
p3169
S'E0_01_R0_01_R1_02_T_E0'
p3170
sS'E0_20_R0_21_R1_12_T_E0'
p3171
S'E0_20_R0_21_R1_12_T_R0'
p3172
sS'E0_02_R0_10_R1_20_T_R1'
p3173
S'E0_02_R0_10_R1_20_T_E0'
p3174
sS'E0_10_R0_12_R1_21_T_E0'
p3175
S'E0_10_R0_12_R1_21_T_R0'
p3176
sS'E0_22_R0_10_R1_02_T_R0'
p3177
S'E0_22_R0_00_R1_02_T_R1'
p3178
sS'E0_12_R0_22_R1_12_T_E0'
p3179
S'E0_12_R0_22_R1_12_T_R0'
p3180
sS'E0_22_R0_10_R1_02_T_R1'
p3181
S'E0_22_R0_10_R1_02_T_E0'
p3182
sS'E0_20_R0_01_R1_01_T_E0'
p3183
S'E0_20_R0_01_R1_01_T_R0'
p3184
sS'E0_22_R0_10_R1_11_T_R1'
p3185
S'E0_22_R0_10_R1_02_T_E0'
p3186
sS'E0_02_R0_01_R1_11_T_R0'
p3187
S'E0_02_R0_00_R1_11_T_R1'
p3188
sS'E0_02_R0_01_R1_11_T_R1'
p3189
S'E0_02_R0_01_R1_20_T_E0'
p3190
sS'E0_12_R0_00_R1_21_T_E0'
p3191
S'E0_12_R0_00_R1_21_T_R0'
p3192
sS'E0_20_R0_21_R1_02_T_E0'
p3193
S'E0_20_R0_21_R1_02_T_R0'
p3194
sS'E0_22_R0_10_R1_10_T_R1'
p3195
S'E0_22_R0_10_R1_00_T_E0'
p3196
sS'E0_22_R0_10_R1_10_T_R0'
p3197
S'E0_22_R0_00_R1_10_T_R1'
p3198
sS'E0_22_R0_01_R1_22_T_E0'
p3199
S'E0_22_R0_01_R1_22_T_R0'
p3200
sS'E0_01_R0_20_R1_22_T_R1'
p3201
S'E0_01_R0_20_R1_22_T_E0'
p3202
sS'E0_01_R0_10_R1_22_T_E0'
p3203
S'E0_01_R0_10_R1_22_T_R0'
p3204
sS'E0_00_R0_12_R1_12_T_E0'
p3205
S'E0_00_R0_12_R1_12_T_R0'
p3206
sS'E0_11_R0_10_R1_00_T_R0'
p3207
S'E0_11_R0_20_R1_00_T_R1'
p3208
sS'E0_00_R0_21_R1_00_T_E0'
p3209
S'E0_00_R0_21_R1_00_T_R0'
p3210
sS'E0_20_R0_10_R1_12_T_R1'
p3211
S'E0_20_R0_10_R1_02_T_E0'
p3212
sS'E0_22_R0_21_R1_11_T_R0'
p3213
S'E0_22_R0_20_R1_11_T_R1'
p3214
sS'E0_22_R0_21_R1_11_T_R1'
p3215
S'E0_22_R0_21_R1_00_T_E0'
p3216
sS'E0_20_R0_10_R1_12_T_R0'
p3217
S'E0_20_R0_00_R1_12_T_R1'
p3218
sS'E0_22_R0_00_R1_12_T_R1'
p3219
S'E0_22_R0_00_R1_02_T_E0'
p3220
sS'E0_00_R0_01_R1_10_T_E0'
p3221
S'E0_00_R0_01_R1_10_T_R0'
p3222
sS'E0_22_R0_11_R1_00_T_E0'
p3223
S'E0_22_R0_11_R1_00_T_R0'
p3224
sS'E0_02_R0_12_R1_00_T_R0'
p3225
S'E0_02_R0_11_R1_00_T_R1'
p3226
sS'E0_02_R0_12_R1_00_T_R1'
p3227
S'E0_02_R0_12_R1_11_T_E0'
p3228
sS'E0_01_R0_02_R1_11_T_E0'
p3229
S'E0_01_R0_02_R1_11_T_R0'
p3230
sS'E0_02_R0_12_R1_01_T_E0'
p3231
S'E0_02_R0_12_R1_01_T_R0'
p3232
sS'E0_22_R0_00_R1_01_T_R1'
p3233
S'E0_22_R0_00_R1_02_T_E0'
p3234
sS'E0_21_R0_01_R1_01_T_R0'
p3235
S'E0_21_R0_02_R1_01_T_R1'
p3236
sS'E0_21_R0_01_R1_01_T_R1'
p3237
S'E0_21_R0_01_R1_00_T_E0'
p3238
sS'E0_02_R0_01_R1_20_T_E0'
p3239
S'E0_02_R0_01_R1_20_T_R0'
p3240
sS'E0_21_R0_01_R1_11_T_E0'
p3241
S'E0_21_R0_01_R1_11_T_R0'
p3242
sS'E0_00_R0_10_R1_20_T_R0'
p3243
S'E0_00_R0_21_R1_20_T_R1'
p3244
sS'E0_00_R0_10_R1_20_T_R1'
p3245
S'E0_00_R0_10_R1_21_T_E0'
p3246
sS'E0_21_R0_21_R1_01_T_R1'
p3247
S'E0_21_R0_21_R1_01_T_E0'
p3248
sS'E0_10_R0_02_R1_02_T_E0'
p3249
S'E0_10_R0_02_R1_02_T_R0'
p3250
sS'E0_02_R0_11_R1_12_T_R0'
p3251
S'E0_02_R0_20_R1_12_T_R1'
p3252
sS'E0_02_R0_11_R1_12_T_R1'
p3253
S'E0_02_R0_11_R1_22_T_E0'
p3254
sS'E0_20_R0_22_R1_01_T_R0'
p3255
S'E0_20_R0_22_R1_01_T_R1'
p3256
sS'E0_20_R0_22_R1_01_T_R1'
p3257
S'E0_20_R0_22_R1_02_T_E0'
p3258
sS'E0_01_R0_11_R1_22_T_R0'
p3259
S'E0_01_R0_02_R1_22_T_R1'
p3260
sS'E0_11_R0_12_R1_01_T_R1'
p3261
S'E0_11_R0_12_R1_00_T_E0'
p3262
sS'E0_11_R0_12_R1_01_T_R0'
p3263
S'E0_11_R0_02_R1_01_T_R1'
p3264
sS'E0_10_R0_11_R1_01_T_E0'
p3265
S'E0_10_R0_11_R1_01_T_R0'
p3266
sS'E0_00_R0_22_R1_10_T_E0'
p3267
S'E0_00_R0_22_R1_10_T_R0'
p3268
sS'E0_10_R0_20_R1_21_T_E0'
p3269
S'E0_10_R0_20_R1_21_T_R0'
p3270
sS'E0_00_R0_11_R1_10_T_E0'
p3271
S'E0_00_R0_11_R1_10_T_R0'
p3272
sS'E0_10_R0_02_R1_22_T_E0'
p3273
S'E0_10_R0_02_R1_22_T_R0'
p3274
sS'E0_12_R0_21_R1_02_T_R0'
p3275
S'E0_12_R0_22_R1_02_T_R1'
p3276
sS'E0_21_R0_11_R1_01_T_R1'
p3277
S'E0_21_R0_11_R1_00_T_E0'
p3278
sS'E0_21_R0_11_R1_01_T_R0'
p3279
S'E0_21_R0_02_R1_01_T_R1'
p3280
sS'E0_12_R0_00_R1_00_T_R0'
p3281
S'E0_12_R0_10_R1_00_T_R1'
p3282
sS'E0_12_R0_00_R1_00_T_R1'
p3283
S'E0_12_R0_00_R1_10_T_E0'
p3284
sS'E0_02_R0_01_R1_10_T_E0'
p3285
S'E0_02_R0_01_R1_10_T_R0'
p3286
sS'E0_12_R0_00_R1_01_T_E0'
p3287
S'E0_12_R0_00_R1_01_T_R0'
p3288
sS'E0_22_R0_00_R1_21_T_E0'
p3289
S'E0_22_R0_00_R1_21_T_R0'
p3290
sS'E0_20_R0_10_R1_22_T_R0'
p3291
S'E0_20_R0_11_R1_22_T_R1'
p3292
sS'E0_20_R0_10_R1_22_T_R1'
p3293
S'E0_20_R0_10_R1_11_T_E0'
p3294
sS'E0_00_R0_20_R1_20_T_E0'
p3295
S'E0_00_R0_20_R1_20_T_R0'
p3296
sS'E0_20_R0_02_R1_11_T_E0'
p3297
S'E0_20_R0_02_R1_11_T_R0'
p3298
sS'E0_00_R0_02_R1_00_T_E0'
p3299
S'E0_00_R0_02_R1_00_T_R0'
p3300
sS'E0_12_R0_01_R1_21_T_R0'
p3301
S'E0_12_R0_02_R1_21_T_R1'
p3302
sS'E0_12_R0_01_R1_21_T_R1'
p3303
S'E0_12_R0_01_R1_22_T_E0'
p3304
sS'E0_21_R0_22_R1_12_T_E0'
p3305
S'E0_21_R0_22_R1_12_T_R0'
p3306
sS'E0_20_R0_11_R1_10_T_R0'
p3307
S'E0_20_R0_02_R1_10_T_R1'
p3308
sS'E0_20_R0_11_R1_10_T_R1'
p3309
S'E0_20_R0_11_R1_00_T_E0'
p3310
sS'E0_02_R0_21_R1_10_T_E0'
p3311
S'E0_02_R0_21_R1_10_T_R0'
p3312
sS'E0_02_R0_11_R1_10_T_R0'
p3313
S'E0_02_R0_22_R1_10_T_R1'
p3314
sS'E0_02_R0_11_R1_10_T_R1'
p3315
S'E0_02_R0_11_R1_20_T_E0'
p3316
sS'E0_01_R0_22_R1_12_T_R1'
p3317
S'E0_01_R0_22_R1_02_T_E0'
p3318
sS'E0_21_R0_22_R1_22_T_E0'
p3319
S'E0_21_R0_22_R1_22_T_R0'
p3320
sS'E0_12_R0_12_R1_00_T_R1'
p3321
S'E0_12_R0_12_R1_00_T_E0'
p3322
sS'E0_01_R0_12_R1_11_T_R1'
p3323
S'E0_01_R0_12_R1_22_T_E0'
p3324
sS'E0_01_R0_12_R1_11_T_R0'
p3325
S'E0_01_R0_02_R1_11_T_R1'
p3326
sS'E0_11_R0_20_R1_10_T_R0'
p3327
S'E0_11_R0_20_R1_10_T_R1'
p3328
sS'E0_11_R0_20_R1_10_T_R1'
p3329
S'E0_11_R0_20_R1_00_T_E0'
p3330
sS'E0_12_R0_21_R1_01_T_R0'
p3331
S'E0_12_R0_22_R1_01_T_R1'
p3332
sS'E0_01_R0_12_R1_10_T_R0'
p3333
S'E0_01_R0_02_R1_10_T_R1'
p3334
sS'E0_22_R0_20_R1_12_T_E0'
p3335
S'E0_22_R0_20_R1_12_T_R0'
p3336
sS'E0_22_R0_11_R1_22_T_E0'
p3337
S'E0_22_R0_11_R1_22_T_R0'
p3338
sS'E0_20_R0_10_R1_21_T_R0'
p3339
S'E0_20_R0_11_R1_21_T_R1'
p3340
sS'E0_02_R0_00_R1_22_T_R1'
p3341
S'E0_02_R0_00_R1_21_T_E0'
p3342
sS'E0_02_R0_00_R1_22_T_R0'
p3343
S'E0_02_R0_11_R1_22_T_R1'
p3344
sS'E0_11_R0_22_R1_01_T_E0'
p3345
S'E0_11_R0_22_R1_01_T_R0'
p3346
sS'E0_22_R0_20_R1_21_T_E0'
p3347
S'E0_22_R0_20_R1_21_T_R0'
p3348
sS'E0_10_R0_11_R1_22_T_E0'
p3349
S'E0_10_R0_11_R1_22_T_R0'
p3350
sS'E0_01_R0_12_R1_00_T_R1'
p3351
S'E0_01_R0_12_R1_00_T_E0'
p3352
sS'E0_01_R0_12_R1_00_T_R0'
p3353
S'E0_01_R0_02_R1_00_T_R1'
p3354
sS'E0_00_R0_10_R1_02_T_E0'
p3355
S'E0_00_R0_10_R1_02_T_R0'
p3356
sS'E0_00_R0_20_R1_10_T_R0'
p3357
S'E0_00_R0_21_R1_10_T_R1'
p3358
sS'E0_00_R0_20_R1_10_T_R1'
p3359
S'E0_00_R0_20_R1_11_T_E0'
p3360
sS'E0_11_R0_10_R1_12_T_E0'
p3361
S'E0_11_R0_10_R1_12_T_R0'
p3362
sS'E0_10_R0_01_R1_11_T_R0'
p3363
S'E0_10_R0_00_R1_11_T_R1'
p3364
sS'E0_11_R0_20_R1_20_T_R1'
p3365
S'E0_11_R0_20_R1_21_T_E0'
p3366
sS'E0_11_R0_20_R1_20_T_R0'
p3367
S'E0_11_R0_10_R1_20_T_R1'
p3368
sS'E0_10_R0_20_R1_01_T_R1'
p3369
S'E0_10_R0_20_R1_00_T_E0'
p3370
sS'E0_10_R0_20_R1_01_T_R0'
p3371
S'E0_10_R0_20_R1_01_T_R1'
p3372
sS'E0_22_R0_12_R1_11_T_R0'
p3373
S'E0_22_R0_02_R1_11_T_R1'
p3374
sS'E0_01_R0_10_R1_02_T_R1'
p3375
S'E0_01_R0_10_R1_02_T_E0'
p3376
sS'E0_01_R0_10_R1_02_T_R0'
p3377
S'E0_01_R0_00_R1_02_T_R1'
p3378
sS'E0_01_R0_22_R1_21_T_R0'
p3379
S'E0_01_R0_11_R1_21_T_R1'
p3380
sS'E0_12_R0_21_R1_20_T_R1'
p3381
S'E0_12_R0_21_R1_20_T_E0'
p3382
sS'E0_12_R0_21_R1_20_T_R0'
p3383
S'E0_12_R0_22_R1_20_T_R1'
p3384
sS'E0_11_R0_12_R1_12_T_R1'
p3385
S'E0_11_R0_12_R1_22_T_E0'
p3386
sS'E0_11_R0_12_R1_12_T_R0'
p3387
S'E0_11_R0_22_R1_12_T_R1'
p3388
sS'E0_21_R0_10_R1_20_T_E0'
p3389
S'E0_21_R0_10_R1_20_T_R0'
p3390
sS'E0_21_R0_12_R1_20_T_E0'
p3391
S'E0_21_R0_12_R1_20_T_R0'
p3392
sS'E0_12_R0_02_R1_10_T_R1'
p3393
S'E0_12_R0_02_R1_00_T_E0'
p3394
sS'E0_21_R0_11_R1_11_T_E0'
p3395
S'E0_21_R0_11_R1_11_T_R0'
p3396
sS'E0_20_R0_01_R1_02_T_E0'
p3397
S'E0_20_R0_01_R1_02_T_R0'
p3398
sS'E0_00_R0_22_R1_02_T_R1'
p3399
S'E0_00_R0_22_R1_11_T_E0'
p3400
sS'E0_00_R0_22_R1_02_T_R0'
p3401
S'E0_00_R0_11_R1_02_T_R1'
p3402
sS'E0_20_R0_01_R1_21_T_R1'
p3403
S'E0_20_R0_01_R1_22_T_E0'
p3404
sS'E0_20_R0_01_R1_21_T_R0'
p3405
S'E0_20_R0_02_R1_21_T_R1'
p3406
sS'E0_10_R0_20_R1_22_T_R0'
p3407
S'E0_10_R0_11_R1_22_T_R1'
p3408
sS'E0_10_R0_20_R1_22_T_R1'
p3409
S'E0_10_R0_20_R1_11_T_E0'
p3410
sS'E0_00_R0_02_R1_22_T_E0'
p3411
S'E0_00_R0_02_R1_22_T_R0'
p3412
sS'E0_12_R0_02_R1_21_T_E0'
p3413
S'E0_12_R0_02_R1_21_T_R0'
p3414
sS'E0_10_R0_22_R1_02_T_E0'
p3415
S'E0_10_R0_22_R1_02_T_R0'
p3416
sS'E0_11_R0_00_R1_01_T_R0'
p3417
S'E0_11_R0_00_R1_01_T_R1'
p3418
sS'E0_11_R0_00_R1_01_T_R1'
p3419
S'E0_11_R0_00_R1_02_T_E0'
p3420
sS'E0_22_R0_02_R1_10_T_E0'
p3421
S'E0_22_R0_02_R1_10_T_R0'
p3422
sS'E0_10_R0_02_R1_12_T_E0'
p3423
S'E0_10_R0_02_R1_12_T_R0'
p3424
sS'E0_21_R0_11_R1_02_T_R0'
p3425
S'E0_21_R0_22_R1_02_T_R1'
p3426
sS'E0_21_R0_11_R1_02_T_R1'
p3427
S'E0_21_R0_11_R1_02_T_E0'
p3428
sS'E0_02_R0_21_R1_20_T_E0'
p3429
S'E0_02_R0_21_R1_20_T_R0'
p3430
sS'E0_11_R0_11_R1_20_T_R1'
p3431
S'E0_11_R0_11_R1_20_T_E0'
p3432
sS'E0_11_R0_02_R1_12_T_E0'
p3433
S'E0_11_R0_02_R1_12_T_R0'
p3434
sS'E0_20_R0_22_R1_21_T_R0'
p3435
S'E0_20_R0_11_R1_21_T_R1'
p3436
sS'E0_20_R0_22_R1_21_T_R1'
p3437
S'E0_20_R0_22_R1_11_T_E0'
p3438
sS'E0_00_R0_01_R1_12_T_R1'
p3439
S'E0_00_R0_01_R1_22_T_E0'
p3440
sS'E0_00_R0_01_R1_12_T_R0'
p3441
S'E0_00_R0_02_R1_12_T_R1'
p3442
sS'E0_02_R0_01_R1_12_T_R1'
p3443
S'E0_02_R0_01_R1_21_T_E0'
p3444
sS'E0_00_R0_01_R1_21_T_E0'
p3445
S'E0_00_R0_01_R1_21_T_R0'
p3446
sS'E0_11_R0_10_R1_01_T_R1'
p3447
S'E0_11_R0_10_R1_00_T_E0'
p3448
sS'E0_21_R0_02_R1_02_T_R1'
p3449
S'E0_21_R0_02_R1_12_T_E0'
p3450
sS'E0_12_R0_00_R1_22_T_R0'
p3451
S'E0_12_R0_01_R1_22_T_R1'
p3452
sS'E0_12_R0_00_R1_22_T_R1'
p3453
S'E0_12_R0_00_R1_21_T_E0'
p3454
sS'E0_10_R0_12_R1_11_T_R1'
p3455
S'E0_10_R0_12_R1_02_T_E0'
p3456
sS'E0_10_R0_12_R1_11_T_R0'
p3457
S'E0_10_R0_22_R1_11_T_R1'
p3458
sS'E0_01_R0_20_R1_02_T_E0'
p3459
S'E0_01_R0_20_R1_02_T_R0'
p3460
sS'E0_00_R0_20_R1_01_T_R0'
p3461
S'E0_00_R0_21_R1_01_T_R1'
p3462
sS'E0_00_R0_20_R1_01_T_R1'
p3463
S'E0_00_R0_20_R1_11_T_E0'
p3464
sS'E0_20_R0_21_R1_12_T_R1'
p3465
S'E0_20_R0_21_R1_02_T_E0'
p3466
sS'E0_02_R0_10_R1_20_T_E0'
p3467
S'E0_02_R0_10_R1_20_T_R0'
p3468
sS'E0_10_R0_00_R1_20_T_R0'
p3469
S'E0_10_R0_11_R1_20_T_R1'
p3470
sS'E0_10_R0_00_R1_20_T_R1'
p3471
S'E0_10_R0_00_R1_11_T_E0'
p3472
sS'E0_01_R0_22_R1_00_T_E0'
p3473
S'E0_01_R0_22_R1_00_T_R0'
p3474
sS'E0_01_R0_00_R1_02_T_R1'
p3475
S'E0_01_R0_00_R1_02_T_E0'
p3476
sS'E0_10_R0_00_R1_12_T_E0'
p3477
S'E0_10_R0_00_R1_12_T_R0'
p3478
sS'E0_22_R0_12_R1_10_T_R1'
p3479
S'E0_22_R0_12_R1_00_T_E0'
p3480
sS'E0_22_R0_12_R1_10_T_R0'
p3481
S'E0_22_R0_02_R1_10_T_R1'
p3482
sS'E0_21_R0_21_R1_11_T_R1'
p3483
S'E0_21_R0_21_R1_11_T_E0'
p3484
sS'E0_21_R0_11_R1_10_T_R1'
p3485
S'E0_21_R0_11_R1_20_T_E0'
p3486
sS'E0_21_R0_11_R1_10_T_R0'
p3487
S'E0_21_R0_20_R1_10_T_R1'
p3488
sS'E0_20_R0_22_R1_01_T_E0'
p3489
S'E0_20_R0_22_R1_01_T_R0'
p3490
sS'E0_20_R0_12_R1_01_T_E0'
p3491
S'E0_20_R0_12_R1_01_T_R0'
p3492
sS'E0_12_R0_01_R1_01_T_E0'
p3493
S'E0_12_R0_01_R1_01_T_R0'
p3494
sS'E0_10_R0_11_R1_01_T_R1'
p3495
S'E0_10_R0_11_R1_02_T_E0'
p3496
sS'E0_10_R0_11_R1_01_T_R0'
p3497
S'E0_10_R0_20_R1_01_T_R1'
p3498
sS'E0_01_R0_21_R1_22_T_R1'
p3499
S'E0_01_R0_21_R1_21_T_E0'
p3500
sS'E0_01_R0_21_R1_22_T_R0'
p3501
S'E0_01_R0_20_R1_22_T_R1'
p3502
sS'E0_21_R0_10_R1_10_T_E0'
p3503
S'E0_21_R0_10_R1_10_T_R0'
p3504
sS'E0_02_R0_22_R1_20_T_E0'
p3505
S'E0_02_R0_22_R1_20_T_R0'
p3506
sS'E0_12_R0_01_R1_02_T_E0'
p3507
S'E0_12_R0_01_R1_02_T_R0'
p3508
sS'E0_20_R0_11_R1_01_T_E0'
p3509
S'E0_20_R0_11_R1_01_T_R0'
p3510
sS'E0_11_R0_01_R1_02_T_R0'
p3511
S'E0_11_R0_00_R1_02_T_R1'
p3512
sS'E0_11_R0_01_R1_02_T_R1'
p3513
S'E0_11_R0_01_R1_02_T_E0'
p3514
sS'E0_12_R0_00_R1_21_T_R1'
p3515
S'E0_12_R0_00_R1_20_T_E0'
p3516
sS'E0_12_R0_00_R1_21_T_R0'
p3517
S'E0_12_R0_01_R1_21_T_R1'
p3518
sS'E0_01_R0_22_R1_12_T_R0'
p3519
S'E0_01_R0_22_R1_12_T_R1'
p3520
sS'E0_22_R0_01_R1_12_T_R1'
p3521
S'E0_22_R0_01_R1_02_T_E0'
p3522
sS'E0_22_R0_01_R1_12_T_R0'
p3523
S'E0_22_R0_00_R1_12_T_R1'
p3524
sS'E0_11_R0_01_R1_21_T_R1'
p3525
S'E0_11_R0_01_R1_20_T_E0'
p3526
sS'E0_11_R0_01_R1_21_T_R0'
p3527
S'E0_11_R0_00_R1_21_T_R1'
p3528
sS'E0_12_R0_21_R1_22_T_R1'
p3529
S'E0_12_R0_21_R1_11_T_E0'
p3530
sS'E0_12_R0_21_R1_22_T_R0'
p3531
S'E0_12_R0_20_R1_22_T_R1'
p3532
sS'E0_10_R0_22_R1_01_T_R1'
p3533
S'E0_10_R0_22_R1_02_T_E0'
p3534
sS'E0_10_R0_22_R1_01_T_R0'
p3535
S'E0_10_R0_11_R1_01_T_R1'
p3536
sS'E0_21_R0_12_R1_02_T_R1'
p3537
S'E0_21_R0_12_R1_02_T_E0'
p3538
sS'E0_21_R0_12_R1_02_T_R0'
p3539
S'E0_21_R0_22_R1_02_T_R1'
p3540
sS'E0_11_R0_20_R1_11_T_E0'
p3541
S'E0_11_R0_20_R1_11_T_R0'
p3542
sS'E0_10_R0_20_R1_10_T_E0'
p3543
S'E0_10_R0_20_R1_10_T_R0'
p3544
sS'E0_00_R0_00_R1_01_T_R1'
p3545
S'E0_00_R0_00_R1_01_T_E0'
p3546
sS'E0_00_R0_10_R1_12_T_R1'
p3547
S'E0_00_R0_10_R1_22_T_E0'
p3548
sS'E0_00_R0_10_R1_12_T_R0'
p3549
S'E0_00_R0_20_R1_12_T_R1'
p3550
sS'E0_21_R0_01_R1_11_T_R1'
p3551
S'E0_21_R0_01_R1_20_T_E0'
p3552
sS'E0_21_R0_01_R1_11_T_R0'
p3553
S'E0_21_R0_02_R1_11_T_R1'
p3554
sS'E0_00_R0_01_R1_10_T_R1'
p3555
S'E0_00_R0_01_R1_11_T_E0'
p3556
sS'E0_00_R0_01_R1_10_T_R0'
p3557
S'E0_00_R0_12_R1_10_T_R1'
p3558
sS'E0_10_R0_22_R1_12_T_E0'
p3559
S'E0_10_R0_22_R1_12_T_R0'
p3560
sS'E0_10_R0_01_R1_02_T_R1'
p3561
S'E0_10_R0_01_R1_02_T_E0'
p3562
sS'E0_01_R0_21_R1_10_T_R1'
p3563
S'E0_01_R0_21_R1_20_T_E0'
p3564
sS'E0_01_R0_00_R1_22_T_R0'
p3565
S'E0_01_R0_11_R1_22_T_R1'
p3566
sS'E0_01_R0_00_R1_22_T_R1'
p3567
S'E0_01_R0_00_R1_21_T_E0'
p3568
sS'E0_12_R0_20_R1_02_T_R0'
p3569
S'E0_12_R0_21_R1_02_T_R1'
p3570
sS'E0_12_R0_20_R1_02_T_R1'
p3571
S'E0_12_R0_20_R1_01_T_E0'
p3572
sS'E0_12_R0_11_R1_10_T_R1'
p3573
S'E0_12_R0_11_R1_20_T_E0'
p3574
sS'E0_00_R0_12_R1_12_T_R1'
p3575
S'E0_00_R0_12_R1_02_T_E0'
p3576
sS'E0_00_R0_12_R1_12_T_R0'
p3577
S'E0_00_R0_22_R1_12_T_R1'
p3578
sS'E0_21_R0_21_R1_10_T_R1'
p3579
S'E0_21_R0_21_R1_10_T_E0'
p3580
sS'E0_12_R0_00_R1_20_T_E0'
p3581
S'E0_12_R0_00_R1_20_T_R0'
p3582
sS'E0_21_R0_02_R1_22_T_R0'
p3583
S'E0_21_R0_11_R1_22_T_R1'
p3584
sS'E0_21_R0_02_R1_22_T_R1'
p3585
S'E0_21_R0_02_R1_11_T_E0'
p3586
sS'E0_02_R0_00_R1_02_T_E0'
p3587
S'E0_02_R0_00_R1_02_T_R0'
p3588
sS'E0_21_R0_11_R1_20_T_E0'
p3589
S'E0_21_R0_11_R1_20_T_R0'
p3590
sS'E0_02_R0_21_R1_02_T_E0'
p3591
S'E0_02_R0_21_R1_02_T_R0'
p3592
sS'E0_01_R0_21_R1_01_T_E0'
p3593
S'E0_01_R0_21_R1_01_T_R0'
p3594
sS'E0_12_R0_22_R1_21_T_E0'
p3595
S'E0_12_R0_22_R1_21_T_R0'
p3596
sS'E0_12_R0_10_R1_00_T_E0'
p3597
S'E0_12_R0_10_R1_00_T_R0'
p3598
sS'E0_12_R0_01_R1_21_T_E0'
p3599
S'E0_12_R0_01_R1_21_T_R0'
p3600
sS'E0_20_R0_02_R1_11_T_R1'
p3601
S'E0_20_R0_02_R1_22_T_E0'
p3602
sS'E0_20_R0_02_R1_11_T_R0'
p3603
S'E0_20_R0_02_R1_11_T_R1'
p3604
sS'E0_12_R0_20_R1_01_T_R1'
p3605
S'E0_12_R0_20_R1_00_T_E0'
p3606
sS'E0_12_R0_20_R1_01_T_R0'
p3607
S'E0_12_R0_20_R1_01_T_R1'
p3608
sS'E0_11_R0_21_R1_11_T_E0'
p3609
S'E0_11_R0_21_R1_11_T_R0'
p3610
sS'E0_11_R0_22_R1_10_T_R0'
p3611
S'E0_11_R0_22_R1_10_T_R1'
p3612
sS'E0_11_R0_22_R1_10_T_R1'
p3613
S'E0_11_R0_22_R1_20_T_E0'
p3614
sS'E0_02_R0_02_R1_12_T_R1'
p3615
S'E0_02_R0_02_R1_12_T_E0'
p3616
sS'E0_00_R0_00_R1_11_T_R1'
p3617
S'E0_00_R0_00_R1_11_T_E0'
p3618
sS'E0_12_R0_01_R1_00_T_R1'
p3619
S'E0_12_R0_01_R1_01_T_E0'
p3620
sS'E0_12_R0_01_R1_00_T_R0'
p3621
S'E0_12_R0_02_R1_00_T_R1'
p3622
sS'E0_12_R0_22_R1_22_T_R0'
p3623
S'E0_12_R0_11_R1_22_T_R1'
p3624
sS'E0_12_R0_22_R1_22_T_R1'
p3625
S'E0_12_R0_22_R1_11_T_E0'
p3626
sS'E0_00_R0_22_R1_22_T_E0'
p3627
S'E0_00_R0_22_R1_22_T_R0'
p3628
sS'E0_01_R0_12_R1_10_T_E0'
p3629
S'E0_01_R0_12_R1_10_T_R0'
p3630
sS'E0_02_R0_10_R1_22_T_R0'
p3631
S'E0_02_R0_20_R1_22_T_R1'
p3632
sS'E0_02_R0_10_R1_22_T_R1'
p3633
S'E0_02_R0_10_R1_11_T_E0'
p3634
sS'E0_00_R0_21_R1_11_T_E0'
p3635
S'E0_00_R0_21_R1_11_T_R0'
p3636
sS'E0_12_R0_20_R1_10_T_R1'
p3637
S'E0_12_R0_20_R1_00_T_E0'
p3638
sS'E0_12_R0_20_R1_10_T_R0'
p3639
S'E0_12_R0_20_R1_10_T_R1'
p3640
sS'E0_12_R0_00_R1_00_T_E0'
p3641
S'E0_12_R0_00_R1_00_T_R0'
p3642
sS'E0_21_R0_20_R1_20_T_R0'
p3643
S'E0_21_R0_11_R1_20_T_R1'
p3644
sS'E0_21_R0_20_R1_20_T_R1'
p3645
S'E0_21_R0_20_R1_11_T_E0'
p3646
sS'E0_11_R0_01_R1_12_T_E0'
p3647
S'E0_11_R0_01_R1_12_T_R0'
p3648
sS'E0_01_R0_22_R1_00_T_R1'
p3649
S'E0_01_R0_22_R1_10_T_E0'
p3650
sS'E0_21_R0_20_R1_00_T_R0'
p3651
S'E0_21_R0_11_R1_00_T_R1'
p3652
sS'E0_21_R0_20_R1_00_T_R1'
p3653
S'E0_21_R0_20_R1_10_T_E0'
p3654
sS'E0_22_R0_11_R1_10_T_R0'
p3655
S'E0_22_R0_00_R1_10_T_R1'
p3656
sS'E0_22_R0_11_R1_10_T_R1'
p3657
S'E0_22_R0_11_R1_20_T_E0'
p3658
sS'E0_02_R0_12_R1_20_T_E0'
p3659
S'E0_02_R0_12_R1_20_T_R0'
p3660
sS'E0_01_R0_10_R1_11_T_R1'
p3661
S'E0_01_R0_10_R1_00_T_E0'
p3662
sS'E0_01_R0_10_R1_11_T_R0'
p3663
S'E0_01_R0_00_R1_11_T_R1'
p3664
sS'E0_22_R0_21_R1_01_T_E0'
p3665
S'E0_22_R0_21_R1_01_T_R0'
p3666
sS'E0_11_R0_21_R1_22_T_R0'
p3667
S'E0_11_R0_20_R1_22_T_R1'
p3668
sS'E0_11_R0_21_R1_22_T_R1'
p3669
S'E0_11_R0_21_R1_22_T_E0'
p3670
sS'E0_00_R0_11_R1_11_T_E0'
p3671
S'E0_00_R0_11_R1_11_T_R0'
p3672
sS'E0_12_R0_10_R1_20_T_R0'
p3673
S'E0_12_R0_00_R1_20_T_R1'
p3674
sS'E0_22_R0_12_R1_00_T_R0'
p3675
S'E0_22_R0_02_R1_00_T_R1'
p3676
sS'E0_22_R0_12_R1_00_T_R1'
p3677
S'E0_22_R0_12_R1_01_T_E0'
p3678
sS'E0_11_R0_22_R1_20_T_E0'
p3679
S'E0_11_R0_22_R1_20_T_R0'
p3680
sS'E0_10_R0_11_R1_10_T_E0'
p3681
S'E0_10_R0_11_R1_10_T_R0'
p3682
sS'E0_11_R0_11_R1_12_T_R1'
p3683
S'E0_11_R0_11_R1_12_T_E0'
p3684
sS'E0_10_R0_02_R1_01_T_R1'
p3685
S'E0_10_R0_02_R1_00_T_E0'
p3686
sS'E0_10_R0_02_R1_01_T_R0'
p3687
S'E0_10_R0_02_R1_01_T_R1'
p3688
sS'E0_02_R0_20_R1_21_T_R0'
p3689
S'E0_02_R0_20_R1_21_T_R1'
p3690
sS'E0_02_R0_20_R1_21_T_R1'
p3691
S'E0_02_R0_20_R1_22_T_E0'
p3692
sS'E0_01_R0_02_R1_22_T_R1'
p3693
S'E0_01_R0_02_R1_12_T_E0'
p3694
sS'E0_01_R0_20_R1_11_T_E0'
p3695
S'E0_01_R0_20_R1_11_T_R0'
p3696
sS'E0_22_R0_00_R1_22_T_E0'
p3697
S'E0_22_R0_00_R1_22_T_R0'
p3698
sS'E0_10_R0_01_R1_02_T_R0'
p3699
S'E0_10_R0_00_R1_02_T_R1'
p3700
sS'E0_10_R0_01_R1_20_T_E0'
p3701
S'E0_10_R0_01_R1_20_T_R0'
p3702
sS'E0_12_R0_11_R1_10_T_R0'
p3703
S'E0_12_R0_00_R1_10_T_R1'
p3704
sS'E0_00_R0_02_R1_10_T_R0'
p3705
S'E0_00_R0_12_R1_10_T_R1'
p3706
sS'E0_00_R0_02_R1_10_T_R1'
p3707
S'E0_00_R0_02_R1_21_T_E0'
p3708
sS'E0_10_R0_20_R1_12_T_R1'
p3709
S'E0_10_R0_20_R1_22_T_E0'
p3710
sS'E0_10_R0_20_R1_12_T_R0'
p3711
S'E0_10_R0_20_R1_12_T_R1'
p3712
sS'E0_01_R0_12_R1_10_T_R1'
p3713
S'E0_01_R0_12_R1_00_T_E0'
p3714
sS'E0_12_R0_11_R1_01_T_R1'
p3715
S'E0_12_R0_11_R1_00_T_E0'
p3716
sS'E0_12_R0_11_R1_01_T_R0'
p3717
S'E0_12_R0_00_R1_01_T_R1'
p3718
sS'E0_00_R0_00_R1_22_T_R1'
p3719
S'E0_00_R0_00_R1_22_T_E0'
p3720
sS'E0_00_R0_12_R1_21_T_R1'
p3721
S'E0_00_R0_12_R1_22_T_E0'
p3722
sS'E0_20_R0_02_R1_22_T_E0'
p3723
S'E0_20_R0_02_R1_22_T_R0'
p3724
sS'E0_20_R0_21_R1_00_T_R0'
p3725
S'E0_20_R0_12_R1_00_T_R1'
p3726
sS'E0_20_R0_21_R1_00_T_R1'
p3727
S'E0_20_R0_21_R1_01_T_E0'
p3728
sS'E0_20_R0_11_R1_22_T_R1'
p3729
S'E0_20_R0_11_R1_11_T_E0'
p3730
sS'E0_20_R0_11_R1_22_T_R0'
p3731
S'E0_20_R0_02_R1_22_T_R1'
p3732
sS'E0_02_R0_20_R1_22_T_E0'
p3733
S'E0_02_R0_20_R1_22_T_R0'
p3734
sS'E0_21_R0_12_R1_21_T_E0'
p3735
S'E0_21_R0_12_R1_21_T_R0'
p3736
sS'E0_02_R0_00_R1_00_T_E0'
p3737
S'E0_02_R0_00_R1_00_T_R0'
p3738
sS'E0_00_R0_12_R1_21_T_R0'
p3739
S'E0_00_R0_22_R1_21_T_R1'
p3740
sS'E0_00_R0_12_R1_02_T_R1'
p3741
S'E0_00_R0_12_R1_02_T_E0'
p3742
sS'E0_22_R0_11_R1_01_T_R0'
p3743
S'E0_22_R0_20_R1_01_T_R1'
p3744
sS'E0_22_R0_11_R1_01_T_R1'
p3745
S'E0_22_R0_11_R1_00_T_E0'
p3746
sa.