c__builtin__
set
p1
((lp2
((S'2'
S'E0_11_R0_11_R1_00_T_E0'
p3
tp4
(S'3'
S'E0_10_R0_11_R1_00_T_R0'
tS'ss1'
p5
tp6
a((S'10'
p7
S'E0_01_R0_11_R1_00_T_R0'
p8
t(g7
S'E0_01_R0_10_R1_00_T_R1'
p9
tS'ss1'
p10
tp11
a((g7
S'E0_01_R0_11_R1_01_T_R1'
p12
t(g7
S'E0_01_R0_11_R1_00_T_E0'
p13
tS'ss1'
p14
tp15
a((S'5'
S'E0_10_R0_00_R1_00_T_R0'
p16
t(S'5'
S'E0_10_R0_00_R1_00_T_R1'
p17
tS'oo0'
p18
tp19
a((S'4'
S'E0_00_R0_10_R1_11_T_R1'
p20
t(S'4'
S'E0_00_R0_10_R1_00_T_E0'
p21
tS'sw1'
p22
tp23
a((S'4'
S'E0_00_R0_00_R1_10_T_E0'
p24
tp25
(S'4'
S'E0_10_R0_00_R1_10_T_R0'
tS'ee1'
p26
tp27
a((S'9'
S'E0_01_R0_11_R1_00_T_R1'
p28
t(S'9'
S'E0_01_R0_11_R1_11_T_E0'
p29
tS'ne1'
p30
tp31
a((S'7'
S'E0_00_R0_10_R1_01_T_R0'
p32
t(S'7'
S'E0_00_R0_10_R1_01_T_R1'
p33
tg18
tp34
a((S'2'
S'E0_10_R0_01_R1_01_T_R0'
p35
t(S'2'
S'E0_10_R0_00_R1_01_T_R1'
p36
tg10
tp37
a((S'4'
S'E0_01_R0_00_R1_00_T_R1'
p38
t(S'4'
S'E0_01_R0_00_R1_10_T_E0'
p39
tS'ee1'
p40
tp41
a((S'5'
S'E0_10_R0_00_R1_10_T_E0'
p42
tp43
(S'5'
S'E0_10_R0_00_R1_10_T_R0'
tS'oo0'
p44
tp45
a((S'4'
S'E0_11_R0_10_R1_11_T_R0'
p46
t(S'4'
S'E0_11_R0_01_R1_11_T_R1'
p47
tS'nw1'
p48
tp49
a((S'8'
S'E0_00_R0_01_R1_10_T_R1'
p50
t(S'8'
S'E0_00_R0_01_R1_11_T_E0'
p51
tS'nn1'
p52
tp53
a(g43
(S'4'
S'E0_00_R0_00_R1_10_T_R0'
tS'ww1'
p54
tp55
a((S'9'
S'E0_01_R0_01_R1_11_T_R0'
p56
t(S'9'
S'E0_01_R0_01_R1_11_T_R1'
p57
tg18
tp58
a((S'3'
S'E0_10_R0_11_R1_01_T_R1'
p59
t(S'3'
S'E0_10_R0_11_R1_00_T_E0'
p60
tg14
tp61
a((S'2'
S'E0_10_R0_10_R1_01_T_R0'
p62
t(S'2'
S'E0_10_R0_00_R1_01_T_R1'
p63
tS'ww1'
p64
tp65
a((S'2'
S'E0_00_R0_01_R1_01_T_R0'
p66
t(S'2'
S'E0_00_R0_10_R1_01_T_R1'
p67
tS'se1'
p68
tp69
a((S'6'
S'E0_11_R0_10_R1_01_T_R0'
p70
t(S'6'
S'E0_11_R0_10_R1_01_T_R1'
p71
tg18
tp72
a((S'2'
S'E0_11_R0_11_R1_01_T_R0'
p73
t(S'2'
S'E0_11_R0_01_R1_01_T_R1'
p74
tg64
tp75
a((S'2'
S'E0_00_R0_11_R1_10_T_R1'
p76
t(S'2'
S'E0_00_R0_11_R1_01_T_E0'
p77
tS'nw1'
p78
tp79
a((S'2'
S'E0_10_R0_01_R1_00_T_R1'
p80
t(S'2'
S'E0_10_R0_01_R1_10_T_E0'
p81
tg40
tp82
a((g7
S'E0_01_R0_01_R1_01_T_R0'
p83
t(g7
S'E0_01_R0_10_R1_01_T_R1'
p84
tg68
tp85
a((S'5'
S'E0_10_R0_10_R1_10_T_R0'
p86
t(S'5'
S'E0_10_R0_11_R1_10_T_R1'
p87
tS'nn1'
p88
tp89
a((S'5'
S'E0_10_R0_00_R1_01_T_R1'
p90
t(S'5'
S'E0_10_R0_00_R1_10_T_E0'
p91
tS'se1'
p92
tp93
a((S'3'
S'E0_00_R0_01_R1_00_T_R1'
p94
t(S'3'
S'E0_00_R0_01_R1_00_T_E0'
p95
tS'oo0'
p96
tp97
a((S'3'
S'E0_10_R0_01_R1_01_T_R1'
p98
t(S'3'
S'E0_10_R0_01_R1_00_T_E0'
p99
tg14
tp100
a((S'2'
g90
t(S'2'
g91
tg92
tp101
a((S'4'
S'E0_10_R0_10_R1_00_T_R1'
p102
t(S'4'
S'E0_10_R0_10_R1_00_T_E0'
p103
tg96
tp104
a((S'2'
S'E0_00_R0_11_R1_00_T_R0'
p105
t(S'2'
S'E0_00_R0_10_R1_00_T_R1'
p106
tg10
tp107
a((S'8'
S'E0_00_R0_00_R1_01_T_R0'
p108
t(S'8'
S'E0_00_R0_11_R1_01_T_R1'
p109
tS'ne1'
p110
tp111
a((S'4'
g102
t(S'4'
S'E0_10_R0_10_R1_11_T_E0'
p112
tg30
tp113
a((g7
g8
t(g7
S'E0_01_R0_01_R1_00_T_R1'
p114
tg64
tp115
a((S'9'
g83
t(S'9'
S'E0_01_R0_01_R1_01_T_R1'
p116
tg18
tp117
a((S'8'
g20
t(S'8'
g21
tg22
tp118
a((S'7'
S'E0_00_R0_00_R1_10_T_R1'
p119
t(S'7'
S'E0_00_R0_00_R1_11_T_E0'
p120
tg52
tp121
a((S'4'
g94
t(S'4'
S'E0_00_R0_01_R1_01_T_E0'
p122
tg52
tp123
a((S'8'
S'E0_00_R0_11_R1_10_T_R0'
p124
t(S'8'
S'E0_00_R0_11_R1_10_T_R1'
p125
tg18
tp126
a((S'6'
S'E0_11_R0_11_R1_01_T_R1'
p127
t(S'6'
S'E0_11_R0_11_R1_01_T_E0'
p128
tg96
tp129
a((S'9'
S'E0_11_R0_00_R1_11_T_R1'
p130
t(S'9'
S'E0_11_R0_00_R1_00_T_E0'
p131
tg22
tp132
a((S'2'
S'E0_00_R0_10_R1_01_T_R1'
p133
t(S'2'
S'E0_00_R0_10_R1_01_T_E0'
p134
tg96
tp135
a((S'2'
S'E0_01_R0_11_R1_11_T_E0'
p136
tp137
(S'3'
S'E0_00_R0_11_R1_11_T_R0'
tg5
tp138
a((S'9'
S'E0_01_R0_01_R1_11_T_R1'
p139
t(S'9'
S'E0_01_R0_01_R1_01_T_E0'
p140
tS'ww1'
p141
tp142
a((S'3'
S'E0_10_R0_01_R1_01_T_E0'
p143
tp144
(S'3'
S'E0_10_R0_01_R1_01_T_R0'
tg44
tp145
a((S'4'
S'E0_00_R0_10_R1_11_T_E0'
p146
tp147
(S'4'
S'E0_00_R0_10_R1_11_T_R0'
tg44
tp148
a((S'4'
S'E0_11_R0_11_R1_11_T_R0'
p149
t(S'4'
S'E0_11_R0_10_R1_11_T_R1'
p150
tg10
tp151
a((S'4'
g90
t(S'4'
S'E0_10_R0_00_R1_01_T_E0'
p152
tg96
tp153
a((S'2'
S'E0_00_R0_11_R1_10_T_E0'
p154
tp155
(S'5'
S'E0_10_R0_11_R1_10_T_R0'
tg26
tp156
a((S'7'
g32
t(S'7'
S'E0_00_R0_00_R1_01_T_R1'
p157
tg64
tp158
a((S'2'
g38
t(S'2'
S'E0_01_R0_00_R1_01_T_E0'
p159
tg52
tp160
a((S'4'
S'E0_11_R0_11_R1_00_T_R1'
p161
t(S'4'
S'E0_11_R0_11_R1_01_T_E0'
p162
tg52
tp163
a((S'5'
S'E0_10_R0_01_R1_00_T_R0'
p164
t(S'5'
S'E0_10_R0_00_R1_00_T_R1'
p165
tg10
tp166
a((S'2'
S'E0_11_R0_10_R1_11_T_E0'
p167
tp168
(S'8'
S'E0_00_R0_10_R1_11_T_R0'
tS'sw1'
p169
tp170
a((S'2'
S'E0_01_R0_10_R1_11_T_E0'
p171
tp172
(S'2'
S'E0_01_R0_10_R1_11_T_R0'
tg44
tp173
a((S'5'
S'E0_11_R0_00_R1_01_T_R1'
p174
t(S'5'
S'E0_11_R0_00_R1_00_T_E0'
p175
tg14
tp176
a((S'3'
g124
t(S'3'
S'E0_00_R0_00_R1_10_T_R1'
p177
tS'sw1'
p178
tp179
a((S'2'
g56
t(S'2'
S'E0_01_R0_11_R1_11_T_R1'
p180
tS'ee1'
p181
tp182
a((S'3'
S'E0_00_R0_10_R1_00_T_R1'
p183
t(S'3'
S'E0_00_R0_10_R1_11_T_E0'
p184
tg30
tp185
a((S'5'
S'E0_11_R0_01_R1_11_T_R0'
p186
t(S'5'
S'E0_11_R0_10_R1_11_T_R1'
p187
tg68
tp188
a((S'2'
S'E0_10_R0_00_R1_11_T_R0'
p189
t(S'2'
S'E0_10_R0_01_R1_11_T_R1'
p190
tg88
tp191
a((S'4'
S'E0_10_R0_11_R1_00_T_E0'
p192
tp193
(S'4'
S'E0_00_R0_11_R1_00_T_R0'
tg54
tp194
a((S'4'
g35
t(S'4'
g36
tg10
tp195
a((S'7'
S'E0_00_R0_01_R1_10_T_R0'
p196
t(S'7'
S'E0_00_R0_00_R1_10_T_R1'
p197
tg10
tp198
a((S'2'
S'E0_01_R0_10_R1_01_T_R1'
p199
t(S'2'
S'E0_01_R0_10_R1_11_T_E0'
p200
tg40
tp201
a((S'1'
g189
t(S'1'
S'E0_10_R0_11_R1_11_T_R1'
p202
tg110
tp203
a((S'1'
S'E0_10_R0_11_R1_11_T_R0'
p204
t(S'1'
S'E0_10_R0_00_R1_11_T_R1'
p205
tg178
tp206
a((S'2'
S'E0_01_R0_00_R1_00_T_R0'
p207
t(S'2'
S'E0_01_R0_11_R1_00_T_R1'
p208
tg110
tp209
a((S'7'
S'E0_00_R0_10_R1_01_T_E0'
p210
tp211
(S'4'
S'E0_10_R0_10_R1_01_T_R0'
tg26
tp212
a((S'9'
S'E0_11_R0_11_R1_10_T_R1'
p213
t(S'9'
S'E0_11_R0_11_R1_10_T_E0'
p214
tg96
tp215
a((S'4'
S'E0_00_R0_10_R1_11_T_R0'
p216
t(S'4'
S'E0_00_R0_11_R1_11_T_R1'
p217
tg88
tp218
a((g7
g199
t(g7
S'E0_01_R0_10_R1_00_T_E0'
p219
tg14
tp220
a((S'2'
S'E0_10_R0_10_R1_11_T_R1'
p221
t(S'2'
S'E0_10_R0_10_R1_10_T_E0'
p222
tg14
tp223
a((S'3'
S'E0_00_R0_11_R1_01_T_R1'
p224
t(S'3'
S'E0_00_R0_11_R1_10_T_E0'
p225
tg92
tp226
a((S'7'
g183
t(S'7'
S'E0_00_R0_10_R1_00_T_E0'
p227
tg96
tp228
a((S'2'
S'E0_10_R0_11_R1_01_T_E0'
p229
tp230
(g7
S'E0_01_R0_11_R1_01_T_R0'
tS'nw1'
p231
tp232
a((S'2'
g105
t(S'2'
S'E0_00_R0_01_R1_00_T_R1'
p233
tg64
tp234
a((S'7'
S'E0_01_R0_01_R1_10_T_R0'
p235
t(S'7'
S'E0_01_R0_11_R1_10_T_R1'
p236
tg181
tp237
a((S'7'
g56
t(S'7'
S'E0_01_R0_10_R1_11_T_R1'
p238
tg68
tp239
a((S'4'
S'E0_00_R0_11_R1_11_T_R1'
p240
t(S'4'
S'E0_00_R0_11_R1_01_T_E0'
p241
tg141
tp242
a((S'2'
g108
t(S'2'
S'E0_00_R0_01_R1_01_T_R1'
p243
tg88
tp244
a((g7
S'E0_01_R0_10_R1_01_T_R0'
p245
t(g7
S'E0_01_R0_11_R1_01_T_R1'
p246
tg88
tp247
a((S'8'
S'E0_00_R0_01_R1_01_T_R1'
p248
t(S'8'
S'E0_00_R0_01_R1_10_T_E0'
p249
tg92
tp250
a((S'9'
g73
t(S'9'
S'E0_11_R0_00_R1_01_T_R1'
p251
tg178
tp252
a((S'8'
S'E0_00_R0_11_R1_11_T_R0'
p253
t(S'8'
S'E0_00_R0_01_R1_11_T_R1'
p254
tg64
tp255
a((S'6'
S'E0_11_R0_01_R1_10_T_E0'
p256
tp257
(S'6'
S'E0_11_R0_01_R1_10_T_R0'
tg44
tp258
a((S'8'
g105
t(S'8'
S'E0_00_R0_00_R1_00_T_R1'
p259
tg178
tp260
a((S'5'
g16
t(S'5'
S'E0_10_R0_11_R1_00_T_R1'
p261
tg110
tp262
a((S'5'
g80
t(S'5'
S'E0_10_R0_01_R1_01_T_E0'
p263
tg52
tp264
a((S'2'
S'E0_10_R0_10_R1_11_T_R0'
p265
t(S'2'
S'E0_10_R0_00_R1_11_T_R1'
p266
tg64
tp267
a((S'7'
g240
t(S'7'
S'E0_00_R0_11_R1_11_T_E0'
p268
tg96
tp269
a((S'1'
S'E0_10_R0_01_R1_10_T_E0'
p270
tp271
(S'1'
S'E0_10_R0_01_R1_10_T_R0'
tg44
tp272
a((S'2'
S'E0_11_R0_01_R1_11_T_R1'
p273
t(S'2'
S'E0_11_R0_01_R1_10_T_E0'
p274
tg14
tp275
a((S'8'
g76
t(S'8'
S'E0_00_R0_11_R1_00_T_E0'
p276
tg141
tp277
a((S'2'
S'E0_10_R0_10_R1_01_T_E0'
p278
tp279
(S'9'
S'E0_11_R0_10_R1_01_T_R0'
tS'nn1'
p280
tp281
a((S'8'
g253
t(S'8'
S'E0_00_R0_00_R1_11_T_R1'
p282
tg178
tp283
a((S'8'
S'E0_00_R0_00_R1_11_T_R1'
p284
t(S'8'
S'E0_00_R0_00_R1_10_T_E0'
p285
tg14
tp286
a((S'3'
S'E0_00_R0_00_R1_11_T_R0'
p287
t(S'3'
S'E0_00_R0_10_R1_11_T_R1'
p288
tg181
tp289
a((S'2'
S'E0_01_R0_00_R1_11_T_R1'
p290
t(S'2'
S'E0_01_R0_00_R1_00_T_E0'
p291
tg22
tp292
a((S'4'
S'E0_11_R0_10_R1_00_T_R0'
p293
t(S'4'
S'E0_11_R0_11_R1_00_T_R1'
p294
tg88
tp295
a((S'9'
S'E0_11_R0_01_R1_00_T_R1'
p296
t(S'9'
S'E0_11_R0_01_R1_01_T_E0'
p297
tg52
tp298
a((S'2'
g35
t(S'2'
S'E0_10_R0_01_R1_01_T_R1'
p299
tg18
tp300
a((S'2'
S'E0_01_R0_10_R1_00_T_R0'
p301
t(S'2'
S'E0_01_R0_00_R1_00_T_R1'
p302
tg64
tp303
a((S'5'
S'E0_11_R0_11_R1_11_T_R1'
p304
t(S'5'
S'E0_11_R0_11_R1_11_T_E0'
p305
tg96
tp306
a((S'3'
S'E0_00_R0_11_R1_01_T_R0'
p307
t(S'3'
S'E0_00_R0_00_R1_01_T_R1'
p308
tg178
tp309
a((S'4'
S'E0_11_R0_00_R1_01_T_R0'
p310
t(S'4'
S'E0_11_R0_00_R1_01_T_R1'
p311
tg18
tp312
a((S'2'
S'E0_00_R0_11_R1_11_T_E0'
p313
tp314
(S'9'
S'E0_01_R0_11_R1_11_T_R0'
tg280
tp315
a((S'9'
g83
t(S'9'
S'E0_01_R0_11_R1_01_T_R1'
p316
tg181
tp317
a((S'3'
g284
t(S'3'
S'E0_00_R0_00_R1_11_T_E0'
p318
tg96
tp319
a((S'1'
S'E0_10_R0_00_R1_11_T_E0'
p320
tp321
(S'1'
S'E0_10_R0_00_R1_11_T_R0'
tg44
tp322
a((S'9'
g290
t(S'9'
g291
tg22
tp323
a((g7
g28
t(g7
S'E0_01_R0_11_R1_00_T_E0'
p324
tg96
tp325
a((S'4'
S'E0_00_R0_01_R1_00_T_E0'
p326
tp327
(S'4'
S'E0_00_R0_01_R1_00_T_R0'
tg44
tp328
a((S'2'
S'E0_00_R0_01_R1_11_T_R0'
p329
t(S'2'
S'E0_00_R0_11_R1_11_T_R1'
p330
tg181
tp331
a((S'2'
S'E0_00_R0_01_R1_10_T_E0'
p332
tp333
(S'6'
S'E0_11_R0_01_R1_10_T_R0'
tS'ne1'
p334
tp335
a((S'3'
S'E0_10_R0_11_R1_10_T_R1'
p336
t(S'3'
S'E0_10_R0_11_R1_01_T_E0'
p337
tg78
tp338
a((S'4'
g139
t(S'4'
g140
tg141
tp339
a(g155
(S'6'
S'E0_11_R0_11_R1_10_T_R0'
tg334
tp340
a((S'2'
g76
t(S'2'
S'E0_00_R0_11_R1_11_T_E0'
p341
tg52
tp342
a((S'4'
S'E0_11_R0_00_R1_11_T_R0'
p343
t(S'4'
S'E0_11_R0_10_R1_11_T_R1'
p344
tg181
tp345
a((S'3'
g221
t(S'3'
S'E0_10_R0_10_R1_11_T_E0'
p346
tg96
tp347
a((S'9'
S'E0_01_R0_01_R1_00_T_E0'
p348
tp349
(S'9'
S'E0_01_R0_01_R1_00_T_R0'
tg44
tp350
a((S'6'
S'E0_11_R0_00_R1_00_T_R1'
p351
t(S'6'
S'E0_11_R0_00_R1_10_T_E0'
p352
tg40
tp353
a((S'7'
S'E0_01_R0_11_R1_10_T_R0'
p354
t(S'7'
S'E0_01_R0_00_R1_10_T_R1'
p355
tg178
tp356
a((S'4'
S'E0_11_R0_01_R1_10_T_R1'
p357
t(S'4'
S'E0_11_R0_01_R1_10_T_E0'
p358
tg96
tp359
a((S'6'
S'E0_11_R0_00_R1_00_T_R0'
p360
t(S'6'
S'E0_11_R0_00_R1_00_T_R1'
p361
tg18
tp362
a((S'7'
S'E0_01_R0_01_R1_10_T_R1'
p363
t(S'7'
S'E0_01_R0_01_R1_01_T_E0'
p364
tg78
tp365
a((S'4'
S'E0_10_R0_00_R1_01_T_R0'
p366
t(S'4'
S'E0_10_R0_10_R1_01_T_R1'
p367
tg181
tp368
a((S'4'
S'E0_10_R0_11_R1_10_T_R0'
p369
t(S'4'
S'E0_10_R0_11_R1_10_T_R1'
p370
tg18
tp371
a((S'1'
S'E0_10_R0_01_R1_11_T_R0'
p372
t(S'1'
S'E0_10_R0_01_R1_11_T_R1'
p373
tg18
tp374
a((S'2'
g354
t(S'2'
S'E0_01_R0_10_R1_10_T_R1'
p375
tg10
tp376
a((S'2'
g86
t(S'2'
S'E0_10_R0_10_R1_10_T_R1'
p377
tg18
tp378
a((S'2'
g196
t(S'2'
S'E0_00_R0_10_R1_10_T_R1'
p379
tg68
tp380
a((S'2'
S'E0_10_R0_00_R1_10_T_R0'
p381
t(S'2'
S'E0_10_R0_00_R1_10_T_R1'
p382
tg18
tp383
a((S'5'
S'E0_11_R0_01_R1_10_T_R0'
p384
t(S'5'
S'E0_11_R0_00_R1_10_T_R1'
p385
tg10
tp386
a((S'2'
S'E0_10_R0_10_R1_10_T_R1'
p387
t(S'2'
S'E0_10_R0_10_R1_01_T_E0'
p388
tg78
tp389
a((S'9'
S'E0_01_R0_11_R1_11_T_R0'
p390
t(S'9'
S'E0_01_R0_11_R1_11_T_R1'
p391
tg18
tp392
a((S'7'
S'E0_01_R0_01_R1_11_T_E0'
p393
tp394
(S'7'
S'E0_01_R0_01_R1_11_T_R0'
tg44
tp395
a((S'7'
S'E0_00_R0_01_R1_11_T_R1'
p396
t(S'7'
S'E0_00_R0_01_R1_01_T_E0'
p397
tg141
tp398
a(g137
(S'1'
S'E0_10_R0_11_R1_11_T_R0'
tS'se1'
p399
tp400
a((S'7'
g24
tp401
(S'7'
S'E0_00_R0_00_R1_10_T_R0'
tg44
tp402
a((S'9'
g273
t(S'9'
S'E0_11_R0_01_R1_01_T_E0'
p403
tg141
tp404
a((S'5'
g86
t(S'5'
S'E0_10_R0_01_R1_10_T_R1'
p405
tg48
tp406
a((S'3'
g287
t(S'3'
S'E0_00_R0_01_R1_11_T_R1'
p407
tg88
tp408
a((S'4'
S'E0_10_R0_01_R1_11_T_R1'
p409
t(S'4'
S'E0_10_R0_01_R1_10_T_E0'
p410
tg14
tp411
a((S'8'
g224
t(S'8'
S'E0_00_R0_11_R1_00_T_E0'
p412
tg14
tp413
a((S'2'
S'E0_01_R0_01_R1_10_T_E0'
p414
tp415
(S'2'
S'E0_01_R0_01_R1_10_T_R0'
tg44
tp416
a((S'4'
g265
t(S'4'
S'E0_10_R0_10_R1_11_T_R1'
p417
tg18
tp418
a((S'3'
S'E0_00_R0_10_R1_10_T_R1'
p419
t(S'3'
S'E0_00_R0_10_R1_11_T_E0'
p420
tg52
tp421
a((S'5'
g149
t(S'5'
g150
tg10
tp422
a((S'4'
S'E0_10_R0_11_R1_11_T_R1'
p423
t(S'4'
S'E0_10_R0_11_R1_11_T_E0'
p424
tg96
tp425
a((S'2'
g12
t(S'2'
g13
tg14
tp426
a((S'9'
g304
t(S'9'
S'E0_11_R0_11_R1_01_T_E0'
p427
tg141
tp428
a((S'3'
g409
t(S'3'
S'E0_10_R0_01_R1_00_T_E0'
p429
tg22
tp430
a((S'5'
g304
t(S'5'
S'E0_11_R0_11_R1_10_T_E0'
p431
tg14
tp432
a((S'5'
g90
t(S'5'
g152
tg96
tp433
a((S'6'
S'E0_11_R0_11_R1_10_T_R0'
p434
t(S'6'
S'E0_11_R0_01_R1_10_T_R1'
p435
tg64
tp436
a((S'4'
g381
t(S'4'
g382
tg18
tp437
a((S'5'
g351
t(S'5'
g352
tg40
tp438
a((S'4'
g210
tp439
(S'4'
S'E0_00_R0_10_R1_01_T_R0'
tg44
tp440
a((S'9'
S'E0_11_R0_00_R1_01_T_E0'
p441
tp442
(S'9'
S'E0_11_R0_00_R1_01_T_R0'
tg44
tp443
a((S'5'
g265
t(S'5'
S'E0_10_R0_01_R1_11_T_R1'
p444
tg48
tp445
a((S'2'
g363
t(S'2'
S'E0_01_R0_01_R1_10_T_E0'
p446
tg96
tp447
a((S'8'
g196
t(S'8'
g197
tg10
tp448
a((S'4'
g70
t(S'4'
S'E0_11_R0_11_R1_01_T_R1'
p449
tg88
tp450
a((S'3'
g119
t(S'3'
g120
tg52
tp451
a((S'4'
S'E0_11_R0_10_R1_10_T_R0'
p452
t(S'4'
S'E0_11_R0_10_R1_10_T_R1'
p453
tg18
tp454
a((g7
g390
t(g7
S'E0_01_R0_00_R1_11_T_R1'
p455
tg178
tp456
a((S'6'
g186
t(S'6'
S'E0_11_R0_01_R1_11_T_R1'
p457
tg18
tp458
a((S'4'
S'E0_11_R0_10_R1_10_T_R1'
p459
t(S'4'
S'E0_11_R0_10_R1_11_T_E0'
p460
tg52
tp461
a((S'5'
g204
t(S'5'
g205
tg178
tp462
a((S'2'
g16
t(S'2'
g17
tg18
tp463
a((S'6'
g273
t(S'6'
S'E0_11_R0_01_R1_11_T_E0'
p464
tg96
tp465
a((S'5'
g204
t(S'5'
S'E0_10_R0_10_R1_11_T_R1'
p466
tg10
tp467
a((S'2'
S'E0_01_R0_00_R1_01_T_E0'
p468
tp469
(S'5'
S'E0_11_R0_00_R1_01_T_R0'
tg26
tp470
a((S'4'
S'E0_11_R0_01_R1_11_T_E0'
p471
tp472
(S'4'
S'E0_11_R0_01_R1_11_T_R0'
tg44
tp473
a((S'8'
g224
t(S'8'
S'E0_00_R0_11_R1_01_T_E0'
p474
tg96
tp475
a((S'4'
S'E0_11_R0_01_R1_10_T_E0'
p476
tp477
(S'4'
S'E0_01_R0_01_R1_10_T_R0'
tg54
tp478
a((S'4'
S'E0_00_R0_11_R1_10_T_E0'
p479
tp480
(S'4'
S'E0_00_R0_11_R1_10_T_R0'
tg44
tp481
a((S'2'
g133
t(S'2'
S'E0_00_R0_10_R1_10_T_E0'
p482
tg92
tp483
a((S'3'
S'E0_10_R0_11_R1_00_T_R1'
p484
t(S'3'
S'E0_10_R0_11_R1_00_T_E0'
p485
tg96
tp486
a((S'1'
g387
t(S'1'
g388
tg78
tp487
a((S'1'
S'E0_10_R0_00_R1_01_T_E0'
p488
tp489
(S'1'
S'E0_10_R0_00_R1_01_T_R0'
tg44
tp490
a((S'2'
g423
t(S'2'
g424
tg96
tp491
a((S'1'
g164
t(S'1'
S'E0_10_R0_10_R1_00_T_R1'
p492
tg68
tp493
a((S'4'
S'E0_01_R0_01_R1_00_T_E0'
p494
tp495
(S'4'
S'E0_11_R0_01_R1_00_T_R0'
tg26
tp496
a((S'2'
g351
t(S'2'
S'E0_11_R0_00_R1_00_T_E0'
p497
tg96
tp498
a((S'5'
g161
t(S'5'
S'E0_11_R0_11_R1_00_T_E0'
p499
tg96
tp500
a((S'4'
S'E0_10_R0_10_R1_01_T_R1'
p501
t(S'4'
S'E0_10_R0_10_R1_01_T_E0'
p502
tg96
tp503
a((S'4'
g186
t(S'4'
S'E0_11_R0_11_R1_11_T_R1'
p504
tg181
tp505
a((S'9'
g73
t(S'9'
S'E0_11_R0_11_R1_01_T_R1'
p506
tg18
tp507
a((S'2'
S'E0_11_R0_01_R1_10_T_E0'
p508
tp509
(S'2'
S'E0_11_R0_01_R1_10_T_R0'
tg44
tp510
a((S'2'
S'E0_00_R0_10_R1_10_T_E0'
p511
tp512
(S'9'
S'E0_01_R0_10_R1_10_T_R0'
tg280
tp513
a((S'7'
g196
t(S'7'
S'E0_00_R0_11_R1_10_T_R1'
p514
tg181
tp515
a((S'1'
S'E0_10_R0_00_R1_11_T_R1'
p516
t(S'1'
S'E0_10_R0_00_R1_10_T_E0'
p517
tg14
tp518
a(g168
(S'3'
S'E0_10_R0_10_R1_11_T_R0'
tg5
tp519
a((S'3'
g20
t(S'3'
g21
tg22
tp520
a((S'3'
S'E0_00_R0_00_R1_00_T_R1'
p521
t(S'3'
S'E0_00_R0_00_R1_11_T_E0'
p522
tg30
tp523
a((S'2'
S'E0_11_R0_10_R1_10_T_E0'
p524
tp525
(S'2'
S'E0_11_R0_10_R1_10_T_R0'
tg44
tp526
a((S'8'
g419
t(S'8'
S'E0_00_R0_10_R1_00_T_E0'
p527
tg141
tp528
a((S'6'
g434
t(S'6'
S'E0_11_R0_10_R1_10_T_R1'
p529
tg10
tp530
a((S'4'
g119
t(S'4'
S'E0_00_R0_00_R1_10_T_E0'
p531
tg96
tp532
a((S'4'
g46
t(S'4'
S'E0_11_R0_11_R1_11_T_R1'
p533
tg88
tp534
a((S'2'
S'E0_11_R0_00_R1_10_T_E0'
p535
tp536
(S'2'
S'E0_11_R0_00_R1_10_T_R0'
tg44
tp537
a((S'9'
g363
t(S'9'
g446
tg96
tp538
a((S'9'
S'E0_01_R0_10_R1_11_T_R1'
p539
t(S'9'
S'E0_01_R0_10_R1_11_T_E0'
p540
tg96
tp541
a((S'4'
S'E0_01_R0_10_R1_10_T_R0'
p542
t(S'4'
S'E0_01_R0_01_R1_10_T_R1'
p543
tg48
tp544
a((S'3'
g108
t(S'3'
S'E0_00_R0_10_R1_01_T_R1'
p545
tg181
tp546
a((S'2'
g196
t(S'2'
S'E0_00_R0_01_R1_10_T_R1'
p547
tg18
tp548
a((S'3'
g484
t(S'3'
S'E0_10_R0_11_R1_11_T_E0'
p549
tg30
tp550
a((S'3'
g221
t(S'3'
S'E0_10_R0_10_R1_00_T_E0'
p551
tg22
tp552
a((S'3'
g501
t(S'3'
S'E0_10_R0_10_R1_11_T_E0'
p553
tg40
tp554
a((g7
S'E0_01_R0_00_R1_10_T_R0'
p555
t(g7
S'E0_01_R0_11_R1_10_T_R1'
p556
tg110
tp557
a((S'9'
g70
t(S'9'
S'E0_11_R0_01_R1_01_T_R1'
p558
tg48
tp559
a((S'7'
g105
t(S'7'
g259
tg178
tp560
a((S'7'
g28
t(S'7'
S'E0_01_R0_11_R1_10_T_E0'
p561
tg40
tp562
a((S'4'
S'E0_11_R0_11_R1_00_T_R0'
p563
t(S'4'
S'E0_11_R0_11_R1_00_T_R1'
p564
tg18
tp565
a((S'7'
S'E0_01_R0_10_R1_00_T_R1'
p566
t(S'7'
S'E0_01_R0_10_R1_10_T_E0'
p567
tg40
tp568
a((S'6'
g304
t(S'6'
S'E0_11_R0_11_R1_00_T_E0'
p569
tg22
tp570
a((S'7'
S'E0_01_R0_10_R1_00_T_E0'
p571
tp572
(S'7'
S'E0_01_R0_10_R1_00_T_R0'
tg44
tp573
a((S'5'
g369
t(S'5'
S'E0_10_R0_01_R1_10_T_R1'
p574
tg64
tp575
a((S'2'
S'E0_10_R0_11_R1_10_T_E0'
p576
tp577
(S'9'
S'E0_11_R0_11_R1_10_T_R0'
tg280
tp578
a((S'8'
S'E0_00_R0_00_R1_00_T_R0'
p579
t(S'8'
S'E0_00_R0_00_R1_00_T_R1'
p580
tg18
tp581
a((S'5'
S'E0_11_R0_10_R1_00_T_R1'
p582
t(S'5'
S'E0_11_R0_10_R1_00_T_E0'
p583
tg96
tp584
a((S'5'
g16
t(S'5'
S'E0_10_R0_01_R1_00_T_R1'
p585
tg88
tp586
a((S'5'
g149
t(S'5'
S'E0_11_R0_00_R1_11_T_R1'
p587
tg178
tp588
a((g7
S'E0_01_R0_10_R1_00_T_E0'
p589
tp590
(g7
S'E0_01_R0_10_R1_00_T_R0'
tg44
tp591
a((S'7'
g542
t(S'7'
g543
tg48
tp592
a((S'2'
g80
t(S'2'
S'E0_10_R0_01_R1_00_T_E0'
p593
tg96
tp594
a((g7
g245
t(g7
S'E0_01_R0_01_R1_01_T_R1'
p595
tg48
tp596
a((S'2'
S'E0_11_R0_11_R1_10_T_E0'
p597
tp598
(S'7'
S'E0_01_R0_11_R1_10_T_R0'
tg54
tp599
a((S'1'
g189
t(S'1'
S'E0_10_R0_10_R1_11_T_R1'
p600
tg181
tp601
a((S'2'
S'E0_00_R0_01_R1_00_T_R0'
p602
t(S'2'
S'E0_00_R0_00_R1_00_T_R1'
p603
tg10
tp604
a((g7
S'E0_01_R0_00_R1_11_T_R0'
p605
t(g7
S'E0_01_R0_11_R1_11_T_R1'
p606
tg110
tp607
a((S'2'
S'E0_10_R0_00_R1_10_T_E0'
p608
tp609
(S'7'
S'E0_00_R0_00_R1_10_T_R0'
tg54
tp610
a((S'1'
S'E0_10_R0_10_R1_10_T_E0'
p611
tp612
(S'1'
S'E0_10_R0_10_R1_10_T_R0'
tg44
tp613
a((S'2'
S'E0_10_R0_00_R1_10_T_R1'
p614
t(S'2'
S'E0_10_R0_00_R1_01_T_E0'
p615
tg78
tp616
a((S'4'
S'E0_01_R0_00_R1_01_T_E0'
p617
tp618
(S'4'
S'E0_11_R0_00_R1_01_T_R0'
tg26
tp619
a((S'2'
g133
t(S'2'
S'E0_00_R0_10_R1_11_T_E0'
p620
tg40
tp621
a((S'3'
g224
t(S'3'
S'E0_00_R0_11_R1_11_T_E0'
p622
tg40
tp623
a((S'3'
S'E0_00_R0_11_R1_10_T_E0'
p624
tp625
(S'3'
S'E0_00_R0_11_R1_10_T_R0'
tg44
tp626
a((S'5'
S'E0_10_R0_00_R1_01_T_E0'
p627
tp628
(S'4'
S'E0_00_R0_00_R1_01_T_R0'
tg54
tp629
a((S'2'
g296
t(S'2'
g297
tg52
tp630
a((S'2'
S'E0_01_R0_01_R1_00_T_R1'
p631
t(S'2'
S'E0_01_R0_01_R1_00_T_E0'
p632
tg96
tp633
a((S'2'
S'E0_10_R0_01_R1_10_T_R1'
p634
t(S'2'
S'E0_10_R0_01_R1_01_T_E0'
p635
tg78
tp636
a((S'8'
g119
t(S'8'
g120
tg52
tp637
a((S'2'
S'E0_00_R0_10_R1_01_T_E0'
p638
tp639
(S'9'
S'E0_01_R0_10_R1_01_T_R0'
tg280
tp640
a((S'2'
g566
t(S'2'
S'E0_01_R0_10_R1_01_T_E0'
p641
tg52
tp642
a((S'3'
g133
t(S'3'
g482
tg92
tp643
a((S'2'
g521
t(S'2'
S'E0_00_R0_00_R1_00_T_E0'
p644
tg96
tp645
a((S'9'
g459
t(S'9'
S'E0_11_R0_10_R1_00_T_E0'
p646
tg141
tp647
a((S'9'
g542
t(S'9'
g543
tg48
tp648
a((S'9'
S'E0_01_R0_11_R1_01_T_R0'
p649
t(S'9'
S'E0_01_R0_00_R1_01_T_R1'
p650
tg178
tp651
a((S'8'
S'E0_00_R0_01_R1_00_T_E0'
p652
tp653
(S'8'
S'E0_00_R0_01_R1_00_T_R0'
tg44
tp654
a((S'9'
S'E0_01_R0_10_R1_10_T_R1'
p655
t(S'9'
S'E0_01_R0_10_R1_10_T_E0'
p656
tg96
tp657
a((S'3'
g423
t(S'3'
S'E0_10_R0_11_R1_10_T_E0'
p658
tg14
tp659
a((S'2'
g186
t(S'2'
g457
tg18
tp660
a((S'4'
S'E0_11_R0_00_R1_10_T_R0'
p661
t(S'4'
S'E0_11_R0_10_R1_10_T_R1'
p662
tg181
tp663
a((S'2'
g614
t(S'2'
S'E0_10_R0_00_R1_11_T_E0'
p664
tg52
tp665
a((S'5'
g476
tp666
(S'4'
S'E0_01_R0_01_R1_10_T_R0'
tg54
tp667
a((g7
g139
t(g7
g140
tg141
tp668
a((S'7'
g649
t(S'7'
S'E0_01_R0_10_R1_01_T_R1'
p669
tg10
tp670
a((S'7'
g290
t(S'7'
S'E0_01_R0_00_R1_01_T_E0'
p671
tg141
tp672
a((g7
S'E0_01_R0_11_R1_10_T_R1'
p673
t(g7
S'E0_01_R0_11_R1_00_T_E0'
p674
tg141
tp675
a((S'6'
g384
t(S'6'
S'E0_11_R0_10_R1_10_T_R1'
p676
tg68
tp677
a((S'2'
g105
t(S'2'
S'E0_00_R0_11_R1_00_T_R1'
p678
tg18
tp679
a((S'8'
S'E0_00_R0_00_R1_01_T_R1'
p680
t(S'8'
S'E0_00_R0_00_R1_10_T_E0'
p681
tg92
tp682
a((S'4'
S'E0_01_R0_11_R1_00_T_E0'
p683
tp684
(S'4'
S'E0_11_R0_11_R1_00_T_R0'
tg26
tp685
a((S'9'
g563
t(S'9'
S'E0_11_R0_01_R1_00_T_R1'
p686
tg64
tp687
a((S'4'
S'E0_10_R0_10_R1_10_T_E0'
p688
tp689
(S'4'
S'E0_10_R0_10_R1_10_T_R0'
tg44
tp690
a((S'3'
S'E0_00_R0_10_R1_00_T_R0'
p691
t(S'3'
S'E0_00_R0_00_R1_00_T_R1'
p692
tg64
tp693
a((S'2'
S'E0_10_R0_01_R1_01_T_E0'
p694
tp695
(g7
S'E0_01_R0_01_R1_01_T_R0'
tg231
tp696
a((S'2'
S'E0_11_R0_01_R1_00_T_R0'
p697
t(S'2'
S'E0_11_R0_01_R1_00_T_R1'
p698
tg18
tp699
a((S'3'
g224
t(S'3'
g474
tg96
tp700
a((S'2'
g216
t(S'2'
S'E0_00_R0_01_R1_11_T_R1'
p701
tg48
tp702
a((S'2'
g46
t(S'2'
S'E0_11_R0_10_R1_11_T_R1'
p703
tg18
tp704
a((S'7'
S'E0_01_R0_11_R1_11_T_E0'
p705
tp706
(S'4'
S'E0_11_R0_11_R1_11_T_R0'
tg26
tp707
a((S'5'
S'E0_11_R0_10_R1_01_T_E0'
p708
tp709
(S'5'
S'E0_11_R0_10_R1_01_T_R0'
tg44
tp710
a((S'7'
S'E0_01_R0_01_R1_01_T_R1'
p711
t(S'7'
S'E0_01_R0_01_R1_11_T_E0'
p712
tg40
tp713
a((S'9'
g149
t(S'9'
S'E0_11_R0_11_R1_11_T_R1'
p714
tg18
tp715
a((S'5'
g484
t(S'5'
S'E0_10_R0_11_R1_10_T_E0'
p716
tg40
tp717
a((S'8'
g287
t(S'8'
g288
tg181
tp718
a((S'7'
g83
t(S'7'
S'E0_01_R0_00_R1_01_T_R1'
p719
tg10
tp720
a((S'2'
S'E0_00_R0_11_R1_00_T_E0'
p721
tp722
(S'5'
S'E0_10_R0_11_R1_00_T_R0'
tg26
tp723
a((S'3'
S'E0_10_R0_11_R1_00_T_R0'
p724
t(S'3'
S'E0_10_R0_01_R1_00_T_R1'
p725
tg64
tp726
a((S'2'
g199
t(S'2'
g219
tg14
tp727
a((S'4'
g542
t(S'4'
S'E0_01_R0_10_R1_10_T_R1'
p728
tg18
tp729
a((S'5'
g582
t(S'5'
S'E0_11_R0_10_R1_11_T_E0'
p730
tg30
tp731
a((S'2'
g343
t(S'2'
S'E0_11_R0_11_R1_11_T_R1'
p732
tg110
tp733
a((S'8'
g20
t(S'8'
S'E0_00_R0_10_R1_11_T_E0'
p734
tg96
tp735
a(g639
(S'6'
S'E0_11_R0_10_R1_01_T_R0'
tg334
tp736
a((S'2'
S'E0_00_R0_10_R1_10_T_R0'
p737
t(S'2'
S'E0_00_R0_01_R1_10_T_R1'
p738
tg48
tp739
a((S'4'
S'E0_10_R0_01_R1_01_T_E0'
p740
tp741
(S'4'
S'E0_10_R0_01_R1_01_T_R0'
tg44
tp742
a((S'2'
g366
t(S'2'
S'E0_10_R0_00_R1_01_T_R1'
p743
tg18
tp744
a((S'2'
S'E0_00_R0_11_R1_00_T_R1'
p745
t(S'2'
S'E0_00_R0_11_R1_00_T_E0'
p746
tg96
tp747
a((S'4'
g199
t(S'4'
g200
tg40
tp748
a((S'3'
g164
t(S'3'
S'E0_10_R0_11_R1_00_T_R1'
p749
tg181
tp750
a((S'2'
S'E0_10_R0_00_R1_01_T_E0'
p751
tp752
(g7
S'E0_01_R0_00_R1_01_T_R0'
tg231
tp753
a((S'2'
g419
t(S'2'
S'E0_00_R0_10_R1_01_T_E0'
p754
tg78
tp755
a((S'9'
S'E0_01_R0_10_R1_01_T_E0'
p756
tp757
(S'9'
S'E0_01_R0_10_R1_01_T_R0'
tg44
tp758
a((S'4'
S'E0_00_R0_01_R1_01_T_E0'
p759
tp760
(S'4'
S'E0_00_R0_01_R1_01_T_R0'
tg44
tp761
a((S'4'
S'E0_01_R0_01_R1_10_T_E0'
p762
tp763
(S'4'
S'E0_11_R0_01_R1_10_T_R0'
tg26
tp764
a((S'9'
g631
t(S'9'
S'E0_01_R0_01_R1_01_T_E0'
p765
tg52
tp766
a((S'8'
g602
t(S'8'
S'E0_00_R0_01_R1_00_T_R1'
p767
tg18
tp768
a((S'2'
S'E0_01_R0_00_R1_00_T_E0'
p769
tp770
(S'1'
S'E0_10_R0_00_R1_00_T_R0'
tg399
tp771
a((S'4'
S'E0_00_R0_00_R1_10_T_R0'
p772
t(S'4'
S'E0_00_R0_11_R1_10_T_R1'
p773
tg110
tp774
a((S'7'
g133
t(S'7'
S'E0_00_R0_10_R1_00_T_E0'
p775
tg14
tp776
a((S'4'
g614
t(S'4'
g664
tg52
tp777
a((S'4'
S'E0_11_R0_00_R1_01_T_E0'
p778
tp779
(S'4'
S'E0_01_R0_00_R1_01_T_R0'
tg54
tp780
a((S'2'
g183
t(S'2'
g227
tg96
tp781
a((S'6'
S'E0_11_R0_01_R1_01_T_R1'
p782
t(S'6'
S'E0_11_R0_01_R1_10_T_E0'
p783
tg92
tp784
a((S'5'
S'E0_11_R0_11_R1_11_T_E0'
p785
tp786
(S'5'
S'E0_11_R0_11_R1_11_T_R0'
tg44
tp787
a((S'4'
g782
t(S'4'
S'E0_11_R0_01_R1_00_T_E0'
p788
tg14
tp789
a((S'7'
g216
t(S'7'
g217
tg88
tp790
a((S'4'
g207
t(S'4'
S'E0_01_R0_10_R1_00_T_R1'
p791
tg181
tp792
a((S'9'
S'E0_11_R0_01_R1_01_T_E0'
p793
tp794
(S'9'
S'E0_11_R0_01_R1_01_T_R0'
tg44
tp795
a((S'5'
g634
t(S'5'
g635
tg78
tp796
a((S'6'
g459
t(S'6'
S'E0_11_R0_10_R1_10_T_E0'
p797
tg96
tp798
a((S'6'
g73
t(S'6'
g251
tg178
tp799
a(g279
(g7
S'E0_01_R0_10_R1_01_T_R0'
tg231
tp800
a((S'9'
g83
t(S'9'
g719
tg10
tp801
a((S'4'
S'E0_01_R0_00_R1_00_T_E0'
p802
tp803
(S'4'
S'E0_11_R0_00_R1_00_T_R0'
tg26
tp804
a((g7
g28
t(g7
g561
tg40
tp805
a((S'2'
S'E0_10_R0_00_R1_11_T_E0'
p806
tp807
(S'2'
S'E0_10_R0_00_R1_11_T_R0'
tg44
tp808
a((S'4'
g705
tp809
(S'4'
S'E0_01_R0_11_R1_11_T_R0'
tg44
tp810
a((S'2'
S'E0_01_R0_01_R1_11_T_E0'
p811
tp812
(S'2'
S'E0_01_R0_01_R1_11_T_R0'
tg44
tp813
a((S'4'
g329
t(S'4'
S'E0_00_R0_10_R1_11_T_R1'
p814
tg68
tp815
a((S'3'
g16
t(S'3'
S'E0_10_R0_10_R1_00_T_R1'
p816
tg181
tp817
a((S'2'
g343
t(S'2'
S'E0_11_R0_00_R1_11_T_R1'
p818
tg18
tp819
a((S'1'
g265
t(S'1'
S'E0_10_R0_11_R1_11_T_R1'
p820
tg88
tp821
a((S'4'
g419
t(S'4'
S'E0_00_R0_10_R1_10_T_E0'
p822
tg96
tp823
a((S'3'
g336
t(S'3'
S'E0_10_R0_11_R1_11_T_E0'
p824
tg52
tp825
a(g709
(S'4'
S'E0_01_R0_10_R1_01_T_R0'
tg54
tp826
a((S'6'
g351
t(S'6'
S'E0_11_R0_00_R1_01_T_E0'
p827
tg52
tp828
a((S'4'
g56
t(S'4'
S'E0_01_R0_00_R1_11_T_R1'
p829
tg10
tp830
a((S'9'
g384
t(S'9'
g385
tg10
tp831
a((S'9'
g357
t(S'9'
S'E0_11_R0_01_R1_11_T_E0'
p832
tg52
tp833
a((S'4'
g772
t(S'4'
S'E0_00_R0_00_R1_10_T_R1'
p834
tg18
tp835
a((S'4'
g130
t(S'4'
S'E0_11_R0_00_R1_10_T_E0'
p836
tg14
tp837
a((S'2'
g287
t(S'2'
g288
tg181
tp838
a((S'1'
g381
t(S'1'
S'E0_10_R0_10_R1_10_T_R1'
p839
tg181
tp840
a((S'2'
g8
t(S'2'
S'E0_01_R0_11_R1_00_T_R1'
p841
tg18
tp842
a((S'4'
S'E0_01_R0_00_R1_10_T_E0'
p843
tp844
(S'4'
S'E0_11_R0_00_R1_10_T_R0'
tg26
tp845
a((S'4'
g105
t(S'4'
g106
tg10
tp846
a((S'6'
S'E0_11_R0_00_R1_00_T_E0'
p847
tp848
(S'6'
S'E0_11_R0_00_R1_00_T_R0'
tg44
tp849
a((S'3'
g634
t(S'3'
S'E0_10_R0_01_R1_10_T_E0'
p850
tg96
tp851
a((S'4'
g563
t(S'4'
S'E0_11_R0_00_R1_00_T_R1'
p852
tg178
tp853
a((S'5'
g70
t(S'5'
g71
tg18
tp854
a((S'2'
g83
t(S'2'
g84
tg68
tp855
a((S'9'
S'E0_11_R0_00_R1_11_T_E0'
p856
tp857
(S'9'
S'E0_11_R0_00_R1_11_T_R0'
tg44
tp858
a((S'5'
g661
t(S'5'
S'E0_11_R0_01_R1_10_T_R1'
p859
tg88
tp860
a((S'7'
g555
t(S'7'
g556
tg110
tp861
a((S'2'
S'E0_01_R0_00_R1_11_T_E0'
p862
tp863
(S'2'
S'E0_01_R0_00_R1_11_T_R0'
tg44
tp864
a((S'5'
S'E0_11_R0_11_R1_10_T_E0'
p865
tp866
(S'5'
S'E0_11_R0_11_R1_10_T_R0'
tg44
tp867
a((S'2'
g649
t(S'2'
g650
tg178
tp868
a((S'4'
g284
t(S'4'
g318
tg96
tp869
a((S'4'
S'E0_11_R0_00_R1_10_T_E0'
p870
tp871
(S'4'
S'E0_11_R0_00_R1_10_T_R0'
tg44
tp872
a((S'5'
S'E0_10_R0_00_R1_11_T_E0'
p873
tp874
(S'4'
S'E0_00_R0_00_R1_11_T_R0'
tg54
tp875
a((g7
S'E0_01_R0_10_R1_11_T_R0'
p876
t(g7
S'E0_01_R0_01_R1_11_T_R1'
p877
tg48
tp878
a((S'4'
g50
t(S'4'
S'E0_00_R0_01_R1_00_T_E0'
p879
tg141
tp880
a((S'6'
g127
t(S'6'
S'E0_11_R0_11_R1_00_T_E0'
p881
tg14
tp882
a(g866
(S'4'
S'E0_01_R0_11_R1_10_T_R0'
tg54
tp883
a((S'9'
g357
t(S'9'
S'E0_11_R0_01_R1_01_T_E0'
p884
tg78
tp885
a((S'3'
g691
t(S'3'
S'E0_00_R0_11_R1_00_T_R1'
p886
tg88
tp887
a((S'4'
g631
t(S'4'
S'E0_01_R0_01_R1_11_T_E0'
p888
tg30
tp889
a((S'3'
S'E0_00_R0_01_R1_00_T_E0'
p890
tp891
(S'3'
S'E0_00_R0_01_R1_00_T_R0'
tg44
tp892
a((S'7'
g133
t(S'7'
g482
tg92
tp893
a((g7
g542
t(g7
S'E0_01_R0_11_R1_10_T_R1'
p894
tg88
tp895
a((S'3'
S'E0_10_R0_11_R1_01_T_E0'
p896
tp897
(S'3'
S'E0_10_R0_11_R1_01_T_R0'
tg44
tp898
a((S'2'
g691
t(S'2'
g886
tg88
tp899
a((g7
S'E0_01_R0_11_R1_11_T_R1'
p900
t(g7
S'E0_01_R0_11_R1_10_T_E0'
p901
tg14
tp902
a((S'1'
g336
t(S'1'
S'E0_10_R0_11_R1_00_T_E0'
p903
tg141
tp904
a((S'4'
g354
t(S'4'
g355
tg178
tp905
a((S'2'
g287
t(S'2'
g407
tg88
tp906
a((S'5'
g563
t(S'5'
g852
tg178
tp907
a((S'8'
g772
t(S'8'
S'E0_00_R0_01_R1_10_T_R1'
p908
tg88
tp909
a((S'7'
g32
t(S'7'
S'E0_00_R0_01_R1_01_T_R1'
p910
tg48
tp911
a((S'2'
g605
t(S'2'
g606
tg110
tp912
a((S'3'
g76
t(S'3'
g276
tg141
tp913
a((S'7'
S'E0_01_R0_10_R1_11_T_E0'
p914
tp915
(S'7'
S'E0_01_R0_10_R1_11_T_R0'
tg44
tp916
a((S'1'
g204
t(S'1'
g466
tg10
tp917
a((S'9'
g174
t(S'9'
S'E0_11_R0_00_R1_11_T_E0'
p918
tg40
tp919
a((S'4'
g108
t(S'4'
S'E0_00_R0_00_R1_01_T_R1'
p920
tg18
tp921
a((S'4'
g737
t(S'4'
S'E0_00_R0_00_R1_10_T_R1'
p922
tg64
tp923
a((S'4'
g691
t(S'4'
g692
tg64
tp924
a((S'9'
S'E0_01_R0_00_R1_10_T_R1'
p925
t(S'9'
S'E0_01_R0_00_R1_01_T_E0'
p926
tg78
tp927
a((S'4'
S'E0_01_R0_00_R1_01_T_R0'
p928
t(S'4'
S'E0_01_R0_01_R1_01_T_R1'
p929
tg88
tp930
a((S'3'
g579
t(S'3'
S'E0_00_R0_01_R1_00_T_R1'
p931
tg88
tp932
a((S'7'
g139
t(S'7'
S'E0_01_R0_01_R1_10_T_E0'
p933
tg14
tp934
a((S'6'
g697
t(S'6'
g698
tg18
tp935
a((g7
g928
t(g7
S'E0_01_R0_00_R1_01_T_R1'
p936
tg18
tp937
a((S'3'
g634
t(S'3'
S'E0_10_R0_01_R1_00_T_E0'
p938
tg141
tp939
a((S'3'
g189
t(S'3'
g600
tg181
tp940
a((S'2'
S'E0_10_R0_10_R1_11_T_E0'
p941
tp942
(g7
S'E0_01_R0_10_R1_11_T_R0'
tg231
tp943
a((S'4'
S'E0_10_R0_11_R1_01_T_R0'
p944
t(S'4'
S'E0_10_R0_11_R1_01_T_R1'
p945
tg18
tp946
a((S'2'
S'E0_10_R0_00_R1_00_T_R1'
p947
t(S'2'
S'E0_10_R0_00_R1_11_T_E0'
p948
tg30
tp949
a((S'2'
g649
t(S'2'
g669
tg10
tp950
a((S'4'
g35
t(S'4'
g299
tg18
tp951
a((S'4'
g452
t(S'4'
S'E0_11_R0_01_R1_10_T_R1'
p952
tg48
tp953
a((S'7'
g680
t(S'7'
S'E0_00_R0_00_R1_11_T_E0'
p954
tg40
tp955
a((S'3'
g369
t(S'3'
g574
tg64
tp956
a((S'1'
g35
t(S'1'
S'E0_10_R0_10_R1_01_T_R1'
p957
tg68
tp958
a((S'2'
g329
t(S'2'
S'E0_00_R0_01_R1_11_T_R1'
p959
tg18
tp960
a((S'4'
g90
t(S'4'
S'E0_10_R0_00_R1_11_T_E0'
p961
tg40
tp962
a((S'8'
g183
t(S'8'
g184
tg30
tp963
a((S'4'
S'E0_11_R0_01_R1_00_T_E0'
p964
tp965
(S'4'
S'E0_01_R0_01_R1_00_T_R0'
tg54
tp966
a((S'2'
S'E0_10_R0_01_R1_11_T_E0'
p967
tp968
(g7
S'E0_01_R0_01_R1_11_T_R0'
tg231
tp969
a((S'7'
g146
tp970
(S'4'
S'E0_10_R0_10_R1_11_T_R0'
tg26
tp971
a(g684
(S'4'
S'E0_01_R0_11_R1_00_T_R0'
tg44
tp972
a((g7
g83
t(g7
g316
tg181
tp973
a((S'3'
g164
t(S'3'
g165
tg10
tp974
a((S'2'
g133
t(S'2'
g775
tg14
tp975
a((S'8'
g253
t(S'8'
S'E0_00_R0_10_R1_11_T_R1'
p976
tg10
tp977
a((g7
S'E0_01_R0_01_R1_01_T_E0'
p978
tp979
(g7
S'E0_01_R0_01_R1_01_T_R0'
tg44
tp980
a(g695
(S'7'
S'E0_00_R0_01_R1_01_T_R0'
tg54
tp981
a((S'5'
g80
t(S'5'
S'E0_10_R0_01_R1_11_T_E0'
p982
tg30
tp983
a((S'2'
S'E0_10_R0_01_R1_00_T_E0'
p984
tp985
(g7
S'E0_01_R0_01_R1_00_T_R0'
tg231
tp986
a((S'4'
g409
t(S'4'
S'E0_10_R0_01_R1_11_T_E0'
p987
tg96
tp988
a((S'4'
g86
t(S'4'
g405
tg48
tp989
a((S'3'
g189
t(S'3'
S'E0_10_R0_00_R1_11_T_R1'
p990
tg18
tp991
a((S'1'
g336
t(S'1'
g824
tg52
tp992
a((S'5'
g944
t(S'5'
g945
tg18
tp993
a((S'2'
S'E0_00_R0_01_R1_00_T_E0'
p994
tp995
(S'6'
S'E0_11_R0_01_R1_00_T_R0'
tg334
tp996
a((S'2'
S'E0_01_R0_00_R1_10_T_E0'
p997
tp998
(S'5'
S'E0_11_R0_00_R1_10_T_R0'
tg26
tp999
a((S'2'
g366
t(S'2'
S'E0_10_R0_11_R1_01_T_R1'
p1000
tg110
tp1001
a((S'3'
g76
t(S'3'
g77
tg78
tp1002
a((S'9'
g296
t(S'9'
S'E0_11_R0_01_R1_10_T_E0'
p1003
tg40
tp1004
a((S'9'
g782
t(S'9'
S'E0_11_R0_01_R1_01_T_E0'
p1005
tg96
tp1006
a((S'2'
g70
t(S'2'
S'E0_11_R0_00_R1_01_T_R1'
p1007
tg64
tp1008
a((g7
g711
t(g7
S'E0_01_R0_01_R1_10_T_E0'
p1009
tg92
tp1010
a((S'6'
g357
t(S'6'
S'E0_11_R0_01_R1_00_T_E0'
p1011
tg141
tp1012
a(g472
(S'4'
S'E0_01_R0_01_R1_11_T_R0'
tg54
tp1013
a((S'4'
g127
t(S'4'
g128
tg96
tp1014
a((S'7'
g396
t(S'7'
S'E0_00_R0_01_R1_10_T_E0'
p1015
tg14
tp1016
a((S'2'
S'E0_01_R0_01_R1_00_T_E0'
p1017
tp1018
(S'1'
S'E0_10_R0_01_R1_00_T_R0'
tg399
tp1019
a((S'3'
g204
t(S'3'
S'E0_10_R0_11_R1_11_T_R1'
p1020
tg18
tp1021
a((S'4'
g56
t(S'4'
g238
tg68
tp1022
a((S'8'
g108
t(S'8'
g545
tg181
tp1023
a((S'2'
g925
t(S'2'
S'E0_01_R0_00_R1_10_T_E0'
p1024
tg96
tp1025
a((S'4'
g86
t(S'4'
g377
tg18
tp1026
a((S'4'
g149
t(S'4'
S'E0_11_R0_01_R1_11_T_R1'
p1027
tg64
tp1028
a((S'8'
g20
t(S'8'
S'E0_00_R0_10_R1_01_T_E0'
p1029
tg141
tp1030
a(g577
(S'2'
S'E0_10_R0_11_R1_10_T_R0'
tg44
tp1031
a((S'7'
g287
t(S'7'
g288
tg181
tp1032
a((S'7'
S'E0_00_R0_10_R1_00_T_E0'
p1033
tp1034
(S'4'
S'E0_10_R0_10_R1_00_T_R0'
tg26
tp1035
a((S'2'
S'E0_10_R0_00_R1_00_T_E0'
p1036
tp1037
(g7
S'E0_01_R0_00_R1_00_T_R0'
tg231
tp1038
a((S'8'
g183
t(S'8'
g227
tg96
tp1039
a(g147
(S'4'
S'E0_10_R0_10_R1_11_T_R0'
tg26
tp1040
a((S'2'
S'E0_10_R0_11_R1_11_T_E0'
p1041
tp1042
(S'7'
S'E0_00_R0_11_R1_11_T_R0'
tg54
tp1043
a((S'6'
g563
t(S'6'
g852
tg178
tp1044
a((S'2'
S'E0_01_R0_10_R1_10_T_E0'
p1045
tp1046
(S'1'
S'E0_10_R0_10_R1_10_T_R0'
tg399
tp1047
a((S'5'
g80
t(S'5'
g81
tg40
tp1048
a((S'4'
g70
t(S'4'
g71
tg18
tp1049
a((S'2'
g199
t(S'2'
S'E0_01_R0_10_R1_01_T_E0'
p1050
tg96
tp1051
a((S'4'
g925
t(S'4'
g926
tg78
tp1052
a((S'1'
g80
t(S'1'
g593
tg96
tp1053
a((S'5'
S'E0_11_R0_01_R1_01_T_R0'
p1054
t(S'5'
S'E0_11_R0_10_R1_01_T_R1'
p1055
tg68
tp1056
a((S'3'
S'E0_00_R0_01_R1_01_T_E0'
p1057
tp1058
(S'3'
S'E0_00_R0_01_R1_01_T_R0'
tg44
tp1059
a((S'4'
g28
t(S'4'
S'E0_01_R0_11_R1_01_T_E0'
p1060
tg52
tp1061
a(g695
(S'2'
S'E0_10_R0_01_R1_01_T_R0'
tg44
tp1062
a((S'2'
g94
t(S'2'
g122
tg52
tp1063
a((S'1'
g16
t(S'1'
g17
tg18
tp1064
a((S'2'
g183
t(S'2'
S'E0_00_R0_10_R1_10_T_E0'
p1065
tg40
tp1066
a((S'4'
g745
t(S'4'
g746
tg96
tp1067
a((S'1'
g369
t(S'1'
S'E0_10_R0_10_R1_10_T_R1'
p1068
tg10
tp1069
a((S'8'
g248
t(S'8'
S'E0_00_R0_01_R1_00_T_E0'
p1070
tg14
tp1071
a((S'4'
g602
t(S'4'
S'E0_00_R0_10_R1_00_T_R1'
p1072
tg68
tp1073
a((S'5'
S'E0_11_R0_10_R1_11_T_R1'
p1074
t(S'5'
S'E0_11_R0_10_R1_01_T_E0'
p1075
tg141
tp1076
a((S'7'
g56
t(S'7'
g180
tg181
tp1077
a((S'4'
g925
t(S'4'
S'E0_01_R0_00_R1_11_T_E0'
p1078
tg52
tp1079
a((S'6'
g127
t(S'6'
S'E0_11_R0_11_R1_11_T_E0'
p1080
tg40
tp1081
a(g722
(S'9'
S'E0_01_R0_11_R1_00_T_R0'
tg280
tp1082
a((S'1'
g381
t(S'1'
S'E0_10_R0_01_R1_10_T_R1'
p1083
tg88
tp1084
a((S'4'
g221
t(S'4'
g551
tg22
tp1085
a(g666
(S'5'
S'E0_11_R0_01_R1_10_T_R0'
tg44
tp1086
a((S'4'
g1054
t(S'4'
g1055
tg68
tp1087
a((S'2'
S'E0_10_R0_01_R1_10_T_R0'
p1088
t(S'2'
S'E0_10_R0_01_R1_10_T_R1'
p1089
tg18
tp1090
a(g577
(g7
S'E0_01_R0_11_R1_10_T_R0'
tg231
tp1091
a((S'2'
g46
t(S'2'
g533
tg88
tp1092
a((S'8'
g105
t(S'8'
g106
tg10
tp1093
a((S'9'
g273
t(S'9'
S'E0_11_R0_01_R1_00_T_E0'
p1094
tg22
tp1095
a((S'5'
S'E0_11_R0_00_R1_10_T_R1'
p1096
t(S'5'
S'E0_11_R0_00_R1_10_T_E0'
p1097
tg96
tp1098
a((S'7'
g479
tp1099
(S'4'
S'E0_10_R0_11_R1_10_T_R0'
tg26
tp1100
a((S'4'
g235
t(S'4'
g236
tg181
tp1101
a((S'2'
S'E0_11_R0_01_R1_11_T_E0'
p1102
tp1103
(S'3'
S'E0_10_R0_01_R1_11_T_R0'
tg5
tp1104
a((S'7'
g542
t(S'7'
g728
tg18
tp1105
a((S'9'
g127
t(S'9'
S'E0_11_R0_11_R1_10_T_E0'
p1106
tg92
tp1107
a((S'2'
g366
t(S'2'
S'E0_10_R0_01_R1_01_T_R1'
p1108
tg88
tp1109
a((S'4'
g516
t(S'4'
S'E0_10_R0_00_R1_00_T_E0'
p1110
tg22
tp1111
a((S'4'
g521
t(S'4'
S'E0_00_R0_00_R1_01_T_E0'
p1112
tg52
tp1113
a((S'5'
g73
t(S'5'
g506
tg18
tp1114
a((g7
g649
t(g7
g669
tg10
tp1115
a((g7
S'E0_01_R0_01_R1_10_T_E0'
p1116
tp1117
(g7
S'E0_01_R0_01_R1_10_T_R0'
tg44
tp1118
a((S'2'
g501
t(S'2'
g502
tg96
tp1119
a((S'9'
g928
t(S'9'
S'E0_01_R0_10_R1_01_T_R1'
p1120
tg181
tp1121
a((S'2'
g90
t(S'2'
g152
tg96
tp1122
a((S'3'
g724
t(S'3'
S'E0_10_R0_11_R1_00_T_R1'
p1123
tg18
tp1124
a((S'5'
g130
t(S'5'
S'E0_11_R0_00_R1_11_T_E0'
p1125
tg96
tp1126
a((S'3'
g369
t(S'3'
S'E0_10_R0_00_R1_10_T_R1'
p1127
tg178
tp1128
a((S'1'
S'E0_10_R0_11_R1_10_T_E0'
p1129
tp1130
(S'1'
S'E0_10_R0_11_R1_10_T_R0'
tg44
tp1131
a((S'5'
S'E0_10_R0_11_R1_11_T_E0'
p1132
tp1133
(S'5'
S'E0_10_R0_11_R1_11_T_R0'
tg44
tp1134
a((S'8'
S'E0_00_R0_11_R1_00_T_E0'
p1135
tp1136
(S'8'
S'E0_00_R0_11_R1_00_T_R0'
tg44
tp1137
a((S'4'
g199
t(S'4'
g1050
tg96
tp1138
a((S'2'
g207
t(S'2'
S'E0_01_R0_01_R1_00_T_R1'
p1139
tg88
tp1140
a((S'4'
g914
tp1141
(S'4'
S'E0_01_R0_10_R1_11_T_R0'
tg44
tp1142
a((S'4'
g42
tp1143
(S'4'
S'E0_00_R0_00_R1_10_T_R0'
tg54
tp1144
a((S'4'
S'E0_11_R0_01_R1_01_T_E0'
p1145
tp1146
(S'4'
S'E0_11_R0_01_R1_01_T_R0'
tg44
tp1147
a((S'4'
S'E0_11_R0_10_R1_11_T_E0'
p1148
tp1149
(S'4'
S'E0_01_R0_10_R1_11_T_R0'
tg54
tp1150
a((S'3'
g396
t(S'3'
g397
tg141
tp1151
a((S'3'
g248
t(S'3'
S'E0_00_R0_01_R1_11_T_E0'
p1152
tg40
tp1153
a((S'5'
S'E0_10_R0_01_R1_00_T_E0'
p1154
tp1155
(S'4'
S'E0_00_R0_01_R1_00_T_R0'
tg54
tp1156
a((S'7'
g8
t(S'7'
g841
tg18
tp1157
a((S'4'
g133
t(S'4'
g482
tg92
tp1158
a((S'9'
g566
t(S'9'
g641
tg52
tp1159
a((S'4'
g785
tp1160
(S'4'
S'E0_11_R0_11_R1_11_T_R0'
tg44
tp1161
a((S'1'
g59
t(S'1'
g60
tg14
tp1162
a((S'9'
S'E0_11_R0_10_R1_10_T_E0'
p1163
tp1164
(S'9'
S'E0_11_R0_10_R1_10_T_R0'
tg44
tp1165
a(g314
(S'2'
S'E0_00_R0_11_R1_11_T_R0'
tg44
tp1166
a((S'2'
g434
t(S'2'
g529
tg10
tp1167
a((S'5'
g1054
t(S'5'
S'E0_11_R0_01_R1_01_T_R1'
p1168
tg18
tp1169
a((S'5'
g782
t(S'5'
S'E0_11_R0_01_R1_11_T_E0'
p1170
tg40
tp1171
a((S'2'
g59
t(S'2'
S'E0_10_R0_11_R1_10_T_E0'
p1172
tg92
tp1173
a((S'5'
g740
tp1174
(S'4'
S'E0_00_R0_01_R1_01_T_R0'
tg54
tp1175
a((S'4'
g605
t(S'4'
S'E0_01_R0_01_R1_11_T_R1'
p1176
tg88
tp1177
a((S'4'
g390
t(S'4'
g455
tg178
tp1178
a((S'2'
g248
t(S'2'
g249
tg92
tp1179
a((S'2'
S'E0_10_R0_10_R1_10_T_E0'
p1180
tp1181
(S'7'
S'E0_00_R0_10_R1_10_T_R0'
tg54
tp1182
a((S'9'
g357
t(S'9'
g358
tg96
tp1183
a((S'6'
S'E0_11_R0_10_R1_00_T_E0'
p1184
tp1185
(S'6'
S'E0_11_R0_10_R1_00_T_R0'
tg44
tp1186
a((S'4'
g12
t(S'4'
S'E0_01_R0_11_R1_01_T_E0'
p1187
tg96
tp1188
a((S'1'
g16
t(S'1'
g816
tg181
tp1189
a((S'7'
g691
t(S'7'
S'E0_00_R0_01_R1_00_T_R1'
p1190
tg48
tp1191
a((S'4'
g80
t(S'4'
g263
tg52
tp1192
a((S'2'
g409
t(S'2'
g410
tg14
tp1193
a(g722
(S'2'
S'E0_00_R0_11_R1_00_T_R0'
tg44
tp1194
a((S'2'
g360
t(S'2'
S'E0_11_R0_01_R1_00_T_R1'
p1195
tg88
tp1196
a((S'4'
S'E0_11_R0_00_R1_00_T_E0'
p1197
tp1198
(S'4'
S'E0_01_R0_00_R1_00_T_R0'
tg54
tp1199
a((S'2'
g301
t(S'2'
S'E0_01_R0_01_R1_00_T_R1'
p1200
tg48
tp1201
a((S'7'
g196
t(S'7'
g379
tg68
tp1202
a((S'4'
g539
t(S'4'
g540
tg96
tp1203
a((S'4'
g409
t(S'4'
S'E0_10_R0_01_R1_01_T_E0'
p1204
tg141
tp1205
a((S'7'
g32
t(S'7'
S'E0_00_R0_11_R1_01_T_R1'
p1206
tg88
tp1207
a((S'4'
g396
t(S'4'
S'E0_00_R0_01_R1_11_T_E0'
p1208
tg96
tp1209
a((S'4'
S'E0_00_R0_01_R1_11_T_E0'
p1210
tp1211
(S'4'
S'E0_10_R0_01_R1_11_T_R0'
tg26
tp1212
a((S'9'
S'E0_01_R0_01_R1_00_T_R0'
p1213
t(S'9'
S'E0_01_R0_01_R1_00_T_R1'
p1214
tg18
tp1215
a((S'2'
g216
t(S'2'
S'E0_00_R0_00_R1_11_T_R1'
p1216
tg64
tp1217
a((S'2'
S'E0_11_R0_00_R1_01_T_E0'
p1218
tp1219
(S'8'
S'E0_00_R0_00_R1_01_T_R0'
tg169
tp1220
a((S'7'
g245
t(S'7'
g595
tg48
tp1221
a((S'7'
g20
t(S'7'
S'E0_00_R0_10_R1_10_T_E0'
p1222
tg14
tp1223
a((S'8'
g772
t(S'8'
g834
tg18
tp1224
a((S'7'
g680
t(S'7'
S'E0_00_R0_00_R1_01_T_E0'
p1225
tg96
tp1226
a((S'3'
g102
t(S'3'
g112
tg30
tp1227
a((g7
g12
t(g7
S'E0_01_R0_11_R1_11_T_E0'
p1228
tg40
tp1229
a((S'1'
g484
t(S'1'
S'E0_10_R0_11_R1_01_T_E0'
p1230
tg52
tp1231
a((S'2'
g124
t(S'2'
S'E0_00_R0_10_R1_10_T_R1'
p1232
tg10
tp1233
a((S'8'
g216
t(S'8'
S'E0_00_R0_10_R1_11_T_R1'
p1234
tg18
tp1235
a((S'4'
g221
t(S'4'
g346
tg96
tp1236
a((S'6'
g661
t(S'6'
g662
tg181
tp1237
a((S'7'
S'E0_00_R0_10_R1_10_T_E0'
p1238
tp1239
(S'4'
S'E0_10_R0_10_R1_10_T_R0'
tg26
tp1240
a((S'5'
S'E0_11_R0_10_R1_01_T_R1'
p1241
t(S'5'
S'E0_11_R0_10_R1_00_T_E0'
p1242
tg14
tp1243
a((S'5'
g351
t(S'5'
S'E0_11_R0_00_R1_11_T_E0'
p1244
tg30
tp1245
a((S'5'
g1197
tp1246
(S'5'
S'E0_11_R0_00_R1_00_T_R0'
tg44
tp1247
a((S'2'
g273
t(S'2'
g403
tg141
tp1248
a((S'2'
g363
t(S'2'
g364
tg78
tp1249
a((S'2'
g381
t(S'2'
g839
tg181
tp1250
a((S'4'
g130
t(S'4'
g131
tg22
tp1251
a((S'9'
g199
t(S'9'
S'E0_01_R0_10_R1_10_T_E0'
p1252
tg92
tp1253
a((S'4'
g566
t(S'4'
g641
tg52
tp1254
a(g1211
(S'4'
S'E0_00_R0_01_R1_11_T_R0'
tg44
tp1255
a((S'9'
g273
t(S'9'
g464
tg96
tp1256
a((S'3'
g307
t(S'3'
S'E0_00_R0_10_R1_01_T_R1'
p1257
tg10
tp1258
a((S'3'
g745
t(S'3'
g746
tg96
tp1259
a((S'4'
S'E0_11_R0_11_R1_01_T_E0'
p1260
tp1261
(S'4'
S'E0_11_R0_11_R1_01_T_R0'
tg44
tp1262
a((g7
S'E0_01_R0_00_R1_10_T_E0'
p1263
tp1264
(g7
S'E0_01_R0_00_R1_10_T_R0'
tg44
tp1265
a((S'4'
g649
t(S'4'
S'E0_01_R0_11_R1_01_T_R1'
p1266
tg18
tp1267
a((S'9'
g390
t(S'9'
S'E0_01_R0_01_R1_11_T_R1'
p1268
tg64
tp1269
a((S'7'
g216
t(S'7'
g1216
tg64
tp1270
a((S'3'
S'E0_10_R0_10_R1_11_T_E0'
p1271
tp1272
(S'3'
S'E0_10_R0_10_R1_11_T_R0'
tg44
tp1273
a((S'5'
g614
t(S'5'
S'E0_10_R0_00_R1_10_T_E0'
p1274
tg96
tp1275
a((S'9'
g360
t(S'9'
g1195
tg88
tp1276
a((S'2'
g213
t(S'2'
S'E0_11_R0_11_R1_01_T_E0'
p1277
tg78
tp1278
a((S'3'
g189
t(S'3'
g202
tg110
tp1279
a((S'2'
g372
t(S'2'
S'E0_10_R0_00_R1_11_T_R1'
p1280
tg10
tp1281
a((S'4'
g199
t(S'4'
g1252
tg92
tp1282
a((S'2'
g357
t(S'2'
g884
tg78
tp1283
a((S'8'
g119
t(S'8'
S'E0_00_R0_00_R1_00_T_E0'
p1284
tg141
tp1285
a((S'7'
g1210
tp1286
(S'7'
S'E0_00_R0_01_R1_11_T_R0'
tg44
tp1287
a((S'1'
g501
t(S'1'
g502
tg96
tp1288
a((S'5'
g351
t(S'5'
g497
tg96
tp1289
a((S'2'
S'E0_00_R0_00_R1_00_T_E0'
p1290
tp1291
(S'6'
S'E0_11_R0_00_R1_00_T_R0'
tg334
tp1292
a((S'4'
g354
t(S'4'
S'E0_01_R0_01_R1_10_T_R1'
p1293
tg64
tp1294
a((S'8'
g680
t(S'8'
g954
tg40
tp1295
a((S'5'
g366
t(S'5'
g1000
tg110
tp1296
a((S'2'
g484
t(S'2'
g549
tg30
tp1297
a((S'1'
g35
t(S'1'
g299
tg18
tp1298
a((S'4'
g98
t(S'4'
S'E0_10_R0_01_R1_11_T_E0'
p1299
tg40
tp1300
a((S'7'
g28
t(S'7'
g29
tg30
tp1301
a((S'4'
g59
t(S'4'
g60
tg14
tp1302
a((S'3'
g66
t(S'3'
S'E0_00_R0_11_R1_01_T_R1'
p1303
tg181
tp1304
a((S'2'
g369
t(S'2'
g574
tg64
tp1305
a((S'4'
g1088
t(S'4'
g1089
tg18
tp1306
a((S'3'
g1088
t(S'3'
S'E0_10_R0_10_R1_10_T_R1'
p1307
tg68
tp1308
a((g7
g38
t(g7
S'E0_01_R0_00_R1_00_T_E0'
p1309
tg96
tp1310
a((S'9'
g582
t(S'9'
g583
tg96
tp1311
a((S'2'
g186
t(S'2'
g504
tg181
tp1312
a((S'9'
g354
t(S'9'
g1293
tg64
tp1313
a((S'5'
g174
t(S'5'
S'E0_11_R0_00_R1_01_T_E0'
p1314
tg96
tp1315
a((S'7'
g617
tp1316
(S'7'
S'E0_01_R0_00_R1_01_T_R0'
tg44
tp1317
a((S'9'
g293
t(S'9'
S'E0_11_R0_10_R1_00_T_R1'
p1318
tg18
tp1319
a((S'2'
g661
t(S'2'
S'E0_11_R0_11_R1_10_T_R1'
p1320
tg110
tp1321
a((S'4'
g614
t(S'4'
S'E0_10_R0_00_R1_00_T_E0'
p1322
tg141
tp1323
a((S'5'
g293
t(S'5'
S'E0_11_R0_00_R1_00_T_R1'
p1324
tg64
tp1325
a((g7
g539
t(g7
S'E0_01_R0_10_R1_10_T_E0'
p1326
tg14
tp1327
a((S'4'
g605
t(S'4'
S'E0_01_R0_00_R1_11_T_R1'
p1328
tg18
tp1329
a(g998
(S'1'
S'E0_10_R0_00_R1_10_T_R0'
tg399
tp1330
a((S'2'
S'E0_01_R0_11_R1_10_T_E0'
p1331
tp1332
(S'5'
S'E0_11_R0_11_R1_10_T_R0'
tg26
tp1333
a((S'4'
g691
t(S'4'
g1190
tg48
tp1334
a((S'8'
g284
t(S'8'
g318
tg96
tp1335
a((S'3'
g59
t(S'3'
g1172
tg92
tp1336
a((S'2'
g673
t(S'2'
g674
tg141
tp1337
a((S'2'
S'E0_11_R0_00_R1_11_T_E0'
p1338
tp1339
(S'8'
S'E0_00_R0_00_R1_11_T_R0'
tg169
tp1340
a((S'9'
g673
t(S'9'
S'E0_01_R0_11_R1_10_T_E0'
p1341
tg96
tp1342
a((S'4'
g1241
t(S'4'
S'E0_11_R0_10_R1_11_T_E0'
p1343
tg40
tp1344
a((S'3'
g124
t(S'3'
g125
tg18
tp1345
a(g1046
(S'5'
S'E0_11_R0_10_R1_10_T_R0'
tg26
tp1346
a((S'3'
g396
t(S'3'
g1208
tg96
tp1347
a((S'9'
S'E0_01_R0_11_R1_00_T_E0'
p1348
tp1349
(S'9'
S'E0_01_R0_11_R1_00_T_R0'
tg44
tp1350
a(g812
(S'5'
S'E0_11_R0_01_R1_11_T_R0'
tg26
tp1351
a((S'5'
g1074
t(S'5'
S'E0_11_R0_10_R1_10_T_E0'
p1352
tg14
tp1353
a((S'1'
g265
t(S'1'
g266
tg64
tp1354
a((S'2'
g501
t(S'2'
S'E0_10_R0_10_R1_00_T_E0'
p1355
tg14
tp1356
a((S'7'
S'E0_00_R0_00_R1_00_T_E0'
p1357
tp1358
(S'7'
S'E0_00_R0_00_R1_00_T_R0'
tg44
tp1359
a((S'9'
g174
t(S'9'
g175
tg14
tp1360
a((S'9'
g1054
t(S'9'
g1168
tg18
tp1361
a((S'4'
g452
t(S'4'
S'E0_11_R0_11_R1_10_T_R1'
p1362
tg88
tp1363
a((S'4'
g273
t(S'4'
g464
tg96
tp1364
a((S'5'
S'E0_11_R0_10_R1_10_T_E0'
p1365
tp1366
(S'5'
S'E0_11_R0_10_R1_10_T_R0'
tg44
tp1367
a((S'5'
g46
t(S'5'
S'E0_11_R0_00_R1_11_T_R1'
p1368
tg64
tp1369
a((S'6'
S'E0_11_R0_10_R1_01_T_E0'
p1370
tp1371
(S'6'
S'E0_11_R0_10_R1_01_T_R0'
tg44
tp1372
a((S'5'
g409
t(S'5'
g410
tg14
tp1373
a((S'4'
g66
t(S'4'
g1303
tg181
tp1374
a((S'5'
g204
t(S'5'
S'E0_10_R0_01_R1_11_T_R1'
p1375
tg64
tp1376
a((S'5'
S'E0_10_R0_00_R1_00_T_E0'
p1377
tp1378
(S'4'
S'E0_00_R0_00_R1_00_T_R0'
tg54
tp1379
a((S'8'
S'E0_00_R0_01_R1_10_T_E0'
p1380
tp1381
(S'8'
S'E0_00_R0_01_R1_10_T_R0'
tg44
tp1382
a((S'5'
g434
t(S'5'
S'E0_11_R0_00_R1_10_T_R1'
p1383
tg178
tp1384
a((S'5'
g59
t(S'5'
S'E0_10_R0_11_R1_11_T_E0'
p1385
tg40
tp1386
a((S'4'
g130
t(S'4'
S'E0_11_R0_00_R1_01_T_E0'
p1387
tg141
tp1388
a((S'6'
g213
t(S'6'
g1277
tg78
tp1389
a((S'9'
g354
t(S'9'
g355
tg178
tp1390
a((S'5'
S'E0_11_R0_10_R1_00_T_E0'
p1391
tp1392
(S'4'
S'E0_01_R0_10_R1_00_T_R0'
tg54
tp1393
a((S'2'
g56
t(S'2'
g829
tg10
tp1394
a((S'4'
g351
t(S'4'
g1244
tg30
tp1395
a((S'5'
g366
t(S'5'
g1108
tg88
tp1396
a((S'9'
g1054
t(S'9'
g1055
tg68
tp1397
a((S'9'
g310
t(S'9'
g311
tg18
tp1398
a((S'3'
g501
t(S'3'
g1355
tg14
tp1399
a((S'5'
g192
tp1400
(S'5'
S'E0_10_R0_11_R1_00_T_R0'
tg44
tp1401
a(g1103
(S'7'
S'E0_01_R0_01_R1_11_T_R0'
tg54
tp1402
a(g230
(S'9'
S'E0_11_R0_11_R1_01_T_R0'
tg280
tp1403
a((S'4'
g423
t(S'4'
S'E0_10_R0_11_R1_00_T_E0'
p1404
tg22
tp1405
a((S'4'
g73
t(S'4'
S'E0_11_R0_10_R1_01_T_R1'
p1406
tg10
tp1407
a((S'9'
g70
t(S'9'
g1007
tg64
tp1408
a((S'6'
g304
t(S'6'
g431
tg14
tp1409
a((S'3'
g94
t(S'3'
S'E0_00_R0_01_R1_10_T_E0'
p1410
tg40
tp1411
a((S'5'
S'E0_10_R0_10_R1_01_T_E0'
p1412
tp1413
(S'4'
S'E0_00_R0_10_R1_01_T_R0'
tg54
tp1414
a((S'7'
g245
t(S'7'
g246
tg88
tp1415
a((g7
g363
t(g7
S'E0_01_R0_01_R1_00_T_E0'
p1416
tg141
tp1417
a((S'7'
g287
t(S'7'
g407
tg88
tp1418
a((S'7'
g38
t(S'7'
g39
tg40
tp1419
a((S'3'
S'E0_00_R0_10_R1_01_T_E0'
p1420
tp1421
(S'3'
S'E0_00_R0_10_R1_01_T_R0'
tg44
tp1422
a((S'4'
g1054
t(S'4'
g1168
tg18
tp1423
a((S'4'
g1241
t(S'4'
g1242
tg14
tp1424
a((S'7'
g38
t(S'7'
S'E0_01_R0_00_R1_11_T_E0'
p1425
tg30
tp1426
a((S'3'
g98
t(S'3'
S'E0_10_R0_01_R1_10_T_E0'
p1427
tg92
tp1428
a((S'2'
g1074
t(S'2'
S'E0_11_R0_10_R1_11_T_E0'
p1429
tg96
tp1430
a((S'5'
g343
t(S'5'
g732
tg110
tp1431
a((S'7'
g235
t(S'7'
S'E0_01_R0_10_R1_10_T_R1'
p1432
tg68
tp1433
a((S'7'
g12
t(S'7'
g1228
tg40
tp1434
a((S'2'
S'E0_00_R0_00_R1_01_T_E0'
p1435
tp1436
(S'6'
S'E0_11_R0_00_R1_01_T_R0'
tg334
tp1437
a((S'9'
g459
t(S'9'
g797
tg96
tp1438
a((g7
g542
t(g7
g543
tg48
tp1439
a((S'4'
g944
t(S'4'
S'E0_10_R0_10_R1_01_T_R1'
p1440
tg10
tp1441
a((S'3'
g307
t(S'3'
S'E0_00_R0_11_R1_01_T_R1'
p1442
tg18
tp1443
a((S'5'
g501
t(S'5'
g502
tg96
tp1444
a((S'4'
g83
t(S'4'
g116
tg18
tp1445
a((S'4'
g649
t(S'4'
g650
tg178
tp1446
a((S'7'
g139
t(S'7'
S'E0_01_R0_01_R1_11_T_E0'
p1447
tg96
tp1448
a((S'4'
g287
t(S'4'
S'E0_00_R0_11_R1_11_T_R1'
p1449
tg110
tp1450
a((S'2'
S'E0_11_R0_10_R1_01_T_E0'
p1451
tp1452
(S'3'
S'E0_10_R0_10_R1_01_T_R0'
tg5
tp1453
a((S'5'
g944
t(S'5'
g1440
tg10
tp1454
a((S'5'
g459
t(S'5'
g646
tg141
tp1455
a((S'3'
g366
t(S'3'
g1000
tg110
tp1456
a((S'3'
g287
t(S'3'
g1449
tg110
tp1457
a(g168
(S'7'
S'E0_01_R0_10_R1_11_T_R0'
tg54
tp1458
a((g7
g290
t(g7
S'E0_01_R0_00_R1_11_T_E0'
p1459
tg96
tp1460
a((S'2'
g631
t(S'2'
g888
tg30
tp1461
a((S'4'
g1213
t(S'4'
g1214
tg18
tp1462
a((S'4'
g711
t(S'4'
g1009
tg92
tp1463
a(g279
(S'2'
S'E0_10_R0_10_R1_01_T_R0'
tg44
tp1464
a((S'2'
g304
t(S'2'
g431
tg14
tp1465
a((S'6'
g1241
t(S'6'
S'E0_11_R0_10_R1_10_T_E0'
p1466
tg92
tp1467
a((S'1'
g369
t(S'1'
g370
tg18
tp1468
a((S'2'
S'E0_00_R0_01_R1_01_T_E0'
p1469
tp1470
(S'6'
S'E0_11_R0_01_R1_01_T_R0'
tg334
tp1471
a((S'3'
S'E0_00_R0_00_R1_10_T_E0'
p1472
tp1473
(S'3'
S'E0_00_R0_00_R1_10_T_R0'
tg44
tp1474
a((S'2'
g1088
t(S'2'
g1307
tg68
tp1475
a((S'4'
g35
t(S'4'
g957
tg68
tp1476
a(g609
(S'9'
S'E0_11_R0_00_R1_10_T_R0'
tg280
tp1477
a((S'6'
S'E0_11_R0_10_R1_10_T_E0'
p1478
tp1479
(S'6'
S'E0_11_R0_10_R1_10_T_R0'
tg44
tp1480
a((S'5'
g1054
t(S'5'
S'E0_11_R0_11_R1_01_T_R1'
p1481
tg181
tp1482
a(g4
(S'8'
S'E0_00_R0_11_R1_00_T_R0'
tg169
tp1483
a((S'2'
S'E0_00_R0_00_R1_11_T_E0'
p1484
tp1485
(S'2'
S'E0_00_R0_00_R1_11_T_R0'
tg44
tp1486
a((S'6'
S'E0_11_R0_01_R1_01_T_E0'
p1487
tp1488
(S'6'
S'E0_11_R0_01_R1_01_T_R0'
tg44
tp1489
a((S'4'
g1132
tp1490
(S'4'
S'E0_00_R0_11_R1_11_T_R0'
tg54
tp1491
a((S'5'
S'E0_10_R0_10_R1_00_T_R0'
p1492
t(S'5'
S'E0_10_R0_11_R1_00_T_R1'
p1493
tg88
tp1494
a((S'4'
g46
t(S'4'
g703
tg18
tp1495
a((S'7'
g673
t(S'7'
S'E0_01_R0_11_R1_01_T_E0'
p1496
tg78
tp1497
a(g863
(S'1'
S'E0_10_R0_00_R1_11_T_R0'
tg399
tp1498
a((S'1'
g1492
t(S'1'
S'E0_10_R0_00_R1_00_T_R1'
p1499
tg64
tp1500
a((S'4'
g944
t(S'4'
S'E0_10_R0_01_R1_01_T_R1'
p1501
tg64
tp1502
a((S'2'
S'E0_00_R0_10_R1_00_T_E0'
p1503
tp1504
(S'6'
S'E0_11_R0_10_R1_00_T_R0'
tg334
tp1505
a((S'3'
g59
t(S'3'
S'E0_10_R0_11_R1_01_T_E0'
p1506
tg96
tp1507
a((g7
g631
t(g7
g765
tg52
tp1508
a((S'4'
g296
t(S'4'
S'E0_11_R0_01_R1_11_T_E0'
p1509
tg30
tp1510
a((S'1'
g221
t(S'1'
g222
tg14
tp1511
a(g942
(S'7'
S'E0_00_R0_10_R1_11_T_R0'
tg54
tp1512
a((S'8'
g108
t(S'8'
g920
tg18
tp1513
a((S'3'
g102
t(S'3'
S'E0_10_R0_10_R1_10_T_E0'
p1514
tg40
tp1515
a((S'7'
S'E0_01_R0_10_R1_01_T_E0'
p1516
tp1517
(S'7'
S'E0_01_R0_10_R1_01_T_R0'
tg44
tp1518
a((S'7'
g94
t(S'7'
g95
tg96
tp1519
a((S'4'
g296
t(S'4'
g297
tg52
tp1520
a((S'2'
g691
t(S'2'
g1190
tg48
tp1521
a(g752
(S'9'
S'E0_11_R0_00_R1_01_T_R0'
tg280
tp1522
a((S'7'
S'E0_01_R0_00_R1_01_T_R1'
p1523
t(S'7'
S'E0_01_R0_00_R1_11_T_E0'
p1524
tg40
tp1525
a((S'6'
g149
t(S'6'
g150
tg10
tp1526
a(g401
(S'4'
S'E0_10_R0_00_R1_10_T_R0'
tg26
tp1527
a(g172
(S'5'
S'E0_11_R0_10_R1_11_T_R0'
tg26
tp1528
a((S'2'
g38
t(S'2'
g39
tg40
tp1529
a((S'7'
g579
t(S'7'
S'E0_00_R0_10_R1_00_T_R1'
p1530
tg181
tp1531
a((S'4'
g224
t(S'4'
g412
tg14
tp1532
a((g7
g1523
t(g7
g1524
tg40
tp1533
a((S'4'
g336
t(S'4'
g824
tg52
tp1534
a((S'5'
g35
t(S'5'
S'E0_10_R0_11_R1_01_T_R1'
p1535
tg181
tp1536
a((S'3'
g372
t(S'3'
S'E0_10_R0_11_R1_11_T_R1'
p1537
tg181
tp1538
a((S'1'
g366
t(S'1'
g1000
tg110
tp1539
a((S'2'
S'E0_00_R0_10_R1_11_T_E0'
p1540
tp1541
(S'6'
S'E0_11_R0_10_R1_11_T_R0'
tg334
tp1542
a((S'3'
g944
t(S'3'
g1501
tg64
tp1543
a(g1037
(S'7'
S'E0_00_R0_00_R1_00_T_R0'
tg54
tp1544
a((S'8'
g119
t(S'8'
g531
tg96
tp1545
a((g7
g301
t(g7
S'E0_01_R0_10_R1_00_T_R1'
p1546
tg18
tp1547
a((S'9'
g631
t(S'9'
g888
tg30
tp1548
a((S'3'
g221
t(S'3'
g222
tg14
tp1549
a((S'5'
g471
tp1550
(S'4'
S'E0_01_R0_01_R1_11_T_R0'
tg54
tp1551
a((S'3'
g1492
t(S'3'
S'E0_10_R0_01_R1_00_T_R1'
p1552
tg48
tp1553
a((S'5'
g372
t(S'5'
S'E0_10_R0_10_R1_11_T_R1'
p1554
tg68
tp1555
a((S'3'
g62
t(S'3'
g63
tg64
tp1556
a((S'3'
g680
t(S'3'
g681
tg92
tp1557
a((S'2'
g655
t(S'2'
S'E0_01_R0_10_R1_11_T_E0'
p1558
tg52
tp1559
a((S'2'
g1074
t(S'2'
g1352
tg14
tp1560
a((S'4'
g83
t(S'4'
g719
tg10
tp1561
a(g509
(S'7'
S'E0_01_R0_01_R1_10_T_R0'
tg54
tp1562
a((S'4'
g83
t(S'4'
g84
tg68
tp1563
a((S'2'
S'E0_01_R0_10_R1_00_T_E0'
p1564
tp1565
(S'3'
S'E0_00_R0_10_R1_00_T_R0'
tg5
tp1566
a((S'5'
g381
t(S'5'
g1083
tg88
tp1567
a((S'4'
g336
t(S'4'
S'E0_10_R0_11_R1_10_T_E0'
p1568
tg96
tp1569
a((S'9'
S'E0_11_R0_01_R1_00_T_E0'
p1570
tp1571
(S'9'
S'E0_11_R0_01_R1_00_T_R0'
tg44
tp1572
a((S'5'
S'E0_10_R0_11_R1_10_T_E0'
p1573
tp1574
(S'5'
S'E0_10_R0_11_R1_10_T_R0'
tg44
tp1575
a(g230
(S'7'
S'E0_00_R0_11_R1_01_T_R0'
tg54
tp1576
a((g7
g655
t(g7
S'E0_01_R0_10_R1_01_T_E0'
p1577
tg78
tp1578
a((S'4'
g293
t(S'4'
g1318
tg18
tp1579
a((g7
g12
t(g7
S'E0_01_R0_11_R1_10_T_E0'
p1580
tg92
tp1581
a((S'3'
S'E0_10_R0_01_R1_11_T_E0'
p1582
tp1583
(S'3'
S'E0_10_R0_01_R1_11_T_R0'
tg44
tp1584
a((S'8'
g329
t(S'8'
g959
tg18
tp1585
a((S'3'
g183
t(S'3'
g227
tg96
tp1586
a((S'2'
g196
t(S'2'
g197
tg10
tp1587
a((S'4'
g925
t(S'4'
g1024
tg96
tp1588
a((S'6'
g296
t(S'6'
S'E0_11_R0_01_R1_00_T_E0'
p1589
tg96
tp1590
a((S'3'
g98
t(S'3'
g1299
tg40
tp1591
a((S'2'
S'E0_01_R0_11_R1_00_T_E0'
p1592
tp1593
(S'2'
S'E0_01_R0_11_R1_00_T_R0'
tg44
tp1594
a((S'2'
g98
t(S'2'
S'E0_10_R0_01_R1_01_T_E0'
p1595
tg96
tp1596
a((S'1'
g944
t(S'1'
g945
tg18
tp1597
a((S'2'
g360
t(S'2'
S'E0_11_R0_11_R1_00_T_R1'
p1598
tg110
tp1599
a((g7
g56
t(g7
g238
tg68
tp1600
a((S'2'
g605
t(S'2'
S'E0_01_R0_10_R1_11_T_R1'
p1601
tg181
tp1602
a((S'2'
g336
t(S'2'
g1568
tg96
tp1603
a((S'7'
g737
t(S'7'
g922
tg64
tp1604
a(g1470
(S'2'
S'E0_00_R0_01_R1_01_T_R0'
tg44
tp1605
a((S'7'
g579
t(S'7'
S'E0_00_R0_11_R1_00_T_R1'
p1606
tg110
tp1607
a((S'3'
g20
t(S'3'
g734
tg96
tp1608
a((S'2'
g102
t(S'2'
g112
tg30
tp1609
a((S'4'
g105
t(S'4'
g259
tg178
tp1610
a((S'4'
g542
t(S'4'
S'E0_01_R0_00_R1_10_T_R1'
p1611
tg64
tp1612
a((S'4'
g582
t(S'4'
S'E0_11_R0_10_R1_10_T_E0'
p1613
tg40
tp1614
a((S'2'
g32
t(S'2'
g33
tg18
tp1615
a((S'5'
g296
t(S'5'
g1509
tg30
tp1616
a((S'3'
g196
t(S'3'
g547
tg18
tp1617
a((S'7'
g28
t(S'7'
g324
tg96
tp1618
a((S'4'
g307
t(S'4'
g308
tg178
tp1619
a((S'5'
g357
t(S'5'
g884
tg78
tp1620
a((S'2'
g516
t(S'2'
S'E0_10_R0_00_R1_01_T_E0'
p1621
tg141
tp1622
a((S'2'
g32
t(S'2'
g910
tg48
tp1623
a(g763
(S'4'
S'E0_01_R0_01_R1_10_T_R0'
tg44
tp1624
a((S'2'
g94
t(S'2'
g1410
tg40
tp1625
a((S'2'
g369
t(S'2'
g1068
tg10
tp1626
a((S'4'
g782
t(S'4'
g1005
tg96
tp1627
a((S'4'
g1391
tp1628
(S'4'
S'E0_01_R0_10_R1_00_T_R0'
tg54
tp1629
a((S'3'
g80
t(S'3'
g593
tg96
tp1630
a(g1037
(S'2'
S'E0_10_R0_00_R1_00_T_R0'
tg44
tp1631
a((S'2'
S'E0_01_R0_11_R1_01_T_E0'
p1632
tp1633
(S'5'
S'E0_11_R0_11_R1_01_T_R0'
tg26
tp1634
a((S'1'
g944
t(S'1'
S'E0_10_R0_00_R1_01_T_R1'
p1635
tg178
tp1636
a((S'5'
S'E0_10_R0_01_R1_10_T_E0'
p1637
tp1638
(S'5'
S'E0_10_R0_01_R1_10_T_R0'
tg44
tp1639
a((S'9'
g293
t(S'9'
g1324
tg64
tp1640
a((S'1'
g409
t(S'1'
g410
tg14
tp1641
a((S'1'
g1492
t(S'1'
S'E0_10_R0_10_R1_00_T_R1'
p1642
tg18
tp1643
a((g7
g1213
t(g7
g1214
tg18
tp1644
a((S'3'
g50
t(S'3'
g879
tg141
tp1645
a((S'4'
g772
t(S'4'
S'E0_00_R0_10_R1_10_T_R1'
p1646
tg181
tp1647
a((S'9'
g605
t(S'9'
g1601
tg181
tp1648
a((S'6'
g296
t(S'6'
g1003
tg40
tp1649
a((S'2'
g900
t(S'2'
S'E0_01_R0_11_R1_00_T_E0'
p1650
tg22
tp1651
a((S'5'
g782
t(S'5'
g788
tg14
tp1652
a(g4
(S'7'
S'E0_01_R0_11_R1_00_T_R0'
tg54
tp1653
a((g7
g542
t(g7
g728
tg18
tp1654
a((S'5'
g459
t(S'5'
g797
tg96
tp1655
a((S'3'
g745
t(S'3'
S'E0_00_R0_11_R1_10_T_E0'
p1656
tg40
tp1657
a((S'4'
g186
t(S'4'
g187
tg68
tp1658
a((S'3'
g108
t(S'3'
g109
tg110
tp1659
a((S'3'
g579
t(S'3'
g1606
tg110
tp1660
a((S'5'
g452
t(S'5'
g952
tg48
tp1661
a((S'4'
g186
t(S'4'
g457
tg18
tp1662
a((S'4'
S'E0_11_R0_11_R1_00_T_E0'
p1663
tp1664
(S'4'
S'E0_11_R0_11_R1_00_T_R0'
tg44
tp1665
a((S'5'
g409
t(S'5'
g987
tg96
tp1666
a((S'3'
g329
t(S'3'
S'E0_00_R0_00_R1_11_T_R1'
p1667
tg10
tp1668
a((S'4'
g655
t(S'4'
g1577
tg78
tp1669
a((S'5'
g149
t(S'5'
g1027
tg64
tp1670
a((S'1'
g423
t(S'1'
g424
tg96
tp1671
a((g7
g673
t(g7
g1341
tg96
tp1672
a((S'8'
g50
t(S'8'
S'E0_00_R0_01_R1_01_T_E0'
p1673
tg78
tp1674
a((S'7'
g207
t(S'7'
g791
tg181
tp1675
a((S'4'
g235
t(S'4'
g1432
tg68
tp1676
a((S'4'
g307
t(S'4'
g1442
tg18
tp1677
a(g628
(S'5'
S'E0_10_R0_00_R1_01_T_R0'
tg44
tp1678
a((S'8'
g307
t(S'8'
g308
tg178
tp1679
a((S'1'
S'E0_10_R0_11_R1_11_T_E0'
p1680
tp1681
(S'1'
S'E0_10_R0_11_R1_11_T_R0'
tg44
tp1682
a((S'9'
g310
t(S'9'
S'E0_11_R0_10_R1_01_T_R1'
p1683
tg181
tp1684
a((S'2'
g1096
t(S'2'
S'E0_11_R0_00_R1_00_T_E0'
p1685
tg141
tp1686
a(g1664
(S'4'
S'E0_01_R0_11_R1_00_T_R0'
tg54
tp1687
a(g1392
(S'5'
S'E0_11_R0_10_R1_00_T_R0'
tg44
tp1688
a((S'8'
g602
t(S'8'
g603
tg10
tp1689
a((S'8'
g240
t(S'8'
g268
tg96
tp1690
a((S'2'
S'E0_00_R0_00_R1_10_T_E0'
p1691
tp1692
(S'2'
S'E0_00_R0_00_R1_10_T_R0'
tg44
tp1693
a((S'4'
g484
t(S'4'
g1230
tg52
tp1694
a((S'4'
g708
tp1695
(S'4'
S'E0_01_R0_10_R1_01_T_R0'
tg54
tp1696
a((S'7'
g521
t(S'7'
g522
tg30
tp1697
a((S'6'
g1074
t(S'6'
g1075
tg141
tp1698
a((S'9'
g8
t(S'9'
g9
tg10
tp1699
a((S'2'
g566
t(S'2'
g567
tg40
tp1700
a((S'5'
S'E0_10_R0_10_R1_00_T_E0'
p1701
tp1702
(S'5'
S'E0_10_R0_10_R1_00_T_R0'
tg44
tp1703
a((S'7'
g876
t(S'7'
S'E0_01_R0_11_R1_11_T_R1'
p1704
tg88
tp1705
a(g327
(S'4'
S'E0_10_R0_01_R1_00_T_R0'
tg26
tp1706
a((S'5'
S'E0_10_R0_01_R1_11_T_E0'
p1707
tp1708
(S'5'
S'E0_10_R0_01_R1_11_T_R0'
tg44
tp1709
a((S'3'
g329
t(S'3'
g814
tg68
tp1710
a((S'6'
g273
t(S'6'
g1094
tg22
tp1711
a((S'5'
g343
t(S'5'
g344
tg181
tp1712
a((S'2'
g724
t(S'2'
g1123
tg18
tp1713
a((S'5'
g293
t(S'5'
S'E0_11_R0_01_R1_00_T_R1'
p1714
tg48
tp1715
a((S'7'
g673
t(S'7'
g1341
tg96
tp1716
a((S'2'
g310
t(S'2'
g1683
tg181
tp1717
a((S'5'
g381
t(S'5'
S'E0_10_R0_11_R1_10_T_R1'
p1718
tg110
tp1719
a((S'7'
g139
t(S'7'
S'E0_01_R0_01_R1_00_T_E0'
p1720
tg22
tp1721
a((S'4'
g83
t(S'4'
g316
tg181
tp1722
a((S'7'
g66
t(S'7'
g1303
tg181
tp1723
a((g7
g566
t(g7
S'E0_01_R0_10_R1_00_T_E0'
p1724
tg96
tp1725
a((S'5'
g452
t(S'5'
g1362
tg88
tp1726
a((S'2'
g240
t(S'2'
g241
tg141
tp1727
a((S'8'
S'E0_00_R0_00_R1_10_T_E0'
p1728
tp1729
(S'8'
S'E0_00_R0_00_R1_10_T_R0'
tg44
tp1730
a((S'6'
g304
t(S'6'
g427
tg141
tp1731
a((S'4'
S'E0_01_R0_10_R1_10_T_E0'
p1732
tp1733
(S'4'
S'E0_11_R0_10_R1_10_T_R0'
tg26
tp1734
a((S'3'
g94
t(S'3'
g122
tg52
tp1735
a((S'7'
g772
t(S'7'
g773
tg110
tp1736
a((g7
g12
t(g7
g1187
tg96
tp1737
a((S'7'
g631
t(S'7'
g888
tg30
tp1738
a((S'2'
g290
t(S'2'
g671
tg141
tp1739
a((S'4'
g245
t(S'4'
g595
tg48
tp1740
a((S'3'
g516
t(S'3'
g1110
tg22
tp1741
a((S'4'
g605
t(S'4'
g1601
tg181
tp1742
a((S'4'
g139
t(S'4'
g1720
tg22
tp1743
a((S'2'
g164
t(S'2'
g749
tg181
tp1744
a((S'8'
g119
t(S'8'
S'E0_00_R0_00_R1_01_T_E0'
p1745
tg78
tp1746
a((S'9'
g1241
t(S'9'
g1466
tg92
tp1747
a((S'7'
g284
t(S'7'
g318
tg96
tp1748
a((S'4'
S'E0_00_R0_00_R1_11_T_E0'
p1749
tp1750
(S'4'
S'E0_00_R0_00_R1_11_T_R0'
tg44
tp1751
a((S'6'
g149
t(S'6'
g714
tg18
tp1752
a(g1261
(S'4'
S'E0_01_R0_11_R1_01_T_R0'
tg54
tp1753
a((S'9'
g605
t(S'9'
g606
tg110
tp1754
a((S'2'
g265
t(S'2'
g444
tg48
tp1755
a((g7
g301
t(g7
g302
tg64
tp1756
a((S'9'
g1523
t(S'9'
g1524
tg40
tp1757
a((S'4'
g384
t(S'4'
S'E0_11_R0_11_R1_10_T_R1'
p1758
tg181
tp1759
a((S'4'
g290
t(S'4'
g1459
tg96
tp1760
a((S'7'
g390
t(S'7'
S'E0_01_R0_10_R1_11_T_R1'
p1761
tg10
tp1762
a((S'4'
g186
t(S'4'
S'E0_11_R0_00_R1_11_T_R1'
p1763
tg10
tp1764
a((S'3'
g35
t(S'3'
g299
tg18
tp1765
a((S'9'
g310
t(S'9'
S'E0_11_R0_01_R1_01_T_R1'
p1766
tg88
tp1767
a((S'3'
S'E0_10_R0_01_R1_00_T_E0'
p1768
tp1769
(S'3'
S'E0_10_R0_01_R1_00_T_R0'
tg44
tp1770
a((S'2'
g1096
t(S'2'
S'E0_11_R0_00_R1_01_T_E0'
p1771
tg78
tp1772
a(g741
(S'4'
S'E0_00_R0_01_R1_01_T_R0'
tg54
tp1773
a((S'7'
g539
t(S'7'
g1326
tg14
tp1774
a((S'5'
g1241
t(S'5'
S'E0_11_R0_10_R1_01_T_E0'
p1775
tg96
tp1776
a((S'2'
g189
t(S'2'
g990
tg18
tp1777
a(g394
(S'4'
S'E0_11_R0_01_R1_11_T_R0'
tg26
tp1778
a(g1436
(S'9'
S'E0_01_R0_00_R1_01_T_R0'
tg280
tp1779
a((S'4'
g1154
tp1780
(S'4'
S'E0_00_R0_01_R1_00_T_R0'
tg54
tp1781
a((S'4'
g634
t(S'4'
g635
tg78
tp1782
a((S'2'
g59
t(S'2'
g1385
tg40
tp1783
a((g7
g199
t(g7
g1252
tg92
tp1784
a((S'9'
S'E0_11_R0_01_R1_11_T_E0'
p1785
tp1786
(S'9'
S'E0_11_R0_01_R1_11_T_R0'
tg44
tp1787
a((S'3'
g164
t(S'3'
g492
tg68
tp1788
a((S'3'
g745
t(S'3'
S'E0_00_R0_11_R1_01_T_E0'
p1789
tg52
tp1790
a((S'4'
g253
t(S'4'
S'E0_00_R0_11_R1_11_T_R1'
p1791
tg18
tp1792
a(g415
(S'3'
S'E0_00_R0_01_R1_10_T_R0'
tg5
tp1793
a((S'9'
g304
t(S'9'
g305
tg96
tp1794
a((S'3'
g423
t(S'3'
S'E0_10_R0_11_R1_01_T_E0'
p1795
tg141
tp1796
a(g1174
(S'5'
S'E0_10_R0_01_R1_01_T_R0'
tg44
tp1797
a((S'4'
g393
tp1798
(S'4'
S'E0_01_R0_01_R1_11_T_R0'
tg44
tp1799
a((S'9'
g697
t(S'9'
S'E0_11_R0_00_R1_00_T_R1'
p1800
tg10
tp1801
a((S'3'
g189
t(S'3'
g190
tg88
tp1802
a((S'9'
S'E0_11_R0_00_R1_10_T_E0'
p1803
tp1804
(S'9'
S'E0_11_R0_00_R1_10_T_R0'
tg44
tp1805
a((S'4'
g631
t(S'4'
S'E0_01_R0_01_R1_10_T_E0'
p1806
tg40
tp1807
a((S'4'
g555
t(S'4'
S'E0_01_R0_10_R1_10_T_R1'
p1808
tg181
tp1809
a(g314
(S'6'
S'E0_11_R0_11_R1_11_T_R0'
tg334
tp1810
a(g965
(S'4'
S'E0_11_R0_01_R1_00_T_R0'
tg44
tp1811
a((S'2'
g680
t(S'2'
S'E0_00_R0_00_R1_00_T_E0'
p1812
tg14
tp1813
a((S'7'
g119
t(S'7'
g1745
tg78
tp1814
a((S'7'
g737
t(S'7'
S'E0_00_R0_11_R1_10_T_R1'
p1815
tg88
tp1816
a(g1155
(S'5'
S'E0_10_R0_01_R1_00_T_R0'
tg44
tp1817
a((S'6'
g174
t(S'6'
g175
tg14
tp1818
a(g1702
(S'4'
S'E0_00_R0_10_R1_00_T_R0'
tg54
tp1819
a((S'3'
S'E0_00_R0_10_R1_11_T_E0'
p1820
tp1821
(S'3'
S'E0_00_R0_10_R1_11_T_R0'
tg44
tp1822
a((S'1'
g614
t(S'1'
g664
tg52
tp1823
a((S'2'
g539
t(S'2'
g540
tg96
tp1824
a(g942
(S'2'
S'E0_10_R0_10_R1_11_T_R0'
tg44
tp1825
a((S'1'
g1492
t(S'1'
g1552
tg48
tp1826
a((S'9'
g1241
t(S'9'
g1343
tg40
tp1827
a((S'9'
g127
t(S'9'
g128
tg96
tp1828
a((S'9'
g46
t(S'9'
g1368
tg64
tp1829
a((S'9'
g1523
t(S'9'
S'E0_01_R0_00_R1_01_T_E0'
p1830
tg96
tp1831
a((S'3'
g119
t(S'3'
g1745
tg78
tp1832
a((S'4'
g381
t(S'4'
g1718
tg110
tp1833
a((g7
S'E0_01_R0_00_R1_00_T_E0'
p1834
tp1835
(g7
S'E0_01_R0_00_R1_00_T_R0'
tg44
tp1836
a((S'9'
g186
t(S'9'
g1763
tg10
tp1837
a((S'4'
g149
t(S'4'
g714
tg18
tp1838
a((g7
g363
t(g7
g364
tg78
tp1839
a((S'5'
g372
t(S'5'
g1280
tg10
tp1840
a((S'2'
g8
t(S'2'
S'E0_01_R0_00_R1_00_T_R1'
p1841
tg178
tp1842
a((g7
g605
t(g7
g1176
tg88
tp1843
a((S'4'
g127
t(S'4'
g1106
tg92
tp1844
a((S'4'
g459
t(S'4'
g646
tg141
tp1845
a(g1332
(S'1'
S'E0_10_R0_11_R1_10_T_R0'
tg399
tp1846
a((S'7'
g12
t(S'7'
g13
tg14
tp1847
a((S'3'
g204
t(S'3'
g1375
tg64
tp1848
a((S'2'
g149
t(S'2'
g714
tg18
tp1849
a((S'3'
S'E0_00_R0_01_R1_10_T_E0'
p1850
tp1851
(S'3'
S'E0_00_R0_01_R1_10_T_R0'
tg44
tp1852
a((S'9'
g631
t(S'9'
g1806
tg40
tp1853
a((S'7'
g737
t(S'7'
g738
tg48
tp1854
a((S'5'
g964
tp1855
(S'5'
S'E0_11_R0_01_R1_00_T_R0'
tg44
tp1856
a((S'2'
g423
t(S'2'
g1795
tg141
tp1857
a((S'7'
g802
tp1858
(S'4'
S'E0_11_R0_00_R1_00_T_R0'
tg26
tp1859
a((S'7'
g1213
t(S'7'
S'E0_01_R0_11_R1_00_T_R1'
p1860
tg181
tp1861
a((S'3'
g90
t(S'3'
g91
tg92
tp1862
a((S'3'
g35
t(S'3'
g957
tg68
tp1863
a((S'7'
g1213
t(S'7'
g1214
tg18
tp1864
a((S'7'
g711
t(S'7'
S'E0_01_R0_01_R1_01_T_E0'
p1865
tg96
tp1866
a((S'4'
g711
t(S'4'
g1865
tg96
tp1867
a(g512
(S'5'
S'E0_10_R0_10_R1_10_T_R0'
tg26
tp1868
a((S'2'
S'E0_00_R0_11_R1_01_T_E0'
p1869
tp1870
(S'2'
S'E0_00_R0_11_R1_01_T_R0'
tg44
tp1871
a((S'8'
g745
t(S'8'
g1656
tg40
tp1872
a((S'4'
g343
t(S'4'
S'E0_11_R0_01_R1_11_T_R1'
p1873
tg88
tp1874
a((S'5'
g62
t(S'5'
g63
tg64
tp1875
a((S'7'
g1523
t(S'7'
g1830
tg96
tp1876
a(g1181
(S'9'
S'E0_11_R0_10_R1_10_T_R0'
tg280
tp1877
a((S'3'
g1492
t(S'3'
g1642
tg18
tp1878
a((S'9'
g782
t(S'9'
g783
tg92
tp1879
a((S'2'
S'E0_10_R0_11_R1_00_T_E0'
p1880
tp1881
(S'9'
S'E0_11_R0_11_R1_00_T_R0'
tg280
tp1882
a((S'5'
S'E0_10_R0_10_R1_11_T_E0'
p1883
tp1884
(S'5'
S'E0_10_R0_10_R1_11_T_R0'
tg44
tp1885
a((S'4'
g105
t(S'4'
g233
tg64
tp1886
a((S'4'
g351
t(S'4'
g497
tg96
tp1887
a((S'6'
S'E0_11_R0_01_R1_00_T_E0'
p1888
tp1889
(S'6'
S'E0_11_R0_01_R1_00_T_R0'
tg44
tp1890
a((S'2'
g273
t(S'2'
g1094
tg22
tp1891
a((S'5'
g130
t(S'5'
g1387
tg141
tp1892
a((S'4'
S'E0_00_R0_11_R1_00_T_E0'
p1893
tp1894
(S'4'
S'E0_10_R0_11_R1_00_T_R0'
tg26
tp1895
a((g7
g555
t(g7
S'E0_01_R0_00_R1_10_T_R1'
p1896
tg18
tp1897
a((g7
g876
t(g7
g1704
tg88
tp1898
a((S'4'
g539
t(S'4'
g1326
tg14
tp1899
a((S'2'
g602
t(S'2'
g1072
tg68
tp1900
a((S'9'
g235
t(S'9'
g236
tg181
tp1901
a(g1541
(S'9'
S'E0_01_R0_10_R1_11_T_R0'
tg280
tp1902
a((S'4'
g711
t(S'4'
S'E0_01_R0_01_R1_00_T_E0'
p1903
tg14
tp1904
a((S'8'
g521
t(S'8'
S'E0_00_R0_00_R1_10_T_E0'
p1905
tg40
tp1906
a((S'2'
g680
t(S'2'
g954
tg40
tp1907
a((S'3'
g947
t(S'3'
S'E0_10_R0_00_R1_01_T_E0'
p1908
tg52
tp1909
a((S'4'
g737
t(S'4'
g1815
tg88
tp1910
a((S'9'
g56
t(S'9'
g238
tg68
tp1911
a((S'7'
g683
tp1912
(S'7'
S'E0_01_R0_11_R1_00_T_R0'
tg44
tp1913
a(g1884
(S'4'
S'E0_00_R0_10_R1_11_T_R0'
tg54
tp1914
a((S'6'
g293
t(S'6'
g294
tg88
tp1915
a((S'4'
g419
t(S'4'
g527
tg141
tp1916
a((S'7'
g673
t(S'7'
S'E0_01_R0_11_R1_11_T_E0'
p1917
tg52
tp1918
a((g7
g245
t(g7
S'E0_01_R0_00_R1_01_T_R1'
p1919
tg64
tp1920
a((S'5'
g213
t(S'5'
S'E0_11_R0_11_R1_00_T_E0'
p1921
tg141
tp1922
a((S'2'
g381
t(S'2'
g1083
tg88
tp1923
a((S'2'
g649
t(S'2'
S'E0_01_R0_01_R1_01_T_R1'
p1924
tg64
tp1925
a(g689
(S'4'
S'E0_00_R0_10_R1_10_T_R0'
tg54
tp1926
a((S'4'
g86
t(S'4'
g87
tg88
tp1927
a((S'2'
g782
t(S'2'
g1170
tg40
tp1928
a((S'4'
g76
t(S'4'
g77
tg78
tp1929
a((S'1'
g102
t(S'1'
g103
tg96
tp1930
a((S'4'
S'E0_01_R0_11_R1_01_T_E0'
p1931
tp1932
(S'4'
S'E0_01_R0_11_R1_01_T_R0'
tg44
tp1933
a((S'4'
g649
t(S'4'
g1924
tg64
tp1934
a((S'4'
S'E0_00_R0_00_R1_01_T_E0'
p1935
tp1936
(S'4'
S'E0_00_R0_00_R1_01_T_R0'
tg44
tp1937
a((S'5'
g516
t(S'5'
g517
tg14
tp1938
a((S'4'
g284
t(S'4'
S'E0_00_R0_00_R1_01_T_E0'
p1939
tg141
tp1940
a((S'8'
g94
t(S'8'
g95
tg96
tp1941
a((S'4'
g925
t(S'4'
S'E0_01_R0_00_R1_00_T_E0'
p1942
tg141
tp1943
a((S'8'
g32
t(S'8'
g33
tg18
tp1944
a((g7
g301
t(g7
g1200
tg48
tp1945
a((S'9'
g46
t(S'9'
g533
tg88
tp1946
a((S'9'
g354
t(S'9'
g375
tg10
tp1947
a((S'4'
g248
t(S'4'
g1070
tg14
tp1948
a((S'7'
g124
t(S'7'
g1232
tg10
tp1949
a((S'5'
g336
t(S'5'
g824
tg52
tp1950
a((S'9'
g46
t(S'9'
g47
tg48
tp1951
a(g618
(S'4'
S'E0_01_R0_00_R1_01_T_R0'
tg44
tp1952
a((S'9'
g213
t(S'9'
g1921
tg141
tp1953
a((S'8'
g579
t(S'8'
g931
tg88
tp1954
a((S'7'
g363
t(S'7'
S'E0_01_R0_01_R1_11_T_E0'
p1955
tg52
tp1956
a((S'2'
S'E0_11_R0_00_R1_00_T_E0'
p1957
tp1958
(S'7'
S'E0_01_R0_00_R1_00_T_R0'
tg54
tp1959
a((S'4'
g737
t(S'4'
g738
tg48
tp1960
a((S'9'
g542
t(S'9'
g894
tg88
tp1961
a((S'2'
g73
t(S'2'
g506
tg18
tp1962
a((S'7'
g290
t(S'7'
g291
tg22
tp1963
a((S'4'
g183
t(S'4'
S'E0_00_R0_10_R1_01_T_E0'
p1964
tg52
tp1965
a((S'4'
g207
t(S'4'
g1139
tg88
tp1966
a((S'1'
g98
t(S'1'
g1299
tg40
tp1967
a((S'2'
g164
t(S'2'
g492
tg68
tp1968
a((S'2'
g90
t(S'2'
g961
tg40
tp1969
a((S'4'
g90
t(S'4'
S'E0_10_R0_00_R1_00_T_E0'
p1970
tg14
tp1971
a((S'4'
g602
t(S'4'
S'E0_00_R0_11_R1_00_T_R1'
p1972
tg181
tp1973
a(g525
(S'7'
S'E0_01_R0_10_R1_10_T_R0'
tg54
tp1974
a((S'4'
g602
t(S'4'
g767
tg18
tp1975
a((S'5'
g360
t(S'5'
g1195
tg88
tp1976
a((S'2'
g1523
t(S'2'
g1830
tg96
tp1977
a((S'4'
g1523
t(S'4'
S'E0_01_R0_00_R1_10_T_E0'
p1978
tg92
tp1979
a((S'9'
g186
t(S'9'
g457
tg18
tp1980
a(g480
(S'4'
S'E0_10_R0_11_R1_10_T_R0'
tg26
tp1981
a(g1633
(S'3'
S'E0_00_R0_11_R1_01_T_R0'
tg5
tp1982
a((S'1'
g1088
t(S'1'
g1307
tg68
tp1983
a((S'5'
g452
t(S'5'
g453
tg18
tp1984
a((S'2'
g396
t(S'2'
g1015
tg14
tp1985
a((S'8'
S'E0_00_R0_10_R1_11_T_E0'
p1986
tp1987
(S'8'
S'E0_00_R0_10_R1_11_T_R0'
tg44
tp1988
a((S'4'
g363
t(S'4'
g364
tg78
tp1989
a((S'8'
g737
t(S'8'
g922
tg64
tp1990
a((S'2'
g661
t(S'2'
g662
tg181
tp1991
a((S'4'
g1213
t(S'4'
S'E0_01_R0_00_R1_00_T_R1'
p1992
tg10
tp1993
a((S'9'
g139
t(S'9'
g1447
tg96
tp1994
a((S'2'
S'E0_01_R0_01_R1_01_T_E0'
p1995
tp1996
(S'3'
S'E0_00_R0_01_R1_01_T_R0'
tg5
tp1997
a((S'4'
g1492
t(S'4'
g1642
tg18
tp1998
a((S'6'
g582
t(S'6'
S'E0_11_R0_10_R1_01_T_E0'
p1999
tg52
tp2000
a((S'4'
g1096
t(S'4'
g1685
tg141
tp2001
a((S'8'
S'E0_00_R0_11_R1_10_T_E0'
p2002
tp2003
(S'8'
S'E0_00_R0_11_R1_10_T_R0'
tg44
tp2004
a((S'8'
S'E0_00_R0_10_R1_00_T_E0'
p2005
tp2006
(S'8'
S'E0_00_R0_10_R1_00_T_R0'
tg44
tp2007
a((S'2'
g235
t(S'2'
S'E0_01_R0_01_R1_10_T_R1'
p2008
tg18
tp2009
a((S'1'
g484
t(S'1'
g549
tg30
tp2010
a((S'4'
g1238
tp2011
(S'4'
S'E0_00_R0_10_R1_10_T_R0'
tg44
tp2012
a((S'3'
g602
t(S'3'
g767
tg18
tp2013
a((g7
g925
t(g7
g1078
tg52
tp2014
a((S'4'
g56
t(S'4'
g180
tg181
tp2015
a((S'2'
g174
t(S'2'
g918
tg40
tp2016
a(g722
(S'6'
S'E0_11_R0_11_R1_00_T_R0'
tg334
tp2017
a((S'6'
g360
t(S'6'
g1195
tg88
tp2018
a((S'4'
g363
t(S'4'
g446
tg96
tp2019
a((S'4'
g673
t(S'4'
g674
tg141
tp2020
a((g7
g928
t(g7
g929
tg88
tp2021
a((S'3'
g221
t(S'3'
S'E0_10_R0_10_R1_01_T_E0'
p2022
tg141
tp2023
a((S'6'
g161
t(S'6'
S'E0_11_R0_11_R1_11_T_E0'
p2024
tg30
tp2025
a((S'8'
g284
t(S'8'
S'E0_00_R0_00_R1_00_T_E0'
p2026
tg22
tp2027
a((S'7'
g354
t(S'7'
g375
tg10
tp2028
a((S'4'
g396
t(S'4'
g397
tg141
tp2029
a((S'4'
g1365
tp2030
(S'4'
S'E0_11_R0_10_R1_10_T_R0'
tg44
tp2031
a((S'7'
g50
t(S'7'
g51
tg52
tp2032
a(g995
(S'5'
S'E0_10_R0_01_R1_00_T_R0'
tg26
tp2033
a((S'4'
g301
t(S'4'
g1200
tg48
tp2034
a((S'3'
g745
t(S'3'
S'E0_00_R0_11_R1_11_T_E0'
p2035
tg30
tp2036
a((S'9'
g304
t(S'9'
g569
tg22
tp2037
a((S'2'
g127
t(S'2'
g1106
tg92
tp2038
a((S'4'
g423
t(S'4'
g1795
tg141
tp2039
a((S'2'
g20
t(S'2'
g21
tg22
tp2040
a((S'2'
g73
t(S'2'
g1406
tg10
tp2041
a((S'3'
g387
t(S'3'
g388
tg78
tp2042
a((S'9'
g925
t(S'9'
g1078
tg52
tp2043
a((S'3'
g102
t(S'3'
g103
tg96
tp2044
a((S'7'
g772
t(S'7'
g908
tg88
tp2045
a((S'5'
g357
t(S'5'
g832
tg52
tp2046
a((S'3'
g381
t(S'3'
g1083
tg88
tp2047
a(g1504
(S'2'
S'E0_00_R0_10_R1_00_T_R0'
tg44
tp2048
a((S'3'
g602
t(S'3'
g1072
tg68
tp2049
a((S'5'
g409
t(S'5'
g1204
tg141
tp2050
a((S'9'
g28
t(S'9'
g1060
tg52
tp2051
a((S'1'
g62
t(S'1'
S'E0_10_R0_11_R1_01_T_R1'
p2052
tg88
tp2053
a((S'5'
g174
t(S'5'
S'E0_11_R0_00_R1_10_T_E0'
p2054
tg92
tp2055
a((S'4'
g161
t(S'4'
g499
tg96
tp2056
a((S'3'
S'E0_10_R0_10_R1_10_T_E0'
p2057
tp2058
(S'3'
S'E0_10_R0_10_R1_10_T_R0'
tg44
tp2059
a((S'2'
g772
t(S'2'
g834
tg18
tp2060
a((S'5'
g563
t(S'5'
g686
tg64
tp2061
a(g968
(S'9'
S'E0_11_R0_01_R1_11_T_R0'
tg280
tp2062
a((g7
g199
t(g7
g200
tg40
tp2063
a((S'4'
g189
t(S'4'
g202
tg110
tp2064
a(g279
(S'7'
S'E0_00_R0_10_R1_01_T_R0'
tg54
tp2065
a((S'4'
g928
t(S'4'
S'E0_01_R0_11_R1_01_T_R1'
p2066
tg110
tp2067
a((S'7'
g224
t(S'7'
g225
tg92
tp2068
a((S'4'
g66
t(S'4'
S'E0_00_R0_00_R1_01_T_R1'
p2069
tg10
tp2070
a((S'7'
g691
t(S'7'
S'E0_00_R0_10_R1_00_T_R1'
p2071
tg18
tp2072
a((S'4'
g516
t(S'4'
S'E0_10_R0_00_R1_11_T_E0'
p2073
tg96
tp2074
a((g7
g605
t(g7
g1328
tg18
tp2075
a((S'6'
g186
t(S'6'
g504
tg181
tp2076
a((S'4'
g521
t(S'4'
g522
tg30
tp2077
a((S'4'
g360
t(S'4'
g361
tg18
tp2078
a((S'8'
g216
t(S'8'
g1216
tg64
tp2079
a((S'8'
S'E0_00_R0_00_R1_00_T_E0'
p2080
tp2081
(S'8'
S'E0_00_R0_00_R1_00_T_R0'
tg44
tp2082
a((S'4'
g390
t(S'4'
g391
tg18
tp2083
a((S'5'
g384
t(S'5'
g1758
tg181
tp2084
a((S'5'
g387
t(S'5'
S'E0_10_R0_10_R1_00_T_E0'
p2085
tg141
tp2086
a((S'9'
g655
t(S'9'
S'E0_01_R0_10_R1_00_T_E0'
p2087
tg141
tp2088
a((S'9'
g631
t(S'9'
g632
tg96
tp2089
a((S'7'
g711
t(S'7'
g1009
tg92
tp2090
a((S'1'
g724
t(S'1'
g1123
tg18
tp2091
a((S'5'
g1148
tp2092
(S'5'
S'E0_11_R0_10_R1_11_T_R0'
tg44
tp2093
a((S'5'
g343
t(S'5'
g1873
tg88
tp2094
a((S'2'
g301
t(S'2'
g1546
tg18
tp2095
a((S'2'
g248
t(S'2'
S'E0_00_R0_01_R1_01_T_E0'
p2096
tg96
tp2097
a((S'2'
g139
t(S'2'
g1447
tg96
tp2098
a((S'1'
g724
t(S'1'
S'E0_10_R0_10_R1_00_T_R1'
p2099
tg10
tp2100
a((S'8'
g307
t(S'8'
g1442
tg18
tp2101
a((S'6'
g130
t(S'6'
g131
tg22
tp2102
a((S'1'
g409
t(S'1'
g1204
tg141
tp2103
a((S'4'
g245
t(S'4'
g246
tg88
tp2104
a((S'3'
g183
t(S'3'
g1065
tg40
tp2105
a((S'4'
g304
t(S'4'
g305
tg96
tp2106
a((S'4'
S'E0_01_R0_00_R1_11_T_E0'
p2107
tp2108
(S'4'
S'E0_11_R0_00_R1_11_T_R0'
tg26
tp2109
a((S'3'
g772
t(S'3'
g773
tg110
tp2110
a((S'4'
g224
t(S'4'
g622
tg40
tp2111
a((S'5'
g265
t(S'5'
g820
tg88
tp2112
a((S'2'
g900
t(S'2'
g901
tg14
tp2113
a((S'4'
g724
t(S'4'
g725
tg64
tp2114
a((S'2'
g944
t(S'2'
g1440
tg10
tp2115
a((S'4'
g873
tp2116
(S'4'
S'E0_00_R0_00_R1_11_T_R0'
tg54
tp2117
a(g1936
(S'4'
S'E0_10_R0_00_R1_01_T_R0'
tg26
tp2118
a((S'2'
g35
t(S'2'
g957
tg68
tp2119
a((S'7'
g925
t(S'7'
g926
tg78
tp2120
a(g1541
(S'5'
S'E0_10_R0_10_R1_11_T_R0'
tg26
tp2121
a((S'2'
g224
t(S'2'
g622
tg40
tp2122
a((g7
g207
t(g7
g1139
tg88
tp2123
a((S'6'
g384
t(S'6'
S'E0_11_R0_01_R1_10_T_R1'
p2124
tg18
tp2125
a((S'5'
g35
t(S'5'
g957
tg68
tp2126
a((S'8'
g419
t(S'8'
g754
tg78
tp2127
a((S'2'
g108
t(S'2'
g109
tg110
tp2128
a((S'7'
g900
t(S'7'
g901
tg14
tp2129
a((S'2'
g419
t(S'2'
g420
tg52
tp2130
a((S'3'
g944
t(S'3'
g1440
tg10
tp2131
a((S'2'
g130
t(S'2'
g836
tg14
tp2132
a((S'5'
g130
t(S'5'
g131
tg22
tp2133
a((S'2'
g235
t(S'2'
g1432
tg68
tp2134
a((S'4'
g343
t(S'4'
g732
tg110
tp2135
a((S'9'
S'E0_01_R0_10_R1_10_T_E0'
p2136
tp2137
(S'9'
S'E0_01_R0_10_R1_10_T_R0'
tg44
tp2138
a((S'3'
g680
t(S'3'
g954
tg40
tp2139
a((S'1'
S'E0_10_R0_01_R1_00_T_E0'
p2140
tp2141
(S'1'
S'E0_10_R0_01_R1_00_T_R0'
tg44
tp2142
a((S'4'
g484
t(S'4'
g716
tg40
tp2143
a((S'8'
S'E0_00_R0_00_R1_01_T_E0'
p2144
tp2145
(S'8'
S'E0_00_R0_00_R1_01_T_R0'
tg44
tp2146
a((S'4'
g287
t(S'4'
S'E0_00_R0_00_R1_11_T_R1'
p2147
tg18
tp2148
a((S'5'
S'E0_11_R0_00_R1_11_T_E0'
p2149
tp2150
(S'5'
S'E0_11_R0_00_R1_11_T_R0'
tg44
tp2151
a((S'9'
g452
t(S'9'
S'E0_11_R0_00_R1_10_T_R1'
p2152
tg64
tp2153
a((S'4'
g8
t(S'4'
g9
tg10
tp2154
a((S'4'
g124
t(S'4'
g177
tg178
tp2155
a((S'5'
g381
t(S'5'
g382
tg18
tp2156
a((S'2'
g161
t(S'2'
S'E0_11_R0_11_R1_10_T_E0'
p2157
tg40
tp2158
a(g807
(g7
S'E0_01_R0_00_R1_11_T_R0'
tg231
tp2159
a((S'2'
g673
t(S'2'
g1496
tg78
tp2160
a((S'5'
g304
t(S'5'
g569
tg22
tp2161
a(g812
(S'3'
S'E0_00_R0_01_R1_11_T_R0'
tg5
tp2162
a((S'2'
g207
t(S'2'
S'E0_01_R0_00_R1_00_T_R1'
p2163
tg18
tp2164
a((S'2'
g174
t(S'2'
g2054
tg92
tp2165
a((S'3'
g691
t(S'3'
g2071
tg18
tp2166
a((S'8'
g602
t(S'8'
g1072
tg68
tp2167
a((S'2'
S'E0_11_R0_10_R1_00_T_E0'
p2168
tp2169
(S'8'
S'E0_00_R0_10_R1_00_T_R0'
tg169
tp2170
a((S'2'
g70
t(S'2'
g71
tg18
tp2171
a((S'9'
g357
t(S'9'
g1011
tg141
tp2172
a(g4
(S'2'
S'E0_11_R0_11_R1_00_T_R0'
tg44
tp2173
a((S'9'
g213
t(S'9'
S'E0_11_R0_11_R1_11_T_E0'
p2174
tg52
tp2175
a((S'7'
g66
t(S'7'
g67
tg68
tp2176
a((S'8'
g602
t(S'8'
g1972
tg181
tp2177
a((S'7'
g602
t(S'7'
g1972
tg181
tp2178
a((S'6'
g149
t(S'6'
g587
tg178
tp2179
a((S'5'
g459
t(S'5'
g460
tg52
tp2180
a((S'4'
g1883
tp2181
(S'4'
S'E0_00_R0_10_R1_11_T_R0'
tg54
tp2182
a((S'7'
g602
t(S'7'
g603
tg10
tp2183
a((S'1'
S'E0_10_R0_10_R1_11_T_E0'
p2184
tp2185
(S'1'
S'E0_10_R0_10_R1_11_T_R0'
tg44
tp2186
a((S'6'
g434
t(S'6'
g1383
tg178
tp2187
a((S'3'
g366
t(S'3'
g367
tg181
tp2188
a((S'9'
g301
t(S'9'
S'E0_01_R0_11_R1_00_T_R1'
p2189
tg88
tp2190
a((S'3'
g265
t(S'3'
g417
tg18
tp2191
a((S'9'
g539
t(S'9'
S'E0_01_R0_10_R1_01_T_E0'
p2192
tg141
tp2193
a((S'3'
g16
t(S'3'
g261
tg110
tp2194
a((S'7'
g50
t(S'7'
g879
tg141
tp2195
a((S'9'
S'E0_11_R0_00_R1_00_T_E0'
p2196
tp2197
(S'9'
S'E0_11_R0_00_R1_00_T_R0'
tg44
tp2198
a((S'9'
g925
t(S'9'
g1942
tg141
tp2199
a((S'9'
g28
t(S'9'
g561
tg40
tp2200
a((S'4'
g649
t(S'4'
g669
tg10
tp2201
a((S'4'
S'E0_10_R0_11_R1_01_T_E0'
p2202
tp2203
(S'4'
S'E0_10_R0_11_R1_01_T_R0'
tg44
tp2204
a((S'9'
g199
t(S'9'
g219
tg14
tp2205
a((S'5'
g1663
tp2206
(S'5'
S'E0_11_R0_11_R1_00_T_R0'
tg44
tp2207
a((S'2'
g947
t(S'2'
S'E0_10_R0_00_R1_10_T_E0'
p2208
tg40
tp2209
a((S'4'
g627
tp2210
(S'4'
S'E0_00_R0_00_R1_01_T_R0'
tg54
tp2211
a((S'4'
g366
t(S'4'
g743
tg18
tp2212
a((S'1'
g372
t(S'1'
g1537
tg181
tp2213
a((S'2'
g539
t(S'2'
S'E0_01_R0_10_R1_00_T_E0'
p2214
tg22
tp2215
a(g1633
(S'1'
S'E0_10_R0_11_R1_01_T_R0'
tg399
tp2216
a((S'4'
g336
t(S'4'
g903
tg141
tp2217
a((S'7'
g301
t(S'7'
g1546
tg18
tp2218
a((S'2'
g12
t(S'2'
g1228
tg40
tp2219
a((S'5'
g310
t(S'5'
S'E0_11_R0_11_R1_01_T_R1'
p2220
tg110
tp2221
a((S'9'
g1241
t(S'9'
g1242
tg14
tp2222
a((S'9'
g207
t(S'9'
g2163
tg18
tp2223
a((S'3'
g614
t(S'3'
g1274
tg96
tp2224
a((S'2'
g310
t(S'2'
g2220
tg110
tp2225
a((S'4'
g284
t(S'4'
g285
tg14
tp2226
a((S'3'
g253
t(S'3'
g282
tg178
tp2227
a((S'1'
g387
t(S'1'
S'E0_10_R0_10_R1_11_T_E0'
p2228
tg52
tp2229
a((S'3'
g66
t(S'3'
S'E0_00_R0_01_R1_01_T_R1'
p2230
tg18
tp2231
a((S'2'
g900
t(S'2'
S'E0_01_R0_11_R1_01_T_E0'
p2232
tg141
tp2233
a(g1517
(S'4'
S'E0_11_R0_10_R1_01_T_R0'
tg26
tp2234
a((S'4'
g32
t(S'4'
g157
tg64
tp2235
a((S'4'
g724
t(S'4'
g1123
tg18
tp2236
a((S'7'
g566
t(S'7'
S'E0_01_R0_10_R1_11_T_E0'
p2237
tg30
tp2238
a((S'5'
g423
t(S'5'
g424
tg96
tp2239
a((S'5'
g423
t(S'5'
g1404
tg22
tp2240
a((S'1'
g369
t(S'1'
g574
tg64
tp2241
a((S'9'
g711
t(S'9'
g712
tg40
tp2242
a((S'5'
g661
t(S'5'
g1320
tg110
tp2243
a(g752
(S'2'
S'E0_10_R0_00_R1_01_T_R0'
tg44
tp2244
a((S'7'
g253
t(S'7'
g1791
tg18
tp2245
a((S'4'
g199
t(S'4'
g219
tg14
tp2246
a((S'4'
g1213
t(S'4'
S'E0_01_R0_10_R1_00_T_R1'
p2247
tg68
tp2248
a((S'4'
g2149
tp2249
(S'4'
S'E0_01_R0_00_R1_11_T_R0'
tg54
tp2250
a((S'4'
g20
t(S'4'
g1222
tg14
tp2251
a(g1291
(S'5'
S'E0_10_R0_00_R1_00_T_R0'
tg26
tp2252
a((S'3'
g20
t(S'3'
g1029
tg141
tp2253
a((S'3'
g737
t(S'3'
g738
tg48
tp2254
a((S'7'
g253
t(S'7'
g976
tg10
tp2255
a((S'3'
g372
t(S'3'
g373
tg18
tp2256
a((S'2'
g928
t(S'2'
g2066
tg110
tp2257
a(g863
(S'3'
S'E0_00_R0_00_R1_11_T_R0'
tg5
tp2258
a((S'3'
g216
t(S'3'
g701
tg48
tp2259
a(g155
(S'9'
S'E0_01_R0_11_R1_10_T_R0'
tg280
tp2260
a((S'6'
g174
t(S'6'
g918
tg40
tp2261
a((S'5'
g86
t(S'5'
g377
tg18
tp2262
a((S'4'
g174
t(S'4'
g918
tg40
tp2263
a((S'7'
g139
t(S'7'
g140
tg141
tp2264
a((S'1'
g102
t(S'1'
S'E0_10_R0_10_R1_01_T_E0'
p2265
tg52
tp2266
a(g2116
(S'4'
S'E0_10_R0_00_R1_11_T_R0'
tg44
tp2267
a((S'9'
g351
t(S'9'
g352
tg40
tp2268
a((S'9'
g301
t(S'9'
g1546
tg18
tp2269
a((S'5'
g90
t(S'5'
g961
tg40
tp2270
a((S'4'
g329
t(S'4'
g330
tg181
tp2271
a((S'7'
g245
t(S'7'
S'E0_01_R0_10_R1_01_T_R1'
p2272
tg18
tp2273
a((S'4'
g1701
tp2274
(S'4'
S'E0_10_R0_10_R1_00_T_R0'
tg44
tp2275
a((S'6'
g161
t(S'6'
g499
tg96
tp2276
a((S'3'
g521
t(S'3'
g1112
tg52
tp2277
a((S'9'
g293
t(S'9'
g294
tg88
tp2278
a((S'8'
g133
t(S'8'
g775
tg14
tp2279
a((S'9'
g452
t(S'9'
g952
tg48
tp2280
a((S'2'
g390
t(S'2'
g455
tg178
tp2281
a((S'2'
g501
t(S'2'
S'E0_10_R0_10_R1_10_T_E0'
p2282
tg92
tp2283
a((S'3'
g419
t(S'3'
g754
tg78
tp2284
a((S'7'
g287
t(S'7'
g2147
tg18
tp2285
a((S'4'
g12
t(S'4'
g1228
tg40
tp2286
a((S'4'
g434
t(S'4'
g1383
tg178
tp2287
a((S'1'
g724
t(S'1'
S'E0_10_R0_00_R1_00_T_R1'
p2288
tg178
tp2289
a((S'9'
g434
t(S'9'
g435
tg64
tp2290
a((S'8'
g745
t(S'8'
g1789
tg52
tp2291
a((S'2'
g1054
t(S'2'
S'E0_11_R0_00_R1_01_T_R1'
p2292
tg10
tp2293
a((S'9'
g539
t(S'9'
g1326
tg14
tp2294
a((S'3'
g516
t(S'3'
g2073
tg96
tp2295
a((S'3'
g108
t(S'3'
g243
tg88
tp2296
a((S'3'
g80
t(S'3'
g263
tg52
tp2297
a((g7
g566
t(g7
g567
tg40
tp2298
a((S'7'
g419
t(S'7'
g822
tg96
tp2299
a((S'8'
g216
t(S'8'
g217
tg88
tp2300
a((S'2'
g248
t(S'2'
g1070
tg14
tp2301
a((S'2'
g221
t(S'2'
g551
tg22
tp2302
a((S'4'
g94
t(S'4'
g95
tg96
tp2303
a((S'2'
g1054
t(S'2'
g1168
tg18
tp2304
a((S'2'
g1241
t(S'2'
g1775
tg96
tp2305
a((S'5'
g98
t(S'5'
g1427
tg92
tp2306
a((S'1'
S'E0_10_R0_01_R1_11_T_E0'
p2307
tp2308
(S'1'
S'E0_10_R0_01_R1_11_T_R0'
tg44
tp2309
a(g536
(S'3'
S'E0_10_R0_00_R1_10_T_R0'
tg5
tp2310
a((S'9'
g673
t(S'9'
g1496
tg78
tp2311
a((S'7'
S'E0_01_R0_01_R1_01_T_E0'
p2312
tp2313
(S'7'
S'E0_01_R0_01_R1_01_T_R0'
tg44
tp2314
a((S'6'
g357
t(S'6'
g884
tg78
tp2315
a((S'6'
g296
t(S'6'
g1509
tg30
tp2316
a((S'4'
g1074
t(S'4'
g1429
tg96
tp2317
a((g7
g631
t(g7
g1806
tg40
tp2318
a((S'9'
g1054
t(S'9'
g1481
tg181
tp2319
a((S'7'
S'E0_00_R0_11_R1_01_T_E0'
p2320
tp2321
(S'4'
S'E0_10_R0_11_R1_01_T_R0'
tg26
tp2322
a((S'1'
g366
t(S'1'
g367
tg181
tp2323
a((S'7'
g1213
t(S'7'
g1992
tg10
tp2324
a((S'2'
g452
t(S'2'
g453
tg18
tp2325
a((g7
g900
t(g7
g2232
tg141
tp2326
a((S'4'
g366
t(S'4'
g1108
tg88
tp2327
a(g2274
(S'4'
S'E0_00_R0_10_R1_00_T_R0'
tg54
tp2328
a((S'2'
g1241
t(S'2'
g1343
tg40
tp2329
a((S'1'
g164
t(S'1'
g165
tg10
tp2330
a((S'2'
g213
t(S'2'
g2174
tg52
tp2331
a((S'8'
g691
t(S'8'
g886
tg88
tp2332
a((g7
g631
t(g7
g888
tg30
tp2333
a((S'4'
g655
t(S'4'
g656
tg96
tp2334
a(g1881
(S'2'
S'E0_10_R0_11_R1_00_T_R0'
tg44
tp2335
a(g333
(S'5'
S'E0_10_R0_01_R1_10_T_R0'
tg26
tp2336
a(g2169
(S'7'
S'E0_01_R0_10_R1_00_T_R0'
tg54
tp2337
a((S'2'
g253
t(S'2'
g254
tg64
tp2338
a((S'2'
g434
t(S'2'
g435
tg64
tp2339
a(g1018
(S'2'
S'E0_01_R0_01_R1_00_T_R0'
tg44
tp2340
a((S'1'
g59
t(S'1'
g1506
tg96
tp2341
a((S'2'
g661
t(S'2'
S'E0_11_R0_00_R1_10_T_R1'
p2342
tg18
tp2343
a((S'3'
g387
t(S'3'
S'E0_10_R0_10_R1_10_T_E0'
p2344
tg96
tp2345
a((S'4'
g372
t(S'4'
g1537
tg181
tp2346
a((S'9'
g566
t(S'9'
g1724
tg96
tp2347
a((S'2'
g459
t(S'2'
S'E0_11_R0_10_R1_01_T_E0'
p2348
tg78
tp2349
a((g7
g354
t(g7
S'E0_01_R0_11_R1_10_T_R1'
p2350
tg18
tp2351
a((S'4'
g501
t(S'4'
g1355
tg14
tp2352
a(g970
(S'7'
S'E0_00_R0_10_R1_11_T_R0'
tg44
tp2353
a((S'1'
g86
t(S'1'
g377
tg18
tp2354
a((S'4'
g12
t(S'4'
g13
tg14
tp2355
a((S'7'
g301
t(S'7'
g2189
tg88
tp2356
a((S'3'
g90
t(S'3'
g1970
tg14
tp2357
a((S'1'
g62
t(S'1'
S'E0_10_R0_10_R1_01_T_R1'
p2358
tg18
tp2359
a((S'7'
g843
tp2360
(S'4'
S'E0_11_R0_00_R1_10_T_R0'
tg26
tp2361
a((S'2'
g287
t(S'2'
g1449
tg110
tp2362
a((S'9'
g199
t(S'9'
g200
tg40
tp2363
a((S'5'
g434
t(S'5'
g435
tg64
tp2364
a((S'2'
g149
t(S'2'
g1027
tg64
tp2365
a((S'2'
g582
t(S'2'
g583
tg96
tp2366
a((S'3'
g381
t(S'3'
g382
tg18
tp2367
a(g807
(S'7'
S'E0_00_R0_00_R1_11_T_R0'
tg54
tp2368
a((S'2'
g555
t(S'2'
S'E0_01_R0_01_R1_10_T_R1'
p2369
tg88
tp2370
a((S'2'
g542
t(S'2'
g543
tg48
tp2371
a((g7
g290
t(g7
g291
tg22
tp2372
a(g1881
(g7
S'E0_01_R0_11_R1_00_T_R0'
tg231
tp2373
a((S'9'
g351
t(S'9'
g497
tg96
tp2374
a((S'9'
g301
t(S'9'
g302
tg64
tp2375
a((S'5'
g697
t(S'5'
g1800
tg10
tp2376
a((S'4'
g38
t(S'4'
g1425
tg30
tp2377
a((S'8'
g772
t(S'8'
g773
tg110
tp2378
a((S'5'
g2202
tp2379
(S'5'
S'E0_10_R0_11_R1_01_T_R0'
tg44
tp2380
a((S'6'
g130
t(S'6'
g836
tg14
tp2381
a((S'5'
g384
t(S'5'
g676
tg68
tp2382
a(g1593
(S'3'
S'E0_00_R0_11_R1_00_T_R0'
tg5
tp2383
a((g7
S'E0_01_R0_01_R1_00_T_E0'
p2384
tp2385
(g7
S'E0_01_R0_01_R1_00_T_R0'
tg44
tp2386
a((S'4'
g351
t(S'4'
g827
tg52
tp2387
a((S'2'
g555
t(S'2'
g556
tg110
tp2388
a((S'4'
g32
t(S'4'
g1206
tg88
tp2389
a((S'2'
g396
t(S'2'
g1208
tg96
tp2390
a((S'2'
g35
t(S'2'
g1535
tg181
tp2391
a((S'4'
g149
t(S'4'
g587
tg178
tp2392
a((S'6'
g357
t(S'6'
g358
tg96
tp2393
a((S'2'
g50
t(S'2'
g1673
tg78
tp2394
a(g1146
(S'4'
S'E0_01_R0_01_R1_01_T_R0'
tg54
tp2395
a((S'1'
g634
t(S'1'
g635
tg78
tp2396
a((S'2'
g83
t(S'2'
g316
tg181
tp2397
a((S'2'
g245
t(S'2'
g2272
tg18
tp2398
a((S'2'
g563
t(S'2'
g564
tg18
tp2399
a((S'8'
g196
t(S'8'
g379
tg68
tp2400
a((S'5'
g501
t(S'5'
g553
tg40
tp2401
a((S'3'
g521
t(S'3'
g1905
tg40
tp2402
a((S'7'
g207
t(S'7'
g1139
tg88
tp2403
a((S'4'
g876
t(S'4'
S'E0_01_R0_00_R1_11_T_R1'
p2404
tg64
tp2405
a((S'2'
g108
t(S'2'
g545
tg181
tp2406
a((S'4'
g1088
t(S'4'
g1307
tg68
tp2407
a((g7
g649
t(g7
g1924
tg64
tp2408
a(g1708
(S'4'
S'E0_00_R0_01_R1_11_T_R0'
tg54
tp2409
a((S'3'
g329
t(S'3'
g959
tg18
tp2410
a(g779
(S'4'
S'E0_11_R0_00_R1_01_T_R0'
tg44
tp2411
a((S'9'
g928
t(S'9'
g2066
tg110
tp2412
a((S'9'
g459
t(S'9'
g2348
tg78
tp2413
a((S'6'
g434
t(S'6'
S'E0_11_R0_11_R1_10_T_R1'
p2414
tg18
tp2415
a(g1219
(S'3'
S'E0_10_R0_00_R1_01_T_R0'
tg5
tp2416
a((S'1'
g409
t(S'1'
g429
tg22
tp2417
a((S'7'
g1213
t(S'7'
g2247
tg68
tp2418
a(g968
(S'7'
S'E0_00_R0_01_R1_11_T_R0'
tg54
tp2419
a((S'9'
S'E0_01_R0_00_R1_10_T_E0'
p2420
tp2421
(S'9'
S'E0_01_R0_00_R1_10_T_R0'
tg44
tp2422
a((S'6'
g782
t(S'6'
g788
tg14
tp2423
a((S'3'
g32
t(S'3'
g157
tg64
tp2424
a(g512
(S'6'
S'E0_11_R0_10_R1_10_T_R0'
tg334
tp2425
a((S'5'
g459
t(S'5'
g2348
tg78
tp2426
a((S'2'
g290
t(S'2'
g1459
tg96
tp2427
a((S'3'
g133
t(S'3'
g775
tg14
tp2428
a((S'2'
g70
t(S'2'
g449
tg88
tp2429
a((S'7'
S'E0_00_R0_01_R1_10_T_E0'
p2430
tp2431
(S'7'
S'E0_00_R0_01_R1_10_T_R0'
tg44
tp2432
a((S'5'
g102
t(S'5'
g103
tg96
tp2433
a((S'4'
g661
t(S'4'
g2342
tg18
tp2434
a((S'4'
g139
t(S'4'
g933
tg14
tp2435
a((S'7'
g539
t(S'7'
g540
tg96
tp2436
a((S'4'
g73
t(S'4'
g74
tg64
tp2437
a((S'9'
g605
t(S'9'
g1176
tg88
tp2438
a((S'4'
g50
t(S'4'
g1673
tg78
tp2439
a((S'9'
g56
t(S'9'
g829
tg10
tp2440
a((S'2'
g86
t(S'2'
g87
tg88
tp2441
a((S'2'
S'E0_01_R0_10_R1_01_T_E0'
p2442
tp2443
(S'1'
S'E0_10_R0_10_R1_01_T_R0'
tg399
tp2444
a((S'4'
g571
tp2445
(S'4'
S'E0_11_R0_10_R1_00_T_R0'
tp2446
g26
tp2447
a((S'3'
g98
t(S'3'
g1595
tg96
tp2448
a((S'3'
g216
t(S'3'
g1234
tg18
tp2449
a((S'9'
S'E0_01_R0_10_R1_00_T_E0'
p2450
tp2451
(S'9'
S'E0_01_R0_10_R1_00_T_R0'
tg44
tp2452
a((S'3'
g1492
t(S'3'
g1493
tg88
tp2453
a((S'4'
g133
t(S'4'
g775
tg14
tp2454
a((S'4'
g310
t(S'4'
g1683
tg181
tp2455
a((S'4'
g582
t(S'4'
g583
tg96
tp2456
a((S'1'
S'E0_10_R0_00_R1_00_T_E0'
p2457
tp2458
(S'1'
S'E0_10_R0_00_R1_00_T_R0'
tg44
tp2459
a((S'7'
g224
t(S'7'
g474
tg96
tp2460
a((S'3'
g614
t(S'3'
g1322
tg141
tp2461
a(g230
(S'2'
S'E0_10_R0_11_R1_01_T_R0'
tg44
tp2462
a((S'2'
g928
t(S'2'
g936
tg18
tp2463
a((S'2'
S'E0_11_R0_01_R1_01_T_E0'
p2464
tp2465
(S'7'
S'E0_01_R0_01_R1_01_T_R0'
tg54
tp2466
a((S'5'
g387
t(S'5'
g2344
tg96
tp2467
a((S'2'
g876
t(S'2'
g1704
tg88
tp2468
a((S'4'
g745
t(S'4'
g1789
tg52
tp2469
a((S'4'
g108
t(S'4'
g545
tg181
tp2470
a((S'7'
g555
t(S'7'
g1896
tg18
tp2471
a((S'5'
g127
t(S'5'
g1080
tg40
tp2472
a((S'4'
g366
t(S'4'
g1000
tg110
tp2473
a((S'6'
g293
t(S'6'
g1324
tg64
tp2474
a((S'4'
g542
t(S'4'
g894
tg88
tp2475
a(g1870
(S'9'
S'E0_01_R0_11_R1_01_T_R0'
tg280
tp2476
a((S'1'
S'E0_10_R0_11_R1_01_T_E0'
p2477
tp2478
(S'1'
S'E0_10_R0_11_R1_01_T_R0'
tg44
tp2479
a((S'5'
g409
t(S'5'
g429
tg22
tp2480
a((S'2'
g204
t(S'2'
g466
tg10
tp2481
a((S'3'
g248
t(S'3'
g2096
tg96
tp2482
a((S'6'
g213
t(S'6'
g214
tg96
tp2483
a((S'2'
g1074
t(S'2'
g1075
tg141
tp2484
a((S'1'
g164
t(S'1'
S'E0_10_R0_01_R1_00_T_R1'
p2485
tg18
tp2486
a((S'9'
g46
t(S'9'
g703
tg18
tp2487
a((S'4'
g1707
tp2488
(S'4'
S'E0_10_R0_01_R1_11_T_R0'
tg44
tp2489
a((S'7'
g8
t(S'7'
g1841
tg178
tp2490
a(g1550
(S'5'
S'E0_11_R0_01_R1_11_T_R0'
tg44
tp2491
a((S'7'
g390
t(S'7'
g1268
tg64
tp2492
a(g525
(S'8'
S'E0_00_R0_10_R1_10_T_R0'
tg169
tp2493
a((S'9'
g8
t(S'9'
g841
tg18
tp2494
a((S'9'
g235
t(S'9'
S'E0_01_R0_00_R1_10_T_R1'
p2495
tg10
tp2496
a((S'2'
g387
t(S'2'
g2344
tg96
tp2497
a((S'2'
g1054
t(S'2'
g1055
tg68
tp2498
a((S'5'
g70
t(S'5'
g1007
tg64
tp2499
a((S'1'
g423
t(S'1'
g1404
tg22
tp2500
a((g7
g207
t(g7
g2163
tg18
tp2501
a((S'6'
g310
t(S'6'
g2220
tg110
tp2502
a((S'7'
g66
t(S'7'
g2230
tg18
tp2503
a((S'2'
S'E0_10_R0_10_R1_00_T_E0'
p2504
tp2505
(S'7'
S'E0_00_R0_10_R1_00_T_R0'
tg54
tp2506
a((S'4'
g865
tp2507
(S'4'
S'E0_01_R0_11_R1_10_T_R0'
tg54
tp2508
a((S'4'
g245
t(S'4'
g2272
tg18
tp2509
a((S'7'
S'E0_01_R0_11_R1_10_T_E0'
p2510
tp2511
(S'7'
S'E0_01_R0_11_R1_10_T_R0'
tg44
tp2512
a(g1339
(S'7'
S'E0_01_R0_00_R1_11_T_R0'
tg54
tp2513
a((g7
g1523
t(g7
g1978
tg92
tp2514
a((S'4'
g50
t(S'4'
S'E0_00_R0_01_R1_10_T_E0'
p2515
tg96
tp2516
a((S'1'
g90
t(S'1'
g961
tg40
tp2517
a((S'9'
g290
t(S'9'
g1459
tg96
tp2518
a((S'2'
S'E0_00_R0_01_R1_11_T_E0'
p2519
tp2520
(S'6'
S'E0_11_R0_01_R1_11_T_R0'
tg334
tp2521
a((S'7'
g1935
tp2522
(S'7'
S'E0_00_R0_00_R1_01_T_R0'
tg44
tp2523
a((S'2'
g284
t(S'2'
g285
tg14
tp2524
a((g7
g207
t(g7
g791
tg181
tp2525
a((S'2'
g50
t(S'2'
g51
tg52
tp2526
a((S'5'
g186
t(S'5'
g457
tg18
tp2527
a((S'5'
g336
t(S'5'
g1568
tg96
tp2528
a((S'5'
g186
t(S'5'
g504
tg181
tp2529
a((S'3'
g409
t(S'3'
g410
tg14
tp2530
a((S'1'
g98
t(S'1'
g1595
tg96
tp2531
a((S'3'
g366
t(S'3'
g1108
tg88
tp2532
a((S'4'
g290
t(S'4'
g671
tg141
tp2533
a((S'2'
S'E0_10_R0_01_R1_10_T_E0'
p2534
tp2535
(S'7'
S'E0_00_R0_01_R1_10_T_R0'
tg54
tp2536
a((S'2'
g183
t(S'2'
g184
tg30
tp2537
a((S'2'
g711
t(S'2'
g1009
tg92
tp2538
a((S'2'
g691
t(S'2'
g2071
tg18
tp2539
a((S'4'
g947
t(S'4'
g948
tg30
tp2540
a((S'6'
g174
t(S'6'
g2054
tg92
tp2541
a((S'4'
g423
t(S'4'
g658
tg14
tp2542
a((S'7'
g691
t(S'7'
g692
tg64
tp2543
a((S'4'
g86
t(S'4'
S'E0_10_R0_00_R1_10_T_R1'
p2544
tg64
tp2545
a((S'3'
g484
t(S'3'
g1230
tg52
tp2546
a((g7
g83
t(g7
g116
tg18
tp2547
a((S'3'
g387
t(S'3'
g2085
tg141
tp2548
a((S'5'
g434
t(S'5'
g529
tg10
tp2549
a((S'4'
g98
t(S'4'
g99
tg14
tp2550
a((S'8'
S'E0_00_R0_10_R1_01_T_E0'
p2551
tp2552
(S'8'
S'E0_00_R0_10_R1_01_T_R0'
tg44
tp2553
a((S'6'
g161
t(S'6'
g2157
tg40
tp2554
a((S'2'
g1096
t(S'2'
S'E0_11_R0_00_R1_11_T_E0'
p2555
tg52
tp2556
a((S'7'
g396
t(S'7'
g1208
tg96
tp2557
a((S'9'
S'E0_11_R0_11_R1_00_T_E0'
p2558
tp2559
(S'9'
S'E0_11_R0_11_R1_00_T_R0'
tg44
tp2560
a((S'4'
g372
t(S'4'
g1280
tg10
tp2561
a((S'2'
g70
t(S'2'
g558
tg48
tp2562
a((S'2'
g605
t(S'2'
g1328
tg18
tp2563
a((S'2'
g745
t(S'2'
g1789
tg52
tp2564
a((g7
g390
t(g7
g1761
tg10
tp2565
a((S'4'
g90
t(S'4'
g91
tg92
tp2566
a((S'8'
g196
t(S'8'
g514
tg181
tp2567
a((S'2'
g20
t(S'2'
g1222
tg14
tp2568
a((S'9'
g925
t(S'9'
g1024
tg96
tp2569
a((S'1'
g204
t(S'1'
g1020
tg18
tp2570
a((S'9'
g245
t(S'9'
g595
tg48
tp2571
a((S'2'
g213
t(S'2'
g214
tg96
tp2572
a((S'3'
g204
t(S'3'
g205
tg178
tp2573
a((S'6'
g1241
t(S'6'
g1343
tg40
tp2574
a((S'7'
g900
t(S'7'
g1650
tg22
tp2575
a(g1413
(S'5'
S'E0_10_R0_10_R1_01_T_R0'
tg44
tp2576
a((S'9'
g1523
t(S'9'
S'E0_01_R0_00_R1_00_T_E0'
p2577
tg14
tp2578
a((S'4'
g459
t(S'4'
g797
tg96
tp2579
a((S'4'
g293
t(S'4'
g1714
tg48
tp2580
a((S'4'
g582
t(S'4'
g1999
tg52
tp2581
a((S'8'
g691
t(S'8'
g2071
tg18
tp2582
a((S'9'
g343
t(S'9'
g344
tg181
tp2583
a(g1018
(S'5'
S'E0_11_R0_01_R1_00_T_R0'
tg26
tp2584
a((S'2'
g947
t(S'2'
S'E0_10_R0_00_R1_00_T_E0'
p2585
tg96
tp2586
a((S'4'
g579
t(S'4'
g1530
tg181
tp2587
a((S'1'
g409
t(S'1'
g987
tg96
tp2588
a((S'7'
g119
t(S'7'
g531
tg96
tp2589
a((S'8'
g253
t(S'8'
g1791
tg18
tp2590
a((S'2'
g235
t(S'2'
g236
tg181
tp2591
a(g2150
(S'4'
S'E0_01_R0_00_R1_11_T_R0'
tg54
tp2592
a((S'4'
g661
t(S'4'
g859
tg88
tp2593
a((S'4'
g329
t(S'4'
g1667
tg10
tp2594
a((S'2'
g174
t(S'2'
g1314
tg96
tp2595
a(g998
(S'2'
S'E0_01_R0_00_R1_10_T_R0'
tg44
tp2596
a((S'5'
g369
t(S'5'
g1127
tg178
tp2597
a((S'2'
g381
t(S'2'
g1718
tg110
tp2598
a((S'7'
g248
t(S'7'
g1152
tg40
tp2599
a((S'3'
g287
t(S'3'
g2147
tg18
tp2600
a((S'3'
S'E0_10_R0_00_R1_00_T_E0'
p2601
tp2602
(S'3'
S'E0_10_R0_00_R1_00_T_R0'
tg44
tp2603
a((S'2'
g634
t(S'2'
S'E0_10_R0_01_R1_11_T_E0'
p2604
tg52
tp2605
a((S'3'
g76
t(S'3'
g341
tg52
tp2606
a((S'5'
g343
t(S'5'
g818
tg18
tp2607
a((S'7'
g301
t(S'7'
g1200
tg48
tp2608
a((S'3'
g680
t(S'3'
g1812
tg14
tp2609
a((S'7'
g555
t(S'7'
g1808
tg181
tp2610
a((S'2'
g1213
t(S'2'
g1860
tg181
tp2611
a((S'7'
g83
t(S'7'
g116
tg18
tp2612
a((S'5'
g501
t(S'5'
g1355
tg14
tp2613
a((S'7'
g876
t(S'7'
g877
tg48
tp2614
a((S'5'
g1241
t(S'5'
g1466
tg92
tp2615
a((S'3'
g372
t(S'3'
g1554
tg68
tp2616
a(g1750
(S'4'
S'E0_10_R0_00_R1_11_T_R0'
tg26
tp2617
a((S'1'
g336
t(S'1'
g1568
tg96
tp2618
a((S'7'
g253
t(S'7'
g282
tg178
tp2619
a((S'2'
g329
t(S'2'
g1667
tg10
tp2620
a((S'2'
g119
t(S'2'
g1284
tg141
tp2621
a((S'4'
g390
t(S'4'
g1268
tg64
tp2622
a((S'3'
g680
t(S'3'
g1225
tg96
tp2623
a((S'6'
g304
t(S'6'
g305
tg96
tp2624
a((S'2'
g387
t(S'2'
g2228
tg52
tp2625
a((S'4'
g16
t(S'4'
g17
tg18
tp2626
a((S'9'
g582
t(S'9'
g1999
tg52
tp2627
a((S'4'
g189
t(S'4'
g190
tg88
tp2628
a((S'2'
g94
t(S'2'
S'E0_00_R0_01_R1_11_T_E0'
p2629
tg30
tp2630
a((S'6'
g357
t(S'6'
g832
tg52
tp2631
a((S'2'
g1241
t(S'2'
g1242
tg14
tp2632
a((g7
g207
t(g7
g208
tg110
tp2633
a((S'6'
g661
t(S'6'
g1320
tg110
tp2634
a((g7
g38
t(g7
g1425
tg30
tp2635
a((S'7'
g76
t(S'7'
g276
tg141
tp2636
a((S'3'
g240
t(S'3'
S'E0_00_R0_11_R1_10_T_E0'
p2637
tg14
tp2638
a((S'4'
g76
t(S'4'
g276
tg141
tp2639
a(g2249
(S'4'
S'E0_11_R0_00_R1_11_T_R0'
tg44
tp2640
a((S'4'
g196
t(S'4'
g197
tg10
tp2641
a((S'2'
S'E0_11_R0_11_R1_11_T_E0'
p2642
tp2643
(S'3'
S'E0_10_R0_11_R1_11_T_R0'
tg5
tp2644
a((S'1'
g204
t(S'1'
g1375
tg64
tp2645
a((S'2'
g384
t(S'2'
g676
tg68
tp2646
a((S'2'
g423
t(S'2'
g1404
tg22
tp2647
a((S'4'
g287
t(S'4'
g407
tg88
tp2648
a((S'7'
g419
t(S'7'
g527
tg141
tp2649
a((S'4'
g1088
t(S'4'
S'E0_10_R0_11_R1_10_T_R1'
p2650
tg181
tp2651
a((S'8'
g248
t(S'8'
g1152
tg40
tp2652
a((S'5'
g369
t(S'5'
g1068
tg10
tp2653
a((S'2'
g130
t(S'2'
g1387
tg141
tp2654
a((S'4'
g119
t(S'4'
g1745
tg78
tp2655
a((S'1'
g1492
t(S'1'
g1493
tg88
tp2656
a((S'1'
g16
t(S'1'
g585
tg88
tp2657
a((S'8'
g66
t(S'8'
g2230
tg18
tp2658
a((S'6'
g697
t(S'6'
S'E0_11_R0_11_R1_00_T_R1'
p2659
tg181
tp2660
a((S'1'
g80
t(S'1'
g263
tg52
tp2661
a((S'2'
g1492
t(S'2'
g1552
tg48
tp2662
a((S'2'
g579
t(S'2'
g1606
tg110
tp2663
a((S'4'
g12
t(S'4'
g1580
tg92
tp2664
a((S'1'
g423
t(S'1'
g1795
tg141
tp2665
a((S'2'
g369
t(S'2'
g1127
tg178
tp2666
a((S'7'
g290
t(S'7'
S'E0_01_R0_00_R1_10_T_E0'
p2667
tg14
tp2668
a((S'4'
g697
t(S'4'
g698
tg18
tp2669
a((S'4'
g94
t(S'4'
g1410
tg40
tp2670
a((S'9'
g186
t(S'9'
g504
tg181
tp2671
a((S'9'
g139
t(S'9'
g933
tg14
tp2672
a((S'3'
g32
t(S'3'
g1206
tg88
tp2673
a((S'3'
g248
t(S'3'
g249
tg92
tp2674
a((S'7'
g494
tp2675
(S'4'
S'E0_11_R0_01_R1_00_T_R0'
tg26
tp2676
a((S'2'
g161
t(S'2'
g499
tg96
tp2677
a((S'9'
g566
t(S'9'
g2237
tg30
tp2678
a((S'3'
g501
t(S'3'
g2282
tg92
tp2679
a((g7
g290
t(g7
g2667
tg14
tp2680
a((S'5'
g62
t(S'5'
g2358
tg18
tp2681
a((S'4'
g304
t(S'4'
g431
tg14
tp2682
a((S'9'
g1074
t(S'9'
g1429
tg96
tp2683
a(g1798
(S'4'
S'E0_11_R0_01_R1_11_T_R0'
tg26
tp2684
a((S'9'
g1523
t(S'9'
g1978
tg92
tp2685
a((S'4'
g32
t(S'4'
g33
tg18
tp2686
a((S'9'
g290
t(S'9'
g2667
tg14
tp2687
a((S'7'
g1732
tp2688
(S'7'
S'E0_01_R0_10_R1_10_T_R0'
tg44
tp2689
a(g1219
(S'2'
S'E0_11_R0_00_R1_01_T_R0'
tg44
tp2690
a((S'3'
g80
t(S'3'
g982
tg30
tp2691
a((S'3'
g1492
t(S'3'
g1499
tg64
tp2692
a(g477
(S'4'
S'E0_11_R0_01_R1_10_T_R0'
tg44
tp2693
a((S'7'
g224
t(S'7'
g622
tg40
tp2694
a((S'4'
g1241
t(S'4'
g1466
tg92
tp2695
a(g1332
(S'3'
S'E0_00_R0_11_R1_10_T_R0'
tg5
tp2696
a((S'7'
g925
t(S'7'
g1024
tg96
tp2697
a(g2643
(S'8'
S'E0_00_R0_11_R1_11_T_R0'
tg169
tp2698
a((S'2'
g199
t(S'2'
g1252
tg92
tp2699
a((S'4'
g900
t(S'4'
g2232
tg141
tp2700
a((S'3'
S'E0_10_R0_11_R1_00_T_E0'
p2701
tp2702
(S'3'
S'E0_10_R0_11_R1_00_T_R0'
tg44
tp2703
a((S'2'
g164
t(S'2'
g2485
tg18
tp2704
a((S'4'
g673
t(S'4'
g1341
tg96
tp2705
a((S'9'
g900
t(S'9'
S'E0_01_R0_11_R1_11_T_E0'
p2706
tg96
tp2707
a((S'7'
g539
t(S'7'
g2192
tg141
tp2708
a(g1780
(S'4'
S'E0_10_R0_01_R1_00_T_R0'
tg44
tp2709
a(g1485
(S'6'
S'E0_11_R0_00_R1_11_T_R0'
tg334
tp2710
a((S'5'
g273
t(S'5'
g464
tg96
tp2711
a((S'4'
g284
t(S'4'
g2026
tg22
tp2712
a((S'3'
g947
t(S'3'
g2585
tg96
tp2713
a(g2535
(S'2'
S'E0_10_R0_01_R1_10_T_R0'
tg44
tp2714
a((S'9'
g38
t(S'9'
g1425
tg30
tp2715
a((S'9'
g174
t(S'9'
g1314
tg96
tp2716
a((S'3'
S'E0_10_R0_00_R1_10_T_E0'
p2717
tp2718
(S'3'
S'E0_10_R0_00_R1_10_T_R0'
tg44
tp2719
a((S'9'
g343
t(S'9'
g818
tg18
tp2720
a((S'2'
g697
t(S'2'
g1800
tg10
tp2721
a((S'4'
g697
t(S'4'
g1800
tg10
tp2722
a((S'2'
g1523
t(S'2'
g1524
tg40
tp2723
a((S'7'
g199
t(S'7'
g219
tg14
tp2724
a((S'8'
g521
t(S'8'
g1112
tg52
tp2725
a((S'9'
g130
t(S'9'
g1387
tg141
tp2726
a((S'2'
g204
t(S'2'
g205
tg178
tp2727
a((S'2'
g387
t(S'2'
g2085
tg141
tp2728
a((S'2'
g1088
t(S'2'
g2650
tg181
tp2729
a((S'7'
g183
t(S'7'
g1065
tg40
tp2730
a((S'2'
g307
t(S'2'
g1257
tg10
tp2731
a((S'6'
g343
t(S'6'
g818
tg18
tp2732
a((g7
g354
t(g7
g355
tg178
tp2733
a((S'3'
g369
t(S'3'
g370
tg18
tp2734
a((S'3'
g32
t(S'3'
g910
tg48
tp2735
a((S'3'
g409
t(S'3'
g987
tg96
tp2736
a((S'7'
g235
t(S'7'
g2008
tg18
tp2737
a((S'4'
g1492
t(S'4'
g1552
tg48
tp2738
a((S'4'
g196
t(S'4'
g514
tg181
tp2739
a((S'8'
g224
t(S'8'
g622
tg40
tp2740
a((S'4'
g434
t(S'4'
g529
tg10
tp2741
a((S'2'
g566
t(S'2'
g1724
tg96
tp2742
a((S'6'
g73
t(S'6'
g506
tg18
tp2743
a((g7
g876
t(g7
S'E0_01_R0_10_R1_11_T_R1'
p2744
tg18
tp2745
a((S'4'
g124
t(S'4'
S'E0_00_R0_01_R1_10_T_R1'
p2746
tg64
tp2747
a((S'4'
g265
t(S'4'
g266
tg64
tp2748
a((S'7'
g76
t(S'7'
g77
tg78
tp2749
a((S'5'
g304
t(S'5'
g427
tg141
tp2750
a((S'6'
g343
t(S'6'
g732
tg110
tp2751
a((S'2'
g1213
t(S'2'
g1214
tg18
tp2752
a((S'4'
g28
t(S'4'
g324
tg96
tp2753
a((S'3'
g381
t(S'3'
g839
tg181
tp2754
a(g1400
(S'4'
S'E0_00_R0_11_R1_00_T_R0'
tg54
tp2755
a((S'7'
g301
t(S'7'
g302
tg64
tp2756
a((S'9'
g649
t(S'9'
g1924
tg64
tp2757
a((S'2'
g459
t(S'2'
g646
tg141
tp2758
a((S'4'
g631
t(S'4'
g632
tg96
tp2759
a((S'2'
g634
t(S'2'
g938
tg141
tp2760
a((S'1'
g516
t(S'1'
g1621
tg141
tp2761
a((S'7'
g542
t(S'7'
g894
tg88
tp2762
a(g2535
(S'9'
S'E0_11_R0_01_R1_10_T_R0'
tg280
tp2763
a((S'4'
g32
t(S'4'
g910
tg48
tp2764
a(g1046
(S'2'
S'E0_01_R0_10_R1_10_T_R0'
tg44
tp2765
a((S'7'
g655
t(S'7'
g2087
tg141
tp2766
a((S'4'
g711
t(S'4'
g712
tg40
tp2767
a((S'2'
g614
t(S'2'
g1322
tg141
tp2768
a((S'9'
g542
t(S'9'
g1611
tg64
tp2769
a(g1143
(S'4'
S'E0_10_R0_00_R1_10_T_R0'
tg44
tp2770
a((S'4'
g196
t(S'4'
g379
tg68
tp2771
a((S'6'
g70
t(S'6'
g449
tg88
tp2772
a((S'4'
g310
t(S'4'
g1766
tg88
tp2773
a((S'5'
g372
t(S'5'
g1537
tg181
tp2774
a((S'7'
g108
t(S'7'
g243
tg88
tp2775
a(g1633
(S'2'
S'E0_01_R0_11_R1_01_T_R0'
tg44
tp2776
a((S'3'
g105
t(S'3'
g106
tg10
tp2777
a((S'5'
g1241
t(S'5'
g1343
tg40
tp2778
a((S'5'
g189
t(S'5'
g600
tg181
tp2779
a((S'7'
g928
t(S'7'
g1120
tg181
tp2780
a(g1452
(S'7'
S'E0_01_R0_10_R1_01_T_R0'
tg54
tp2781
a((S'6'
g582
t(S'6'
g730
tg30
tp2782
a((S'9'
g655
t(S'9'
g1558
tg52
tp2783
a((S'4'
g360
t(S'4'
g1195
tg88
tp2784
a((S'2'
g284
t(S'2'
g318
tg96
tp2785
a((S'9'
g235
t(S'9'
g2008
tg18
tp2786
a((S'7'
g605
t(S'7'
g606
tg110
tp2787
a((S'4'
S'E0_00_R0_11_R1_11_T_E0'
p2788
tp2789
(S'4'
S'E0_10_R0_11_R1_11_T_R0'
tg26
tp2790
a((S'5'
g423
t(S'5'
g1795
tg141
tp2791
a((S'3'
g105
t(S'3'
g259
tg178
tp2792
a(g2443
(S'2'
S'E0_01_R0_10_R1_01_T_R0'
tg44
tp2793
a((S'2'
g196
t(S'2'
g514
tg181
tp2794
a((S'3'
S'E0_00_R0_00_R1_11_T_E0'
p2795
tp2796
(S'3'
S'E0_00_R0_00_R1_11_T_R0'
tg44
tp2797
a((S'4'
g1523
t(S'4'
g1524
tg40
tp2798
a((S'2'
g631
t(S'2'
g1806
tg40
tp2799
a((S'4'
g66
t(S'4'
g2230
tg18
tp2800
a((S'6'
g1241
t(S'6'
g1775
tg96
tp2801
a((S'5'
g724
t(S'5'
g725
tg64
tp2802
a((S'6'
g1096
t(S'6'
g1685
tg141
tp2803
a(g2465
(S'3'
S'E0_10_R0_01_R1_01_T_R0'
tg5
tp2804
a((S'4'
g390
t(S'4'
g1761
tg10
tp2805
a((S'4'
g363
t(S'4'
g1416
tg141
tp2806
a((S'5'
g778
tp2807
(S'4'
S'E0_01_R0_00_R1_01_T_R0'
tg54
tp2808
a((S'4'
g691
t(S'4'
g886
tg88
tp2809
a(g25
(S'4'
S'E0_00_R0_00_R1_10_T_R0'
tg44
tp2810
a((S'7'
g655
t(S'7'
g1577
tg78
tp2811
a((g7
g900
t(g7
g1650
tg22
tp2812
a((S'2'
g697
t(S'2'
g2659
tg181
tp2813
a((S'9'
g697
t(S'9'
S'E0_11_R0_10_R1_00_T_R1'
p2814
tg68
tp2815
a((S'7'
g245
t(S'7'
g1919
tg64
tp2816
a((S'3'
g240
t(S'3'
g268
tg96
tp2817
a((S'1'
g372
t(S'1'
g1280
tg10
tp2818
a(g2505
(S'2'
S'E0_10_R0_10_R1_00_T_R0'
tg44
tp2819
a((S'2'
g80
t(S'2'
g982
tg30
tp2820
a((S'5'
g516
t(S'5'
g2073
tg96
tp2821
a((S'4'
g944
t(S'4'
g1635
tg178
tp2822
a((S'8'
g329
t(S'8'
g330
tg181
tp2823
a((S'2'
g336
t(S'2'
g337
tg78
tp2824
a((S'9'
g73
t(S'9'
g1406
tg10
tp2825
a((g7
g925
t(g7
g926
tg78
tp2826
a((S'1'
g59
t(S'1'
g1385
tg40
tp2827
a((S'4'
g62
t(S'4'
g2052
tg88
tp2828
a((S'5'
g62
t(S'5'
g2052
tg88
tp2829
a((S'7'
g900
t(S'7'
g2232
tg141
tp2830
a((S'6'
S'E0_11_R0_11_R1_01_T_E0'
p2831
tp2832
(S'6'
S'E0_11_R0_11_R1_01_T_R0'
tg44
tp2833
a((S'9'
g566
t(S'9'
g567
tg40
tp2834
a((S'2'
g563
t(S'2'
g686
tg64
tp2835
a((S'3'
g1088
t(S'3'
g1089
tg18
tp2836
a((S'9'
g174
t(S'9'
g2054
tg92
tp2837
a((S'2'
g59
t(S'2'
g60
tg14
tp2838
a((S'5'
g189
t(S'5'
g190
tg88
tp2839
a((S'9'
g38
t(S'9'
g1309
tg96
tp2840
a(g2203
(S'4'
S'E0_00_R0_11_R1_01_T_R0'
tg54
tp2841
a((S'9'
S'E0_11_R0_11_R1_11_T_E0'
p2842
tp2843
(S'9'
S'E0_11_R0_11_R1_11_T_R0'
tg44
tp2844
a((S'4'
g38
t(S'4'
g1309
tg96
tp2845
a((S'4'
g1054
t(S'4'
g2292
tg10
tp2846
a((S'4'
g127
t(S'4'
g1080
tg40
tp2847
a((S'4'
g161
t(S'4'
g2157
tg40
tp2848
a((S'7'
g248
t(S'7'
g249
tg92
tp2849
a((S'4'
g307
t(S'4'
g1257
tg10
tp2850
a((S'3'
g62
t(S'3'
g2358
tg18
tp2851
a((S'4'
g357
t(S'4'
g884
tg78
tp2852
a((S'4'
g336
t(S'4'
g337
tg78
tp2853
a((S'4'
g204
t(S'4'
g1375
tg64
tp2854
a((S'2'
g124
t(S'2'
g177
tg178
tp2855
a((S'5'
g164
t(S'5'
g749
tg181
tp2856
a((S'9'
S'E0_11_R0_10_R1_01_T_E0'
p2857
tp2858
(S'9'
S'E0_11_R0_10_R1_01_T_R0'
tg44
tp2859
a((S'8'
g680
t(S'8'
g1225
tg96
tp2860
a(g211
(S'7'
S'E0_00_R0_10_R1_01_T_R0'
tg44
tp2861
a((g7
g711
t(g7
g1903
tg14
tp2862
a((S'7'
g631
t(S'7'
g765
tg52
tp2863
a((S'4'
g174
t(S'4'
g175
tg14
tp2864
a((S'7'
g745
t(S'7'
g2035
tg30
tp2865
a((S'3'
g240
t(S'3'
S'E0_00_R0_11_R1_00_T_E0'
p2866
tg22
tp2867
a((S'2'
g59
t(S'2'
g1506
tg96
tp2868
a((S'9'
g1074
t(S'9'
g1352
tg14
tp2869
a((S'8'
g329
t(S'8'
g1667
tg10
tp2870
a((S'7'
g1523
t(S'7'
g2577
tg14
tp2871
a((S'1'
g336
t(S'1'
g337
tg78
tp2872
a(g1149
(S'4'
S'E0_11_R0_10_R1_11_T_R0'
tg44
tp2873
a((S'4'
g2510
tp2874
(S'4'
S'E0_01_R0_11_R1_10_T_R0'
tg44
tp2875
a((S'4'
g174
t(S'4'
g1314
tg96
tp2876
a(g1565
(S'1'
S'E0_10_R0_10_R1_00_T_R0'
tg399
tp2877
a((S'9'
g390
t(S'9'
g455
tg178
tp2878
a((S'2'
g357
t(S'2'
g1011
tg141
tp2879
a((S'9'
g673
t(S'9'
g674
tg141
tp2880
a((S'7'
g20
t(S'7'
g1029
tg141
tp2881
a((S'8'
g124
t(S'8'
g177
tg178
tp2882
a((S'9'
g655
t(S'9'
g1577
tg78
tp2883
a((S'3'
S'E0_00_R0_11_R1_00_T_E0'
p2884
tp2885
(S'3'
S'E0_00_R0_11_R1_00_T_R0'
tg44
tp2886
a((S'2'
g409
t(S'2'
g1204
tg141
tp2887
a((S'5'
g35
t(S'5'
g299
tg18
tp2888
a(g536
(S'7'
S'E0_01_R0_00_R1_10_T_R0'
tg54
tp2889
a((S'1'
g80
t(S'1'
g982
tg30
tp2890
a((S'4'
g253
t(S'4'
g976
tg10
tp2891
a(g1958
(S'8'
S'E0_00_R0_00_R1_00_T_R0'
tg169
tp2892
a((g7
g711
t(g7
g712
tg40
tp2893
a((S'2'
S'E0_11_R0_11_R1_01_T_E0'
p2894
tp2895
(S'3'
S'E0_10_R0_11_R1_01_T_R0'
tg5
tp2896
a((S'3'
g86
t(S'3'
g405
tg48
tp2897
a((S'2'
g745
t(S'2'
g2035
tg30
tp2898
a((S'4'
g680
t(S'4'
g681
tg92
tp2899
a((S'7'
g521
t(S'7'
g1112
tg52
tp2900
a((S'7'
g105
t(S'7'
g678
tg18
tp2901
a(g1996
(S'2'
S'E0_01_R0_01_R1_01_T_R0'
tg44
tp2902
a((S'9'
S'E0_11_R0_11_R1_10_T_E0'
p2903
tp2904
(S'9'
S'E0_11_R0_11_R1_10_T_R0'
tg44
tp2905
a((S'7'
g2788
tp2906
(S'7'
S'E0_00_R0_11_R1_11_T_R0'
tg44
tp2907
a((S'2'
g925
t(S'2'
g926
tg78
tp2908
a((S'2'
g98
t(S'2'
g1299
tg40
tp2909
a((S'9'
g661
t(S'9'
g1320
tg110
tp2910
a((S'7'
g224
t(S'7'
g412
tg14
tp2911
a((S'2'
g484
t(S'2'
g485
tg96
tp2912
a((S'1'
g1088
t(S'1'
S'E0_10_R0_00_R1_10_T_R1'
p2913
tg10
tp2914
a((S'5'
g724
t(S'5'
g2288
tg178
tp2915
a((S'2'
g83
t(S'2'
g719
tg10
tp2916
a((S'2'
g50
t(S'2'
g2515
tg96
tp2917
a((S'3'
g602
t(S'3'
g603
tg10
tp2918
a((S'1'
g90
t(S'1'
g91
tg92
tp2919
a((S'3'
g124
t(S'3'
g1232
tg10
tp2920
a((S'4'
g501
t(S'4'
g553
tg40
tp2921
a(g874
(S'5'
S'E0_10_R0_00_R1_11_T_R0'
tg44
tp2922
a((g7
g925
t(g7
g1024
tg96
tp2923
a((S'4'
g235
t(S'4'
g2495
tg10
tp2924
a((S'8'
g94
t(S'8'
g2629
tg30
tp2925
a(g2206
(S'4'
S'E0_01_R0_11_R1_00_T_R0'
tg54
tp2926
a((S'2'
g390
t(S'2'
g1268
tg64
tp2927
a((S'4'
g1492
t(S'4'
g1493
tg88
tp2928
a((S'5'
g582
t(S'5'
g1999
tg52
tp2929
a((S'3'
g944
t(S'3'
g1635
tg178
tp2930
a((g7
g235
t(g7
g236
tg181
tp2931
a((S'2'
g372
t(S'2'
g1537
tg181
tp2932
a((S'7'
g307
t(S'7'
g1257
tg10
tp2933
a((S'5'
g1096
t(S'5'
g2555
tg52
tp2934
a((S'9'
g363
t(S'9'
g1955
tg52
tp2935
a(g2520
(S'5'
S'E0_10_R0_01_R1_11_T_R0'
tg26
tp2936
a((g7
g555
t(g7
g1808
tg181
tp2937
a((S'9'
g605
t(S'9'
g1328
tg18
tp2938
a((S'6'
g213
t(S'6'
g1921
tg141
tp2939
a((S'4'
g273
t(S'4'
g1094
tg22
tp2940
a((S'1'
g387
t(S'1'
g2344
tg96
tp2941
a((S'1'
g1088
t(S'1'
g2650
tg181
tp2942
a((S'6'
g563
t(S'6'
S'E0_11_R0_10_R1_00_T_R1'
p2943
tg10
tp2944
a((S'3'
g66
t(S'3'
g67
tg68
tp2945
a((S'9'
g310
t(S'9'
g2220
tg110
tp2946
a(g863
(S'5'
S'E0_11_R0_00_R1_11_T_R0'
tg26
tp2947
a((S'8'
g579
t(S'8'
g1606
tg110
tp2948
a((S'4'
g221
t(S'4'
g2022
tg141
tp2949
a((S'6'
g273
t(S'6'
g274
tg14
tp2950
a((S'5'
g102
t(S'5'
g2265
tg52
tp2951
a((S'5'
g688
tp2952
(S'5'
S'E0_10_R0_10_R1_10_T_R0'
tg44
tp2953
a(g915
(S'4'
S'E0_11_R0_10_R1_11_T_R0'
tg26
tp2954
a((g7
g1213
t(g7
g1992
tg10
tp2955
a((S'5'
g870
tp2956
(S'5'
S'E0_11_R0_00_R1_10_T_R0'
tg44
tp2957
a((S'5'
g189
t(S'5'
g990
tg18
tp2958
a((S'6'
g46
t(S'6'
g1368
tg64
tp2959
a((S'9'
g245
t(S'9'
g2272
tg18
tp2960
a((S'6'
S'E0_11_R0_11_R1_00_T_E0'
p2961
tp2962
(S'6'
S'E0_11_R0_11_R1_00_T_R0'
tg44
tp2963
a((S'4'
g680
t(S'4'
g1225
tg96
tp2964
a((S'2'
g737
t(S'2'
S'E0_00_R0_10_R1_10_T_R1'
p2965
tg18
tp2966
a((S'4'
g343
t(S'4'
g818
tg18
tp2967
a((g7
g900
t(g7
g2706
tg96
tp2968
a((S'2'
g66
t(S'2'
g2069
tg10
tp2969
a((S'9'
g83
t(S'9'
g84
tg68
tp2970
a((S'3'
g196
t(S'3'
g379
tg68
tp2971
a((S'2'
g602
t(S'2'
g767
tg18
tp2972
a((S'2'
g876
t(S'2'
g2744
tg18
tp2973
a((S'6'
g1054
t(S'6'
g2292
tg10
tp2974
a((S'5'
g130
t(S'5'
g836
tg14
tp2975
a((S'8'
g66
t(S'8'
g67
tg68
tp2976
a((S'5'
g381
t(S'5'
g839
tg181
tp2977
a((S'7'
g207
t(S'7'
g2163
tg18
tp2978
a((g7
g605
t(g7
g1601
tg181
tp2979
a((S'5'
g1145
tp2980
(S'4'
S'E0_01_R0_01_R1_01_T_R0'
tg54
tp2981
a((S'4'
g1637
tp2982
(S'4'
S'E0_00_R0_01_R1_10_T_R0'
tg54
tp2983
a((S'6'
g46
t(S'6'
g703
tg18
tp2984
a((S'7'
g20
t(S'7'
g734
tg96
tp2985
a((S'2'
g76
t(S'2'
S'E0_00_R0_11_R1_10_T_E0'
p2986
tg96
tp2987
a(g639
(S'5'
S'E0_10_R0_10_R1_01_T_R0'
tg26
tp2988
a((S'7'
g363
t(S'7'
g446
tg96
tp2989
a((S'4'
g73
t(S'4'
g251
tg178
tp2990
a((S'2'
g221
t(S'2'
g2022
tg141
tp2991
a((S'9'
g1074
t(S'9'
S'E0_11_R0_10_R1_00_T_E0'
p2992
tg22
tp2993
a((S'4'
g387
t(S'4'
g388
tg78
tp2994
a((S'9'
g149
t(S'9'
g150
tg10
tp2995
a((S'7'
g566
t(S'7'
g1724
tg96
tp2996
a((S'4'
g80
t(S'4'
g81
tg40
tp2997
a((S'2'
g521
t(S'2'
g1905
tg40
tp2998
a((S'5'
g221
t(S'5'
g2022
tg141
tp2999
a((S'4'
g745
t(S'4'
g1656
tg40
tp3000
a((S'9'
S'E0_01_R0_00_R1_00_T_E0'
p3001
tp3002
(S'9'
S'E0_01_R0_00_R1_00_T_R0'
tg44
tp3003
a(g415
(S'1'
S'E0_10_R0_01_R1_10_T_R0'
tg399
tp3004
a(g752
(S'7'
S'E0_00_R0_00_R1_01_T_R0'
tg54
tp3005
a((S'4'
g189
t(S'4'
g600
tg181
tp3006
a((S'3'
g947
t(S'3'
g2208
tg40
tp3007
a((S'2'
g390
t(S'2'
g1761
tg10
tp3008
a(g172
(S'3'
S'E0_00_R0_10_R1_11_T_R0'
tg5
tp3009
a((S'3'
g119
t(S'3'
g531
tg96
tp3010
a((S'6'
g782
t(S'6'
g1005
tg96
tp3011
a(g1046
(S'3'
S'E0_00_R0_10_R1_10_T_R0'
tg5
tp3012
a(g1565
(S'2'
S'E0_01_R0_10_R1_00_T_R0'
tg44
tp3013
a((S'5'
g484
t(S'5'
g549
tg30
tp3014
a(g2980
(S'5'
S'E0_11_R0_01_R1_01_T_R0'
tg44
tp3015
a((S'4'
g605
t(S'4'
g606
tg110
tp3016
a((S'2'
g62
t(S'2'
S'E0_10_R0_01_R1_01_T_R1'
p3017
tg48
tp3018
a((S'1'
g98
t(S'1'
g99
tg14
tp3019
a((S'3'
g86
t(S'3'
g2544
tg64
tp3020
a((S'4'
g947
t(S'4'
g1908
tg52
tp3021
a((S'4'
g253
t(S'4'
g282
tg178
tp3022
a((g7
g83
t(g7
g719
tg10
tp3023
a((S'3'
g284
t(S'3'
g1939
tg141
tp3024
a((S'7'
g287
t(S'7'
g1449
tg110
tp3025
a((S'5'
g614
t(S'5'
g615
tg78
tp3026
a((S'9'
g161
t(S'9'
g2157
tg40
tp3027
a((S'5'
g724
t(S'5'
g2099
tg10
tp3028
a((S'4'
g745
t(S'4'
g2035
tg30
tp3029
a((S'6'
g293
t(S'6'
g1714
tg48
tp3030
a((S'2'
g484
t(S'2'
g1230
tg52
tp3031
a((S'9'
g1213
t(S'9'
g2247
tg68
tp3032
a((S'2'
g363
t(S'2'
g1416
tg141
tp3033
a((S'5'
g484
t(S'5'
g1230
tg52
tp3034
a((S'4'
g245
t(S'4'
g1919
tg64
tp3035
a((S'8'
g124
t(S'8'
g1232
tg10
tp3036
a((S'5'
g582
t(S'5'
g1613
tg40
tp3037
a((S'9'
g130
t(S'9'
g836
tg14
tp3038
a((S'6'
g213
t(S'6'
g2174
tg52
tp3039
a((S'2'
g555
t(S'2'
g1808
tg181
tp3040
a((S'4'
g900
t(S'4'
g901
tg14
tp3041
a((S'9'
g149
t(S'9'
g587
tg178
tp3042
a((g7
g354
t(g7
g375
tg10
tp3043
a((S'4'
g501
t(S'4'
g2282
tg92
tp3044
a((S'2'
g1074
t(S'2'
g2992
tg22
tp3045
a(g1181
(S'2'
S'E0_10_R0_10_R1_10_T_R0'
tg44
tp3046
a((S'4'
g240
t(S'4'
g2866
tg22
tp3047
a((S'4'
g290
t(S'4'
g291
tg22
tp3048
a((S'4'
g521
t(S'4'
g1905
tg40
tp3049
a((S'8'
g66
t(S'8'
g1303
tg181
tp3050
a((S'1'
g221
t(S'1'
g2022
tg141
tp3051
a((S'6'
g296
t(S'6'
g297
tg52
tp3052
a((S'2'
g390
t(S'2'
g391
tg18
tp3053
a((S'2'
g655
t(S'2'
g1577
tg78
tp3054
a((S'6'
g452
t(S'6'
g2152
tg64
tp3055
a(g495
(S'4'
S'E0_01_R0_01_R1_00_T_R0'
tg44
tp3056
a((S'2'
g235
t(S'2'
g2495
tg10
tp3057
a((S'2'
g452
t(S'2'
g1362
tg88
tp3058
a((S'7'
g307
t(S'7'
S'E0_00_R0_01_R1_01_T_R1'
p3059
tg64
tp3060
a((S'1'
g484
t(S'1'
g716
tg40
tp3061
a((S'4'
g2320
tp3062
(S'4'
S'E0_10_R0_11_R1_01_T_R0'
tg26
tp3063
a((S'1'
g381
t(S'1'
g1718
tg110
tp3064
a((S'3'
g253
t(S'3'
g976
tg10
tp3065
a((g7
g290
t(g7
g671
tg141
tp3066
a(g1692
(S'6'
S'E0_11_R0_00_R1_10_T_R0'
tg334
tp3067
a((S'3'
g369
t(S'3'
g1068
tg10
tp3068
a((S'1'
g366
t(S'1'
g743
tg18
tp3069
a((S'6'
g697
t(S'6'
g1800
tg10
tp3070
a((S'4'
g1096
t(S'4'
g1097
tg96
tp3071
a((S'2'
g944
t(S'2'
g1501
tg64
tp3072
a(g1358
(S'4'
S'E0_10_R0_00_R1_00_T_R0'
tg26
tp3073
a((S'2'
g343
t(S'2'
g344
tg181
tp3074
a(g2507
(S'4'
S'E0_11_R0_11_R1_10_T_R0'
tg44
tp3075
a(g760
(S'4'
S'E0_10_R0_01_R1_01_T_R0'
tg26
tp3076
a((S'8'
g521
t(S'8'
g522
tg30
tp3077
a((S'8'
g76
t(S'8'
g77
tg78
tp3078
a((S'6'
g351
t(S'6'
g1244
tg30
tp3079
a((S'1'
g423
t(S'1'
g658
tg14
tp3080
a(g2210
(S'4'
S'E0_10_R0_00_R1_01_T_R0'
tg44
tp3081
a((g7
g928
t(g7
g2066
tg110
tp3082
a((S'4'
g20
t(S'4'
g734
tg96
tp3083
a((S'7'
g680
t(S'7'
g1812
tg14
tp3084
a(g1593
(S'5'
S'E0_11_R0_11_R1_00_T_R0'
tg26
tp3085
a((S'3'
g419
t(S'3'
g527
tg141
tp3086
a((S'6'
g310
t(S'6'
g1766
tg88
tp3087
a((S'4'
g1088
t(S'4'
g2913
tg10
tp3088
a(g1485
(S'9'
S'E0_01_R0_00_R1_11_T_R0'
tg280
tp3089
a((S'2'
g409
t(S'2'
g987
tg96
tp3090
a(g639
(S'2'
S'E0_00_R0_10_R1_01_T_R0'
tg44
tp3091
a((S'2'
g521
t(S'2'
g1112
tg52
tp3092
a((S'9'
g782
t(S'9'
g1170
tg40
tp3093
a((S'5'
g434
t(S'5'
g2414
tg18
tp3094
a((S'4'
g240
t(S'4'
g268
tg96
tp3095
a((S'7'
g605
t(S'7'
g1176
tg88
tp3096
a((S'5'
g221
t(S'5'
g222
tg14
tp3097
a((S'7'
g691
t(S'7'
g886
tg88
tp3098
a((g7
g363
t(g7
g446
tg96
tp3099
a((S'2'
g139
t(S'2'
g1720
tg22
tp3100
a(g1858
(S'7'
S'E0_01_R0_00_R1_00_T_R0'
tg44
tp3101
a((S'3'
g76
t(S'3'
g2986
tg96
tp3102
a((S'6'
g1054
t(S'6'
g1481
tg181
tp3103
a(g1181
(g7
S'E0_01_R0_10_R1_10_T_R0'
tg231
tp3104
a(g2789
(S'4'
S'E0_00_R0_11_R1_11_T_R0'
tg44
tp3105
a(g1692
(S'9'
S'E0_01_R0_00_R1_10_T_R0'
tg280
tp3106
a(g1141
(S'4'
S'E0_11_R0_10_R1_11_T_R0'
tg26
tp3107
a((S'7'
g240
t(S'7'
g241
tg141
tp3108
a((S'4'
g655
t(S'4'
g2087
tg141
tp3109
a((S'4'
g108
t(S'4'
g243
tg88
tp3110
a((S'4'
g301
t(S'4'
g1546
tg18
tp3111
a((S'4'
g8
t(S'4'
g1841
tg178
tp3112
a((S'3'
g772
t(S'3'
g908
tg88
tp3113
a(g193
(S'4'
S'E0_10_R0_11_R1_00_T_R0'
tg44
tp3114
a((S'3'
g614
t(S'3'
g664
tg52
tp3115
a((S'4'
g62
t(S'4'
g3017
tg48
tp3116
a((g7
g235
t(g7
g1432
tg68
tp3117
a((S'4'
g46
t(S'4'
g1368
tg64
tp3118
a((S'2'
g602
t(S'2'
g1972
tg181
tp3119
a((S'9'
g12
t(S'9'
g1187
tg96
tp3120
a((S'5'
g1088
t(S'5'
g2913
tg10
tp3121
a((g7
g555
t(g7
g2369
tg88
tp3122
a((S'8'
g224
t(S'8'
g225
tg92
tp3123
a((S'4'
g8
t(S'4'
g841
tg18
tp3124
a((S'7'
g762
tp3125
(S'7'
S'E0_01_R0_01_R1_10_T_R0'
tg44
tp3126
a((S'9'
g245
t(S'9'
g246
tg88
tp3127
a((S'2'
g343
t(S'2'
g1873
tg88
tp3128
a((S'7'
g329
t(S'7'
g330
tg181
tp3129
a((S'4'
g691
t(S'4'
g2071
tg18
tp3130
a(g3125
(S'4'
S'E0_11_R0_01_R1_10_T_R0'
tg26
tp3131
a((S'3'
g265
t(S'3'
g444
tg48
tp3132
a((S'4'
g1096
t(S'4'
g1771
tg78
tp3133
a((S'9'
g273
t(S'9'
g274
tg14
tp3134
a((S'7'
g307
t(S'7'
g1442
tg18
tp3135
a((S'5'
g387
t(S'5'
g2228
tg52
tp3136
a((S'2'
g579
t(S'2'
g580
tg18
tp3137
a((S'2'
g307
t(S'2'
g1442
tg18
tp3138
a(g1733
(S'4'
S'E0_01_R0_10_R1_10_T_R0'
tg44
tp3139
a((S'9'
g301
t(S'9'
g1200
tg48
tp3140
a((S'4'
g579
t(S'4'
g931
tg88
tp3141
a((S'3'
S'E0_00_R0_11_R1_11_T_E0'
p3142
tp3143
(S'3'
S'E0_00_R0_11_R1_11_T_R0'
tg44
tp3144
a((S'2'
g351
t(S'2'
g352
tg40
tp3145
a((S'3'
g204
t(S'3'
g466
tg10
tp3146
a((S'4'
g1492
t(S'4'
g1499
tg64
tp3147
a((S'5'
g213
t(S'5'
g2174
tg52
tp3148
a(g2445
(S'4'
S'E0_01_R0_10_R1_00_T_R0'
tg44
tp3149
a((S'2'
g12
t(S'2'
g1187
tg96
tp3150
a(g985
(S'2'
S'E0_10_R0_01_R1_00_T_R0'
tg44
tp3151
a((S'2'
g360
t(S'2'
S'E0_11_R0_10_R1_00_T_R1'
p3152
tg181
tp3153
a((S'2'
g369
t(S'2'
g370
tg18
tp3154
a((S'2'
g419
t(S'2'
g822
tg96
tp3155
a(g2643
(S'2'
S'E0_11_R0_11_R1_11_T_R0'
tg44
tp3156
a((S'7'
g673
t(S'7'
g674
tg141
tp3157
a((S'7'
g124
t(S'7'
g125
tg18
tp3158
a((S'3'
g102
t(S'3'
g2265
tg52
tp3159
a((S'7'
g928
t(S'7'
g936
tg18
tp3160
a((S'9'
g539
t(S'9'
g2214
tg22
tp3161
a((S'6'
g1074
t(S'6'
g2992
tg22
tp3162
a((S'2'
g1213
t(S'2'
g2247
tg68
tp3163
a(g572
(S'4'
S'E0_11_R0_10_R1_00_T_R0'
tg26
tp3164
a((S'6'
g384
t(S'6'
g385
tg10
tp3165
a((g7
S'E0_01_R0_00_R1_11_T_E0'
p3166
tp3167
(g7
S'E0_01_R0_00_R1_11_T_R0'
tg44
tp3168
a((S'2'
g183
t(S'2'
g1964
tg52
tp3169
a((S'6'
S'E0_11_R0_01_R1_11_T_E0'
p3170
tp3171
(S'6'
S'E0_11_R0_01_R1_11_T_R0'
tg44
tp3172
a((S'8'
g691
t(S'8'
g1190
tg48
tp3173
a(g1996
(S'5'
S'E0_11_R0_01_R1_01_T_R0'
tg26
tp3174
a(g168
(S'2'
S'E0_11_R0_10_R1_11_T_R0'
tg44
tp3175
a((S'9'
g28
t(S'9'
g324
tg96
tp3176
a((S'2'
g20
t(S'2'
g734
tg96
tp3177
a((S'7'
g183
t(S'7'
g184
tg30
tp3178
a((S'6'
g1054
t(S'6'
g1168
tg18
tp3179
a(g333
(S'9'
S'E0_01_R0_01_R1_10_T_R0'
tg280
tp3180
a((S'4'
g124
t(S'4'
g125
tg18
tp3181
a((S'5'
g944
t(S'5'
g1635
tg178
tp3182
a((S'1'
S'E0_10_R0_10_R1_01_T_E0'
p3183
tp3184
(S'1'
S'E0_10_R0_10_R1_01_T_R0'
tg44
tp3185
a((S'4'
g724
t(S'4'
g2288
tg178
tp3186
a((S'4'
g661
t(S'4'
g1320
tg110
tp3187
a((S'6'
g582
t(S'6'
g583
tg96
tp3188
a((S'6'
g73
t(S'6'
g74
tg64
tp3189
a((S'2'
g566
t(S'2'
g2237
tg30
tp3190
a((g7
S'E0_01_R0_11_R1_01_T_E0'
p3191
tp3192
(g7
S'E0_01_R0_11_R1_01_T_R0'
tg44
tp3193
a((S'2'
g94
t(S'2'
g95
tg96
tp3194
a((S'3'
g772
t(S'3'
g834
tg18
tp3195
a((S'4'
g1377
tp3196
(S'4'
S'E0_10_R0_00_R1_00_T_R0'
tg44
tp3197
a((S'3'
g183
t(S'3'
g1964
tg52
tp3198
a((S'9'
S'E0_01_R0_01_R1_10_T_E0'
p3199
tp3200
(S'9'
S'E0_01_R0_01_R1_10_T_R0'
tg44
tp3201
a((S'2'
g287
t(S'2'
g2147
tg18
tp3202
a((S'8'
g105
t(S'8'
g233
tg64
tp3203
a((S'4'
g235
t(S'4'
g2008
tg18
tp3204
a((S'5'
g90
t(S'5'
g1970
tg14
tp3205
a((S'1'
g16
t(S'1'
g261
tg110
tp3206
a((S'4'
g213
t(S'4'
g214
tg96
tp3207
a((g7
g235
t(g7
g2008
tg18
tp3208
a((S'3'
g724
t(S'3'
g2288
tg178
tp3209
a(g2181
(S'4'
S'E0_10_R0_10_R1_11_T_R0'
tg44
tp3210
a(g1695
(S'4'
S'E0_11_R0_10_R1_01_T_R0'
tg44
tp3211
a((S'3'
g409
t(S'3'
g1204
tg141
tp3212
a(g609
(S'2'
S'E0_10_R0_00_R1_10_T_R0'
tg44
tp3213
a((S'2'
g782
t(S'2'
g1005
tg96
tp3214
a(g2688
(S'4'
S'E0_11_R0_10_R1_10_T_R0'
tg26
tp3215
a((S'3'
g240
t(S'3'
g241
tg141
tp3216
a((S'4'
g384
t(S'4'
g385
tg10
tp3217
a((S'6'
g351
t(S'6'
g497
tg96
tp3218
a((S'5'
g366
t(S'5'
g743
tg18
tp3219
a((S'3'
g265
t(S'3'
g820
tg88
tp3220
a((S'5'
g1054
t(S'5'
g2292
tg10
tp3221
a((S'7'
g1749
tp3222
(S'4'
S'E0_10_R0_00_R1_11_T_R0'
tg26
tp3223
a((S'7'
g76
t(S'7'
g2986
tg96
tp3224
a((S'2'
g1492
t(S'2'
g1493
tg88
tp3225
a((S'7'
g8
t(S'7'
g9
tg10
tp3226
a((S'3'
g108
t(S'3'
g920
tg18
tp3227
a((g7
g631
t(g7
g632
tg96
tp3228
a((S'9'
S'E0_11_R0_10_R1_11_T_E0'
p3229
tp3230
(S'9'
S'E0_11_R0_10_R1_11_T_R0'
tg44
tp3231
a((S'7'
g521
t(S'7'
g1905
tg40
tp3232
a((S'9'
g711
t(S'9'
g1865
tg96
tp3233
a((S'4'
g357
t(S'4'
g832
tg52
tp3234
a(g137
(S'2'
S'E0_01_R0_11_R1_11_T_R0'
tg44
tp3235
a((S'2'
g56
t(S'2'
g238
tg68
tp3236
a((S'4'
g265
t(S'4'
g444
tg48
tp3237
a(g770
(S'5'
S'E0_11_R0_00_R1_00_T_R0'
tg26
tp3238
a((S'5'
g944
t(S'5'
g1501
tg64
tp3239
a((S'5'
g516
t(S'5'
g1621
tg141
tp3240
a(g1692
(S'5'
S'E0_10_R0_00_R1_10_T_R0'
tg26
tp3241
a((S'7'
g1931
tp3242
(S'7'
S'E0_01_R0_11_R1_01_T_R0'
tg44
tp3243
a((S'4'
g273
t(S'4'
g274
tg14
tp3244
a((S'2'
g944
t(S'2'
g945
tg18
tp3245
a((S'7'
g133
t(S'7'
g620
tg40
tp3246
a(g2535
(g7
S'E0_01_R0_01_R1_10_T_R0'
tg231
tp3247
a((S'8'
g94
t(S'8'
g1410
tg40
tp3248
a((S'8'
g20
t(S'8'
g1222
tg14
tp3249
a((S'3'
g1088
t(S'3'
g2650
tg181
tp3250
a((S'2'
g204
t(S'2'
g1375
tg64
tp3251
a((S'9'
g12
t(S'9'
g1580
tg92
tp3252
a((S'5'
g452
t(S'5'
g2152
tg64
tp3253
a((S'4'
g119
t(S'4'
g1284
tg141
tp3254
a((S'7'
g199
t(S'7'
g1252
tg92
tp3255
a((S'3'
g86
t(S'3'
g377
tg18
tp3256
a((S'7'
g329
t(S'7'
g1667
tg10
tp3257
a(g1291
(S'9'
S'E0_01_R0_00_R1_00_T_R0'
tg280
tp3258
a((S'8'
g737
t(S'8'
g738
tg48
tp3259
a((S'4'
g119
t(S'4'
g120
tg52
tp3260
a((S'7'
g284
t(S'7'
g2026
tg22
tp3261
a((S'2'
g745
t(S'2'
g1656
tg40
tp3262
a((S'9'
g900
t(S'9'
g901
tg14
tp3263
a((S'4'
g434
t(S'4'
g2414
tg18
tp3264
a((S'4'
g133
t(S'4'
g134
tg96
tp3265
a((S'2'
g724
t(S'2'
g2288
tg178
tp3266
a((S'4'
g224
t(S'4'
g474
tg96
tp3267
a(g155
(S'2'
S'E0_00_R0_11_R1_10_T_R0'
tg44
tp3268
a((S'9'
g673
t(S'9'
g1917
tg52
tp3269
a((g7
g390
t(g7
g391
tg18
tp3270
a((S'1'
g189
t(S'1'
g990
tg18
tp3271
a((S'3'
g396
t(S'3'
S'E0_00_R0_01_R1_00_T_E0'
p3272
tg22
tp3273
a((S'1'
g102
t(S'1'
g1514
tg40
tp3274
a(g2313
(S'4'
S'E0_11_R0_01_R1_01_T_R0'
tg26
tp3275
a((S'2'
g409
t(S'2'
g429
tg22
tp3276
a((S'2'
g301
t(S'2'
g2189
tg88
tp3277
a((S'2'
g304
t(S'2'
g427
tg141
tp3278
a((S'3'
g133
t(S'3'
g134
tg96
tp3279
a((S'3'
S'E0_00_R0_00_R1_01_T_E0'
p3280
tp3281
(S'3'
S'E0_00_R0_00_R1_01_T_R0'
tg44
tp3282
a((S'4'
g521
t(S'4'
g644
tg96
tp3283
a((S'3'
g35
t(S'3'
g1535
tg181
tp3284
a((g7
g711
t(g7
g1865
tg96
tp3285
a((g7
g876
t(g7
g2404
tg64
tp3286
a((S'2'
g32
t(S'2'
g1206
tg88
tp3287
a(g1541
(S'2'
S'E0_00_R0_10_R1_11_T_R0'
tg44
tp3288
a((S'2'
g164
t(S'2'
g165
tg10
tp3289
a((S'4'
g130
t(S'4'
g1125
tg96
tp3290
a(g1316
(S'4'
S'E0_11_R0_00_R1_01_T_R0'
tg26
tp3291
a((S'2'
g542
t(S'2'
g728
tg18
tp3292
a((g7
g38
t(g7
g39
tg40
tp3293
a((S'2'
g293
t(S'2'
g294
tg88
tp3294
a((S'5'
g293
t(S'5'
g1318
tg18
tp3295
a((g7
g390
t(g7
g1268
tg64
tp3296
a((g7
g1523
t(g7
g2577
tg14
tp3297
a((S'7'
g759
tp3298
(S'7'
S'E0_00_R0_01_R1_01_T_R0'
tg44
tp3299
a((S'2'
g76
t(S'2'
g276
tg141
tp3300
a(g609
(g7
S'E0_01_R0_00_R1_10_T_R0'
tg231
tp3301
a((S'7'
g56
t(S'7'
g57
tg18
tp3302
a((S'8'
g133
t(S'8'
g482
tg92
tp3303
a((S'4'
g70
t(S'4'
g1007
tg64
tp3304
a((S'2'
g772
t(S'2'
g773
tg110
tp3305
a((S'3'
g50
t(S'3'
g51
tg52
tp3306
a(g2030
(S'4'
S'E0_01_R0_10_R1_10_T_R0'
tg54
tp3307
a((S'3'
g119
t(S'3'
g1284
tg141
tp3308
a(g2520
(S'2'
S'E0_00_R0_01_R1_11_T_R0'
tg44
tp3309
a((S'7'
g419
t(S'7'
g754
tg78
tp3310
a((S'2'
g245
t(S'2'
g595
tg48
tp3311
a((S'3'
S'E0_10_R0_10_R1_01_T_E0'
p3312
tp3313
(S'3'
S'E0_10_R0_10_R1_01_T_R0'
tg44
tp3314
a((S'4'
g419
t(S'4'
g420
tg52
tp3315
a((S'2'
g73
t(S'2'
g251
tg178
tp3316
a(g1996
(S'1'
S'E0_10_R0_01_R1_01_T_R0'
tg399
tp3317
a((S'4'
g183
t(S'4'
g227
tg96
tp3318
a((S'4'
g59
t(S'4'
g1172
tg92
tp3319
a((S'4'
g59
t(S'4'
g1506
tg96
tp3320
a((S'9'
g711
t(S'9'
g1009
tg92
tp3321
a((S'5'
g369
t(S'5'
g370
tg18
tp3322
a(g439
(S'4'
S'E0_10_R0_10_R1_01_T_R0'
tg26
tp3323
a((S'8'
g396
t(S'8'
g1015
tg14
tp3324
a((S'4'
g673
t(S'4'
g1917
tg52
tp3325
a((S'7'
g396
t(S'7'
g3272
tg22
tp3326
a((S'4'
g164
t(S'4'
g165
tg10
tp3327
a((g7
g1523
t(g7
g1830
tg96
tp3328
a((S'4'
g555
t(S'4'
g556
tg110
tp3329
a((S'2'
g12
t(S'2'
g1580
tg92
tp3330
a((S'2'
g8
t(S'2'
g114
tg64
tp3331
a(g807
(S'9'
S'E0_11_R0_00_R1_11_T_R0'
tg280
tp3332
a((g7
g28
t(g7
g29
tg30
tp3333
a((g7
S'E0_01_R0_00_R1_01_T_E0'
p3334
tp3335
(g7
S'E0_01_R0_00_R1_01_T_R0'
tg44
tp3336
a((S'3'
g133
t(S'3'
g620
tg40
tp3337
a((S'4'
g8
t(S'4'
g114
tg64
tp3338
a((S'9'
g139
t(S'9'
g1720
tg22
tp3339
a((g7
g925
t(g7
g1942
tg141
tp3340
a((S'7'
g579
t(S'7'
g580
tg18
tp3341
a((S'2'
g38
t(S'2'
g1309
tg96
tp3342
a((S'8'
g108
t(S'8'
g243
tg88
tp3343
a((g7
g56
t(g7
g829
tg10
tp3344
a((S'7'
g199
t(S'7'
g1050
tg96
tp3345
a((S'2'
g189
t(S'2'
g600
tg181
tp3346
a((S'9'
g649
t(S'9'
g669
tg10
tp3347
a((S'1'
g1088
t(S'1'
g1089
tg18
tp3348
a((S'3'
g602
t(S'3'
g1972
tg181
tp3349
a((S'6'
g563
t(S'6'
g564
tg18
tp3350
a((S'4'
g947
t(S'4'
g2585
tg96
tp3351
a((S'4'
g307
t(S'4'
g3059
tg64
tp3352
a(g1103
(S'2'
S'E0_11_R0_01_R1_11_T_R0'
tg44
tp3353
a((S'8'
g124
t(S'8'
g2746
tg64
tp3354
a((S'4'
g724
t(S'4'
g2099
tg10
tp3355
a((S'7'
g326
tp3356
(S'7'
S'E0_00_R0_01_R1_00_T_R0'
tg44
tp3357
a((S'8'
g419
t(S'8'
g822
tg96
tp3358
a(g871
(S'4'
S'E0_01_R0_00_R1_10_T_R0'
tg54
tp3359
a((S'1'
g366
t(S'1'
g1108
tg88
tp3360
a((S'5'
g127
t(S'5'
g128
tg96
tp3361
a((S'4'
g372
t(S'4'
g373
tg18
tp3362
a((g7
g655
t(g7
g2087
tg141
tp3363
a(g1291
(S'2'
S'E0_00_R0_00_R1_00_T_R0'
tg44
tp3364
a((S'6'
g186
t(S'6'
g187
tg68
tp3365
a((g7
g8
t(g7
g1841
tg178
tp3366
a((S'9'
g343
t(S'9'
g732
tg110
tp3367
a((S'5'
g296
t(S'5'
g1003
tg40
tp3368
a(g1042
(S'9'
S'E0_11_R0_11_R1_11_T_R0'
tg280
tp3369
a((S'1'
g381
t(S'1'
g382
tg18
tp3370
a((S'6'
S'E0_11_R0_00_R1_01_T_E0'
p3371
tp3372
(S'6'
S'E0_11_R0_00_R1_01_T_R0'
tg44
tp3373
a((S'2'
g98
t(S'2'
g1427
tg92
tp3374
a((S'3'
g423
t(S'3'
g424
tg96
tp3375
a((S'4'
g296
t(S'4'
g1589
tg96
tp3376
a((S'7'
g354
t(S'7'
g2350
tg18
tp3377
a(g942
(S'9'
S'E0_11_R0_10_R1_11_T_R0'
tg280
tp3378
a((S'9'
g1054
t(S'9'
g2292
tg10
tp3379
a((S'9'
g8
t(S'9'
g114
tg64
tp3380
a((S'4'
g213
t(S'4'
g2174
tg52
tp3381
a((S'9'
g351
t(S'9'
g1244
tg30
tp3382
a((S'7'
g2107
tp3383
(S'7'
S'E0_01_R0_00_R1_11_T_R0'
tg44
tp3384
a((S'5'
g59
t(S'5'
g60
tg14
tp3385
a((S'7'
g20
t(S'7'
g21
tg22
tp3386
a((S'8'
g66
t(S'8'
g2069
tg10
tp3387
a(g1332
(S'2'
S'E0_01_R0_11_R1_10_T_R0'
tg44
tp3388
a((S'5'
g634
t(S'5'
g938
tg141
tp3389
a((S'4'
g56
t(S'4'
g57
tg18
tp3390
a((S'1'
g102
t(S'1'
g112
tg30
tp3391
a((S'3'
g32
t(S'3'
g33
tg18
tp3392
a((S'1'
g516
t(S'1'
g1110
tg22
tp3393
a((S'5'
g351
t(S'5'
g827
tg52
tp3394
a((S'1'
S'E0_10_R0_11_R1_00_T_E0'
p3395
tp3396
(S'1'
S'E0_10_R0_11_R1_00_T_R0'
tg44
tp3397
a((S'1'
g86
t(S'1'
g2544
tg64
tp3398
a((S'2'
g124
t(S'2'
g125
tg18
tp3399
a((S'5'
g273
t(S'5'
g403
tg141
tp3400
a((S'5'
g1088
t(S'5'
g1089
tg18
tp3401
a((S'5'
g80
t(S'5'
g593
tg96
tp3402
a((g7
S'E0_01_R0_11_R1_00_T_E0'
p3403
tp3404
(g7
S'E0_01_R0_11_R1_00_T_R0'
tg44
tp3405
a((S'4'
g2312
tp3406
(S'4'
S'E0_11_R0_01_R1_01_T_R0'
tg26
tp3407
a((S'2'
g273
t(S'2'
g464
tg96
tp3408
a((S'8'
g50
t(S'8'
g879
tg141
tp3409
a((g7
g1213
t(g7
g1860
tg181
tp3410
a((S'5'
g161
t(S'5'
g2157
tg40
tp3411
a((S'4'
g204
t(S'4'
g466
tg10
tp3412
a((S'7'
g928
t(S'7'
g2066
tg110
tp3413
a((S'5'
g1492
t(S'5'
g1499
tg64
tp3414
a((g7
g673
t(g7
g1917
tg52
tp3415
a(g2488
(S'4'
S'E0_00_R0_01_R1_11_T_R0'
tg54
tp3416
a((S'2'
g354
t(S'2'
g355
tg178
tp3417
a((S'5'
g661
t(S'5'
g662
tg181
tp3418
a((S'2'
g307
t(S'2'
g308
tg178
tp3419
a((g7
S'E0_01_R0_11_R1_11_T_E0'
p3420
tp3421
(g7
S'E0_01_R0_11_R1_11_T_R0'
tg44
tp3422
a((S'2'
g296
t(S'2'
g1589
tg96
tp3423
a((g7
g542
t(g7
g1611
tg64
tp3424
a((S'7'
g119
t(S'7'
g1284
tg141
tp3425
a((S'5'
g661
t(S'5'
g2342
tg18
tp3426
a((S'7'
g711
t(S'7'
g1903
tg14
tp3427
a((S'9'
S'E0_11_R0_10_R1_00_T_E0'
p3428
tp3429
(S'9'
S'E0_11_R0_10_R1_00_T_R0'
tg44
tp3430
a((S'9'
g434
t(S'9'
g1383
tg178
tp3431
a(g1042
(S'2'
S'E0_10_R0_11_R1_11_T_R0'
tg44
tp3432
a((S'9'
g70
t(S'9'
g449
tg88
tp3433
a((S'8'
S'E0_00_R0_11_R1_01_T_E0'
p3434
tp3435
(S'8'
S'E0_00_R0_11_R1_01_T_R0'
tg44
tp3436
a((S'2'
g1213
t(S'2'
g1992
tg10
tp3437
a((S'9'
S'E0_01_R0_10_R1_11_T_E0'
p3438
tp3439
(S'9'
S'E0_01_R0_10_R1_11_T_R0'
tg44
tp3440
a((S'2'
g224
t(S'2'
g474
tg96
tp3441
a((S'3'
g691
t(S'3'
g1190
tg48
tp3442
a((S'2'
g8
t(S'2'
g9
tg10
tp3443
a((S'2'
g542
t(S'2'
g894
tg88
tp3444
a((S'7'
g124
t(S'7'
g177
tg178
tp3445
a((S'7'
g12
t(S'7'
g1580
tg92
tp3446
a((S'3'
g16
t(S'3'
g585
tg88
tp3447
a((S'4'
g459
t(S'4'
g2348
tg78
tp3448
a((S'7'
g196
t(S'7'
g547
tg18
tp3449
a((S'9'
g130
t(S'9'
g1125
tg96
tp3450
a((S'3'
g516
t(S'3'
g1621
tg141
tp3451
a((S'8'
g737
t(S'8'
g2965
tg18
tp3452
a((S'2'
g1088
t(S'2'
g2913
tg10
tp3453
a((S'4'
g351
t(S'4'
g352
tg40
tp3454
a((S'7'
g655
t(S'7'
g656
tg96
tp3455
a((S'3'
g634
t(S'3'
g2604
tg52
tp3456
a((S'2'
g1523
t(S'2'
g2577
tg14
tp3457
a((S'7'
g108
t(S'7'
g109
tg110
tp3458
a((S'4'
g1074
t(S'4'
g1075
tg141
tp3459
a((S'4'
g204
t(S'4'
g1020
tg18
tp3460
a((S'3'
g419
t(S'3'
g822
tg96
tp3461
a(g512
(S'2'
S'E0_00_R0_10_R1_10_T_R0'
tg44
tp3462
a((S'2'
S'E0_11_R0_01_R1_00_T_E0'
p3463
tp3464
(S'7'
S'E0_01_R0_01_R1_00_T_R0'
tg54
tp3465
a(g2982
(S'4'
S'E0_10_R0_01_R1_10_T_R0'
tg44
tp3466
a((S'9'
g161
t(S'9'
g499
tg96
tp3467
a((S'5'
g273
t(S'5'
g1094
tg22
tp3468
a((S'3'
g35
t(S'3'
g36
tg10
tp3469
a(g1018
(S'3'
S'E0_00_R0_01_R1_00_T_R0'
tg5
tp3470
a((S'6'
g452
t(S'6'
g952
tg48
tp3471
a((S'4'
g16
t(S'4'
g261
tg110
tp3472
a((S'2'
g290
t(S'2'
g2667
tg14
tp3473
a(g1958
(S'2'
S'E0_11_R0_00_R1_00_T_R0'
tg44
tp3474
a((S'2'
g711
t(S'2'
g1903
tg14
tp3475
a((S'2'
g240
t(S'2'
g2637
tg14
tp3476
a((S'6'
g127
t(S'6'
g1106
tg92
tp3477
a(g1470
(S'9'
S'E0_01_R0_01_R1_01_T_R0'
tg280
tp3478
a((S'7'
g216
t(S'7'
g701
tg48
tp3479
a((S'7'
g284
t(S'7'
g285
tg14
tp3480
a((S'5'
g86
t(S'5'
g2544
tg64
tp3481
a((S'9'
g711
t(S'9'
g1903
tg14
tp3482
a((S'4'
g563
t(S'4'
g2943
tg10
tp3483
a((S'8'
g579
t(S'8'
g1530
tg181
tp3484
a((g7
g655
t(g7
g1558
tg52
tp3485
a((S'8'
g183
t(S'8'
g1065
tg40
tp3486
a(g1470
(S'5'
S'E0_10_R0_01_R1_01_T_R0'
tg26
tp3487
a((S'5'
g164
t(S'5'
g2485
tg18
tp3488
a((S'2'
g555
t(S'2'
g1896
tg18
tp3489
a((g7
S'E0_01_R0_10_R1_10_T_E0'
p3490
tp3491
(g7
S'E0_01_R0_10_R1_10_T_R0'
tg44
tp3492
a(g1042
(g7
S'E0_01_R0_11_R1_11_T_R0'
tg231
tp3493
a((S'9'
g1241
t(S'9'
g1775
tg96
tp3494
a(g469
(S'2'
S'E0_01_R0_00_R1_01_T_R0'
tg44
tp3495
a((S'4'
g273
t(S'4'
g403
tg141
tp3496
a((S'4'
g248
t(S'4'
g2096
tg96
tp3497
a((S'3'
g66
t(S'3'
g2069
tg10
tp3498
a((S'6'
S'E0_11_R0_10_R1_11_T_E0'
p3499
tp3500
(S'6'
S'E0_11_R0_10_R1_11_T_R0'
tg44
tp3501
a((g7
g539
t(g7
g540
tg96
tp3502
a((S'4'
g582
t(S'4'
g730
tg30
tp3503
a((S'1'
g634
t(S'1'
g938
tg141
tp3504
a((S'5'
g1074
t(S'5'
g2992
tg22
tp3505
a((S'1'
g98
t(S'1'
g1427
tg92
tp3506
a((S'7'
g199
t(S'7'
g200
tg40
tp3507
a((S'7'
g83
t(S'7'
g316
tg181
tp3508
a((S'4'
g76
t(S'4'
g341
tg52
tp3509
a((S'9'
g452
t(S'9'
g1362
tg88
tp3510
a((g7
g139
t(g7
g1720
tg22
tp3511
a((S'2'
g28
t(S'2'
g29
tg30
tp3512
a((S'4'
g248
t(S'4'
g1152
tg40
tp3513
a((S'2'
g434
t(S'2'
g2414
tg18
tp3514
a((S'2'
g28
t(S'2'
g324
tg96
tp3515
a((S'4'
g265
t(S'4'
g820
tg88
tp3516
a((S'9'
g384
t(S'9'
g2124
tg18
tp3517
a((S'5'
g697
t(S'5'
g698
tg18
tp3518
a((S'5'
g336
t(S'5'
g337
tg78
tp3519
a((S'9'
S'E0_01_R0_00_R1_11_T_E0'
p3520
tp3521
(S'9'
S'E0_01_R0_00_R1_11_T_R0'
tg44
tp3522
a(g998
(S'3'
S'E0_00_R0_00_R1_10_T_R0'
tg5
tp3523
a((S'1'
g944
t(S'1'
g1440
tg10
tp3524
a((S'2'
g119
t(S'2'
g1745
tg78
tp3525
a((S'4'
g174
t(S'4'
g2054
tg92
tp3526
a((S'1'
g80
t(S'1'
g81
tg40
tp3527
a((S'3'
g737
t(S'3'
g2965
tg18
tp3528
a((S'5'
g516
t(S'5'
g1110
tg22
tp3529
a((S'9'
g38
t(S'9'
g159
tg52
tp3530
a((S'6'
g293
t(S'6'
g1318
tg18
tp3531
a((S'5'
g1260
tp3532
(S'5'
S'E0_11_R0_11_R1_01_T_R0'
tg44
tp3533
a((S'9'
g363
t(S'9'
g364
tg78
tp3534
a((S'1'
g90
t(S'1'
g1970
tg14
tp3535
a(g2465
(S'8'
S'E0_00_R0_01_R1_01_T_R0'
tg169
tp3536
a((S'2'
g307
t(S'2'
g3059
tg64
tp3537
a((S'9'
S'E0_11_R0_01_R1_10_T_E0'
p3538
tp3539
(S'9'
S'E0_11_R0_01_R1_10_T_R0'
tg44
tp3540
a((S'2'
g86
t(S'2'
g2544
tg64
tp3541
a((S'4'
g772
t(S'4'
g908
tg88
tp3542
a((S'4'
g133
t(S'4'
g620
tg40
tp3543
a((S'8'
g287
t(S'8'
g407
tg88
tp3544
a((S'2'
g673
t(S'2'
g1917
tg52
tp3545
a((S'7'
g631
t(S'7'
g1806
tg40
tp3546
a((S'6'
g360
t(S'6'
g1598
tg110
tp3547
a((S'2'
g130
t(S'2'
g1125
tg96
tp3548
a((S'5'
g265
t(S'5'
g417
tg18
tp3549
a(g2952
(S'4'
S'E0_00_R0_10_R1_10_T_R0'
tg54
tp3550
a((g7
g649
t(g7
g650
tg178
tp3551
a((S'3'
S'E0_10_R0_00_R1_11_T_E0'
p3552
tp3553
(S'3'
S'E0_10_R0_00_R1_11_T_R0'
tg44
tp3554
a((S'2'
g329
t(S'2'
g814
tg68
tp3555
a(g2895
(S'2'
S'E0_11_R0_11_R1_01_T_R0'
tg44
tp3556
a((S'4'
g387
t(S'4'
g2085
tg141
tp3557
a((S'9'
g1074
t(S'9'
g1075
tg141
tp3558
a((S'7'
g248
t(S'7'
g2096
tg96
tp3559
a((S'2'
g204
t(S'2'
g1020
tg18
tp3560
a((S'2'
g944
t(S'2'
g1635
tg178
tp3561
a((S'5'
g384
t(S'5'
g2124
tg18
tp3562
a(g770
(S'2'
S'E0_01_R0_00_R1_00_T_R0'
tg44
tp3563
a((S'7'
g253
t(S'7'
g254
tg64
tp3564
a((S'3'
g521
t(S'3'
g644
tg96
tp3565
a((S'9'
g354
t(S'9'
g2350
tg18
tp3566
a((S'4'
g782
t(S'4'
g1170
tg40
tp3567
a((S'9'
g649
t(S'9'
g1266
tg18
tp3568
a((S'2'
g265
t(S'2'
g417
tg18
tp3569
a((S'1'
g947
t(S'1'
g948
tg30
tp3570
a((S'4'
g566
t(S'4'
g1724
tg96
tp3571
a((S'2'
g102
t(S'2'
g2265
tg52
tp3572
a((S'3'
g484
t(S'3'
g716
tg40
tp3573
a((S'9'
g661
t(S'9'
g859
tg88
tp3574
a((S'3'
g634
t(S'3'
g635
tg78
tp3575
a((S'6'
g1096
t(S'6'
g1097
tg96
tp3576
a((S'4'
g876
t(S'4'
g2744
tg18
tp3577
a(g2895
(S'8'
S'E0_00_R0_11_R1_01_T_R0'
tg169
tp3578
a((S'2'
g56
t(S'2'
g57
tg18
tp3579
a((S'4'
g127
t(S'4'
g881
tg14
tp3580
a((S'4'
g1213
t(S'4'
g1860
tg181
tp3581
a((S'9'
g161
t(S'9'
g162
tg52
tp3582
a((S'5'
g98
t(S'5'
g1595
tg96
tp3583
a((S'7'
g94
t(S'7'
g1410
tg40
tp3584
a((S'9'
g207
t(S'9'
g1139
tg88
tp3585
a((g7
g28
t(g7
g1060
tg52
tp3586
a((S'5'
g360
t(S'5'
g1598
tg110
tp3587
a((S'2'
g772
t(S'2'
g1646
tg181
tp3588
a((S'4'
g782
t(S'4'
g783
tg92
tp3589
a(g2522
(S'4'
S'E0_10_R0_00_R1_01_T_R0'
tg26
tp3590
a((S'1'
g614
t(S'1'
g1274
tg96
tp3591
a((S'4'
g697
t(S'4'
g2659
tg181
tp3592
a((S'9'
g1096
t(S'9'
g1771
tg78
tp3593
a((S'1'
g634
t(S'1'
g850
tg96
tp3594
a((S'2'
g1492
t(S'2'
g1642
tg18
tp3595
a((S'5'
g59
t(S'5'
g1172
tg92
tp3596
a((S'2'
g396
t(S'2'
g397
tg141
tp3597
a((S'9'
S'E0_01_R0_00_R1_01_T_E0'
p3598
tp3599
(S'9'
S'E0_01_R0_00_R1_01_T_R0'
tg44
tp3600
a((g7
g655
t(g7
g656
tg96
tp3601
a((S'5'
g1088
t(S'5'
g2650
tg181
tp3602
a((S'2'
g149
t(S'2'
g150
tg10
tp3603
a((S'2'
g245
t(S'2'
g1919
tg64
tp3604
a((S'7'
g8
t(S'7'
g114
tg64
tp3605
a((S'9'
g127
t(S'9'
g881
tg14
tp3606
a((S'4'
g62
t(S'4'
g2358
tg18
tp3607
a((S'1'
g221
t(S'1'
g551
tg22
tp3608
a((S'4'
g213
t(S'4'
g1277
tg78
tp3609
a((S'8'
g419
t(S'8'
g420
tg52
tp3610
a((S'9'
g661
t(S'9'
g662
tg181
tp3611
a((S'1'
g501
t(S'1'
g2282
tg92
tp3612
a(g1239
(S'7'
S'E0_00_R0_10_R1_10_T_R0'
tg44
tp3613
a((S'5'
g336
t(S'5'
g903
tg141
tp3614
a(g706
(S'7'
S'E0_01_R0_11_R1_11_T_R0'
tg44
tp3615
a((S'2'
g697
t(S'2'
g2814
tg68
tp3616
a((S'4'
g900
t(S'4'
g2706
tg96
tp3617
a((S'7'
g50
t(S'7'
g2515
tg96
tp3618
a((S'2'
g32
t(S'2'
g157
tg64
tp3619
a((S'5'
g102
t(S'5'
g112
tg30
tp3620
a((S'7'
g737
t(S'7'
g2965
tg18
tp3621
a((S'4'
g369
t(S'4'
g1127
tg178
tp3622
a((S'9'
g452
t(S'9'
g453
tg18
tp3623
a((S'5'
g310
t(S'5'
g1766
tg88
tp3624
a((S'2'
g62
t(S'2'
g2052
tg88
tp3625
a((S'6'
g782
t(S'6'
g1170
tg40
tp3626
a((S'9'
g12
t(S'9'
g13
tg14
tp3627
a((S'9'
g555
t(S'9'
g2369
tg88
tp3628
a((S'3'
g265
t(S'3'
g266
tg64
tp3629
a((S'2'
g248
t(S'2'
g1152
tg40
tp3630
a((S'2'
g691
t(S'2'
g692
tg64
tp3631
a((S'5'
g46
t(S'5'
g533
tg88
tp3632
a((S'4'
g1523
t(S'4'
g2577
tg14
tp3633
a((S'2'
g452
t(S'2'
g952
tg48
tp3634
a((S'1'
g62
t(S'1'
g63
tg64
tp3635
a(g536
(S'8'
S'E0_00_R0_00_R1_10_T_R0'
tg169
tp3636
a((S'3'
g329
t(S'3'
g330
tg181
tp3637
a((S'4'
g539
t(S'4'
g2214
tg22
tp3638
a((S'4'
g105
t(S'4'
g678
tg18
tp3639
a((S'3'
g216
t(S'3'
g217
tg88
tp3640
a((S'5'
g1088
t(S'5'
g1307
tg68
tp3641
a(g1436
(S'5'
S'E0_10_R0_00_R1_01_T_R0'
tg26
tp3642
a((S'4'
g634
t(S'4'
g850
tg96
tp3643
a((S'2'
g336
t(S'2'
g903
tg141
tp3644
a((S'9'
g1096
t(S'9'
g1685
tg141
tp3645
a((S'7'
g83
t(S'7'
g84
tg68
tp3646
a(g2895
(S'7'
S'E0_01_R0_11_R1_01_T_R0'
tg54
tp3647
a((S'4'
g94
t(S'4'
g2629
tg30
tp3648
a((S'2'
g161
t(S'2'
g162
tg52
tp3649
a((S'7'
g105
t(S'7'
g106
tg10
tp3650
a((S'6'
g310
t(S'6'
g311
tg18
tp3651
a((g7
g928
t(g7
g1120
tg181
tp3652
a((S'4'
g76
t(S'4'
g2986
tg96
tp3653
a((S'4'
g1516
tp3654
(S'4'
S'E0_01_R0_10_R1_01_T_R0'
tg44
tp3655
a((S'7'
g772
t(S'7'
g834
tg18
tp3656
a((S'5'
g70
t(S'5'
g449
tg88
tp3657
a((S'8'
g745
t(S'8'
g746
tg96
tp3658
a((S'5'
g265
t(S'5'
g266
tg64
tp3659
a((S'2'
g80
t(S'2'
g263
tg52
tp3660
a((S'5'
g161
t(S'5'
g162
tg52
tp3661
a((S'5'
g35
t(S'5'
g36
tg10
tp3662
a((S'3'
g396
t(S'3'
g1015
tg14
tp3663
a((S'2'
g293
t(S'2'
g1318
tg18
tp3664
a((S'2'
g1492
t(S'2'
g1499
tg64
tp3665
a((S'2'
g605
t(S'2'
g1176
tg88
tp3666
a((S'9'
S'E0_01_R0_11_R1_10_T_E0'
p3667
tp3668
(S'9'
S'E0_01_R0_11_R1_10_T_R0'
tg44
tp3669
a((S'4'
g354
t(S'4'
g375
tg10
tp3670
a((S'5'
g357
t(S'5'
g1011
tg141
tp3671
a((S'6'
g384
t(S'6'
g1758
tg181
tp3672
a((S'4'
g164
t(S'4'
g2485
tg18
tp3673
a((S'7'
g925
t(S'7'
g1078
tg52
tp3674
a((S'7'
g105
t(S'7'
g233
tg64
tp3675
a(g2956
(S'4'
S'E0_01_R0_00_R1_10_T_R0'
tg54
tp3676
a((S'3'
g105
t(S'3'
g678
tg18
tp3677
a(g1958
(S'3'
S'E0_10_R0_00_R1_00_T_R0'
tg5
tp3678
a((S'2'
g396
t(S'2'
g3272
tg22
tp3679
a((S'2'
g711
t(S'2'
g712
tg40
tp3680
a((S'7'
g38
t(S'7'
g1309
tg96
tp3681
a((S'6'
g1096
t(S'6'
g1771
tg78
tp3682
a((S'4'
g655
t(S'4'
g1558
tg52
tp3683
a((S'2'
g102
t(S'2'
g1514
tg40
tp3684
a((S'4'
g737
t(S'4'
g2965
tg18
tp3685
a((S'5'
g947
t(S'5'
g2585
tg96
tp3686
a((S'8'
g396
t(S'8'
g3272
tg22
tp3687
a((S'1'
g221
t(S'1'
g346
tg96
tp3688
a(g2675
(S'7'
S'E0_01_R0_01_R1_00_T_R0'
tg44
tp3689
a(g1504
(S'5'
S'E0_10_R0_10_R1_00_T_R0'
tg26
tp3690
a((S'4'
g1241
t(S'4'
g1775
tg96
tp3691
a(g995
(S'9'
S'E0_01_R0_01_R1_00_T_R0'
tg280
tp3692
a((S'3'
g105
t(S'3'
g233
tg64
tp3693
a((S'3'
S'E0_00_R0_10_R1_00_T_E0'
p3694
tp3695
(S'3'
S'E0_00_R0_10_R1_00_T_R0'
tg44
tp3696
a((S'9'
g1096
t(S'9'
g1097
tg96
tp3697
a((S'2'
g876
t(S'2'
g2404
tg64
tp3698
a((S'4'
g634
t(S'4'
g2604
tg52
tp3699
a((S'1'
g164
t(S'1'
g749
tg181
tp3700
a((S'6'
g1096
t(S'6'
g2555
tg52
tp3701
a((S'5'
g387
t(S'5'
g388
tg78
tp3702
a((S'2'
g516
t(S'2'
g1110
tg22
tp3703
a((S'7'
g521
t(S'7'
g644
tg96
tp3704
a((S'4'
g354
t(S'4'
g2350
tg18
tp3705
a((S'7'
g602
t(S'7'
g767
tg18
tp3706
a((S'2'
g925
t(S'2'
g1942
tg141
tp3707
a((S'5'
g310
t(S'5'
g311
tg18
tp3708
a((S'5'
g221
t(S'5'
g551
tg22
tp3709
a((S'9'
g900
t(S'9'
g2232
tg141
tp3710
a((S'2'
g130
t(S'2'
g131
tg22
tp3711
a((S'2'
g90
t(S'2'
g1970
tg14
tp3712
a((S'7'
g12
t(S'7'
g1187
tg96
tp3713
a((S'7'
g555
t(S'7'
g2369
tg88
tp3714
a(g1565
(S'5'
S'E0_11_R0_10_R1_00_T_R0'
tg26
tp3715
a((S'3'
g124
t(S'3'
g2746
tg64
tp3716
a(g1452
(S'2'
S'E0_11_R0_10_R1_01_T_R0'
tg44
tp3717
a((S'8'
g50
t(S'8'
g2515
tg96
tp3718
a((S'4'
g224
t(S'4'
g225
tg92
tp3719
a((S'9'
S'E0_11_R0_11_R1_01_T_E0'
p3720
tp3721
(S'9'
S'E0_11_R0_11_R1_01_T_R0'
tg44
tp3722
a((S'1'
g947
t(S'1'
g2208
tg40
tp3723
a((S'4'
g579
t(S'4'
g580
tg18
tp3724
a((S'4'
g62
t(S'4'
g63
tg64
tp3725
a((S'6'
g343
t(S'6'
g1873
tg88
tp3726
a((S'6'
S'E0_11_R0_00_R1_10_T_E0'
p3727
tp3728
(S'6'
S'E0_11_R0_00_R1_10_T_R0'
tg44
tp3729
a((S'2'
g947
t(S'2'
g1908
tg52
tp3730
a((S'3'
g90
t(S'3'
g152
tg96
tp3731
a((S'3'
g50
t(S'3'
g1673
tg78
tp3732
a((S'1'
g944
t(S'1'
g1501
tg64
tp3733
a(g1378
(S'5'
S'E0_10_R0_00_R1_00_T_R0'
tg44
tp3734
a((S'8'
g680
t(S'8'
g1812
tg14
tp3735
a((S'6'
g149
t(S'6'
g1027
tg64
tp3736
a((S'4'
g183
t(S'4'
g184
tg30
tp3737
a((S'3'
g284
t(S'3'
g2026
tg22
tp3738
a((S'7'
g876
t(S'7'
g2744
tg18
tp3739
a((S'8'
g183
t(S'8'
g1964
tg52
tp3740
a(g1160
(S'4'
S'E0_01_R0_11_R1_11_T_R0'
tg54
tp3741
a((S'4'
g213
t(S'4'
g1921
tg141
tp3742
a((S'2'
g28
t(S'2'
g561
tg40
tp3743
a((S'6'
g161
t(S'6'
g162
tg52
tp3744
a((S'2'
g772
t(S'2'
g908
tg88
tp3745
a((S'4'
g161
t(S'4'
g2024
tg30
tp3746
a(g3062
(S'4'
S'E0_00_R0_11_R1_01_T_R0'
tg44
tp3747
a((S'9'
S'E0_01_R0_11_R1_01_T_E0'
p3748
tp3749
(S'9'
S'E0_01_R0_11_R1_01_T_R0'
tg44
tp3750
a((S'9'
S'E0_01_R0_11_R1_11_T_E0'
p3751
tp3752
(S'9'
S'E0_01_R0_11_R1_11_T_R0'
tg44
tp3753
a((S'2'
g127
t(S'2'
g881
tg14
tp3754
a((S'4'
g387
t(S'4'
g2228
tg52
tp3755
a((S'2'
g900
t(S'2'
g2706
tg96
tp3756
a(g2874
(S'4'
S'E0_11_R0_11_R1_10_T_R0'
tg26
tp3757
a((S'7'
g76
t(S'7'
g341
tg52
tp3758
a((S'1'
g501
t(S'1'
g1355
tg14
tp3759
a((S'2'
g876
t(S'2'
g877
tg48
tp3760
a((S'2'
g86
t(S'2'
g405
tg48
tp3761
a((g7
g301
t(g7
g2189
tg88
tp3762
a((S'9'
g235
t(S'9'
g1432
tg68
tp3763
a((S'2'
g124
t(S'2'
g2746
tg64
tp3764
a((S'3'
g501
t(S'3'
g502
tg96
tp3765
a(g415
(S'5'
S'E0_11_R0_01_R1_10_T_R0'
tg26
tp3766
a((S'3'
g336
t(S'3'
g903
tg141
tp3767
a((S'2'
g1523
t(S'2'
g1978
tg92
tp3768
a((S'2'
g304
t(S'2'
g305
tg96
tp3769
a((S'2'
g582
t(S'2'
g1999
tg52
tp3770
a((S'4'
g2430
tp3771
(S'4'
S'E0_00_R0_01_R1_10_T_R0'
tg44
tp3772
a((S'4'
g396
t(S'4'
g1015
tg14
tp3773
a((S'3'
g1088
t(S'3'
g2913
tg10
tp3774
a((S'2'
g366
t(S'2'
g367
tg181
tp3775
a((S'2'
g149
t(S'2'
g587
tg178
tp3776
a((g7
g566
t(g7
g641
tg52
tp3777
a((S'9'
g390
t(S'9'
g1761
tg10
tp3778
a((S'8'
g105
t(S'8'
g678
tg18
tp3779
a((S'3'
g737
t(S'3'
g922
tg64
tp3780
a((S'4'
g290
t(S'4'
g2667
tg14
tp3781
a(g598
(S'8'
S'E0_00_R0_11_R1_10_T_R0'
tg169
tp3782
a((S'2'
g216
t(S'2'
g217
tg88
tp3783
a((S'4'
g409
t(S'4'
g429
tg22
tp3784
a((S'2'
g296
t(S'2'
g1003
tg40
tp3785
a((S'3'
g307
t(S'3'
g3059
tg64
tp3786
a(g1870
(S'5'
S'E0_10_R0_11_R1_01_T_R0'
tg26
tp3787
a((S'2'
g655
t(S'2'
g2087
tg141
tp3788
a((S'2'
g16
t(S'2'
g261
tg110
tp3789
a((S'5'
g213
t(S'5'
g214
tg96
tp3790
a((S'7'
g745
t(S'7'
g746
tg96
tp3791
a((S'4'
g35
t(S'4'
g1535
tg181
tp3792
a((S'5'
g59
t(S'5'
g1506
tg96
tp3793
a(g1894
(S'4'
S'E0_00_R0_11_R1_00_T_R0'
tg44
tp3794
a((S'2'
g351
t(S'2'
g1244
tg30
tp3795
a(g1339
(S'3'
S'E0_10_R0_00_R1_11_T_R0'
tg5
tp3796
a(g2511
(S'4'
S'E0_11_R0_11_R1_10_T_R0'
tg26
tp3797
a((S'4'
g73
t(S'4'
g506
tg18
tp3798
a((S'7'
g390
t(S'7'
g455
tg178
tp3799
a((S'4'
g1054
t(S'4'
g1481
tg181
tp3800
a((S'5'
g62
t(S'5'
g3017
tg48
tp3801
a((g7
g56
t(g7
g180
tg181
tp3802
a((S'5'
g1096
t(S'5'
g1771
tg78
tp3803
a((S'4'
g124
t(S'4'
g1232
tg10
tp3804
a((S'4'
g38
t(S'4'
g159
tg52
tp3805
a((S'9'
g928
t(S'9'
g936
tg18
tp3806
a((S'4'
g304
t(S'4'
g569
tg22
tp3807
a((S'8'
g76
t(S'8'
g2986
tg96
tp3808
a((S'8'
S'E0_00_R0_01_R1_01_T_E0'
p3809
tp3810
(S'8'
S'E0_00_R0_01_R1_01_T_R0'
tg44
tp3811
a((S'4'
g516
t(S'4'
g517
tg14
tp3812
a((S'4'
g164
t(S'4'
g749
tg181
tp3813
a((S'7'
g631
t(S'7'
g632
tg96
tp3814
a((S'4'
g248
t(S'4'
g249
tg92
tp3815
a((S'2'
g579
t(S'2'
g931
tg88
tp3816
a((S'8'
g240
t(S'8'
g241
tg141
tp3817
a((S'7'
g900
t(S'7'
g2706
tg96
tp3818
a((S'4'
g928
t(S'4'
g936
tg18
tp3819
a((S'9'
S'E0_01_R0_01_R1_11_T_E0'
p3820
tp3821
(S'9'
S'E0_01_R0_01_R1_11_T_R0'
tg44
tp3822
a((S'9'
g199
t(S'9'
g1050
tg96
tp3823
a((S'9'
g697
t(S'9'
g2659
tg181
tp3824
a((S'6'
g582
t(S'6'
g1613
tg40
tp3825
a((S'9'
g70
t(S'9'
g71
tg18
tp3826
a((S'2'
g253
t(S'2'
g1791
tg18
tp3827
a((S'5'
g563
t(S'5'
g2943
tg10
tp3828
a((S'1'
g724
t(S'1'
g725
tg64
tp3829
a((S'5'
g724
t(S'5'
g1123
tg18
tp3830
a((S'2'
g434
t(S'2'
g1383
tg178
tp3831
a((S'5'
g1074
t(S'5'
g1429
tg96
tp3832
a((S'4'
g602
t(S'4'
g603
tg10
tp3833
a((S'7'
g216
t(S'7'
g1234
tg18
tp3834
a((S'3'
S'E0_10_R0_10_R1_00_T_E0'
p3835
tp3836
(S'3'
S'E0_10_R0_10_R1_00_T_R0'
tg44
tp3837
a((S'3'
g579
t(S'3'
g580
tg18
tp3838
a((S'5'
g423
t(S'5'
g658
tg14
tp3839
a((S'2'
g174
t(S'2'
g175
tg14
tp3840
a((S'5'
g296
t(S'5'
g297
tg52
tp3841
a((S'2'
g724
t(S'2'
g725
tg64
tp3842
a((S'8'
g287
t(S'8'
g1449
tg110
tp3843
a((S'3'
g423
t(S'3'
g1404
tg22
tp3844
a((S'3'
S'E0_00_R0_11_R1_01_T_E0'
p3845
tp3846
(S'3'
S'E0_00_R0_11_R1_01_T_R0'
tg44
tp3847
a((S'6'
g343
t(S'6'
g344
tg181
tp3848
a((S'2'
g452
t(S'2'
g2152
tg64
tp3849
a((S'4'
g947
t(S'4'
g2208
tg40
tp3850
a((S'8'
g772
t(S'8'
g1646
tg181
tp3851
a((S'4'
g369
t(S'4'
g1068
tg10
tp3852
a((S'3'
g579
t(S'3'
g1530
tg181
tp3853
a((S'1'
g614
t(S'1'
g615
tg78
tp3854
a((S'3'
g516
t(S'3'
g517
tg14
tp3855
a((S'4'
g634
t(S'4'
g938
tg141
tp3856
a((S'8'
S'E0_00_R0_10_R1_10_T_E0'
p3857
tp3858
(S'8'
S'E0_00_R0_10_R1_10_T_R0'
tg44
tp3859
a((S'5'
g697
t(S'5'
g2659
tg181
tp3860
a((S'6'
g459
t(S'6'
g2348
tg78
tp3861
a(g1133
(S'4'
S'E0_00_R0_11_R1_11_T_R0'
tg54
tp3862
a((S'9'
g56
t(S'9'
g180
tg181
tp3863
a((S'2'
g357
t(S'2'
g358
tg96
tp3864
a((S'9'
g697
t(S'9'
g698
tg18
tp3865
a((S'3'
S'E0_10_R0_11_R1_10_T_E0'
p3866
tp3867
(S'3'
S'E0_10_R0_11_R1_10_T_R0'
tg44
tp3868
a((S'2'
g108
t(S'2'
g920
tg18
tp3869
a((S'3'
g62
t(S'3'
g2052
tg88
tp3870
a((S'5'
g296
t(S'5'
g1589
tg96
tp3871
a((S'5'
g947
t(S'5'
g948
tg30
tp3872
a((S'8'
g396
t(S'8'
g1208
tg96
tp3873
a((S'7'
g928
t(S'7'
g929
tg88
tp3874
a((S'9'
g1096
t(S'9'
g2555
tg52
tp3875
a(g2443
(S'5'
S'E0_11_R0_10_R1_01_T_R0'
tg26
tp3876
a((S'2'
g459
t(S'2'
g797
tg96
tp3877
a(g1628
(S'4'
S'E0_11_R0_10_R1_00_T_R0'
tg44
tp3878
a((S'4'
g108
t(S'4'
g109
tg110
tp3879
a(g3222
(S'7'
S'E0_00_R0_00_R1_11_T_R0'
tg44
tp3880
a((S'2'
g62
t(S'2'
g2358
tg18
tp3881
a((S'5'
g697
t(S'5'
g2814
tg68
tp3882
a((S'2'
g1096
t(S'2'
g1097
tg96
tp3883
a((S'2'
g224
t(S'2'
g225
tg92
tp3884
a(g137
(S'5'
S'E0_11_R0_11_R1_11_T_R0'
tg26
tp3885
a((S'7'
g329
t(S'7'
g959
tg18
tp3886
a((S'9'
g296
t(S'9'
g1509
tg30
tp3887
a((S'2'
g928
t(S'2'
g1120
tg181
tp3888
a(g1638
(S'4'
S'E0_00_R0_01_R1_10_T_R0'
tg54
tp3889
a((S'4'
g293
t(S'4'
g1324
tg64
tp3890
a((S'4'
g304
t(S'4'
g427
tg141
tp3891
a((S'2'
g127
t(S'2'
g128
tg96
tp3892
a((g7
g649
t(g7
g1266
tg18
tp3893
a((S'9'
g563
t(S'9'
g852
tg178
tp3894
a((S'4'
g216
t(S'4'
g1216
tg64
tp3895
a((S'2'
g102
t(S'2'
g103
tg96
tp3896
a((S'2'
g737
t(S'2'
g1815
tg88
tp3897
a((S'7'
g183
t(S'7'
g1964
tg52
tp3898
a((S'1'
g86
t(S'1'
g87
tg88
tp3899
a((S'4'
g59
t(S'4'
g1385
tg40
tp3900
a((S'6'
g46
t(S'6'
g47
tg48
tp3901
a((S'3'
g224
t(S'3'
g412
tg14
tp3902
a((S'7'
g1523
t(S'7'
g1978
tg92
tp3903
a((S'2'
g66
t(S'2'
g2230
tg18
tp3904
a((S'2'
g16
t(S'2'
g585
tg88
tp3905
a(g770
(S'3'
S'E0_00_R0_00_R1_00_T_R0'
tg5
tp3906
a((S'4'
g563
t(S'4'
g686
tg64
tp3907
a((S'2'
g16
t(S'2'
g816
tg181
tp3908
a((S'2'
g563
t(S'2'
g852
tg178
tp3909
a((S'1'
g369
t(S'1'
g1127
tg178
tp3910
a((S'4'
g16
t(S'4'
g816
tg181
tp3911
a((S'2'
g363
t(S'2'
g1955
tg52
tp3912
a((S'3'
g336
t(S'3'
g1568
tg96
tp3913
a((S'2'
g186
t(S'2'
g1763
tg10
tp3914
a((S'6'
g1074
t(S'6'
g1429
tg96
tp3915
a((S'1'
g86
t(S'1'
g405
tg48
tp3916
a((S'4'
g80
t(S'4'
g982
tg30
tp3917
a((S'4'
g381
t(S'4'
g839
tg181
tp3918
a((S'6'
g1241
t(S'6'
g1242
tg14
tp3919
a((S'1'
g484
t(S'1'
g485
tg96
tp3920
a((S'4'
g1096
t(S'4'
g2555
tg52
tp3921
a((S'2'
g925
t(S'2'
g1078
tg52
tp3922
a((S'2'
g484
t(S'2'
g716
tg40
tp3923
a((S'6'
S'E0_11_R0_00_R1_11_T_E0'
p3924
tp3925
(S'6'
S'E0_11_R0_00_R1_11_T_R0'
tg44
tp3926
a((S'7'
g108
t(S'7'
g545
tg181
tp3927
a((S'2'
g539
t(S'2'
g1326
tg14
tp3928
a((S'3'
g196
t(S'3'
g197
tg10
tp3929
a((S'8'
g240
t(S'8'
g2637
tg14
tp3930
a((S'3'
g372
t(S'3'
g1280
tg10
tp3931
a((S'7'
g772
t(S'7'
g1646
tg181
tp3932
a((S'4'
g16
t(S'4'
g585
tg88
tp3933
a((S'3'
g94
t(S'3'
g2629
tg30
tp3934
a((S'5'
g46
t(S'5'
g703
tg18
tp3935
a((S'2'
g310
t(S'2'
g311
tg18
tp3936
a(g3406
(S'4'
S'E0_01_R0_01_R1_01_T_R0'
tg44
tp3937
a((g7
S'E0_01_R0_01_R1_11_T_E0'
p3938
tp3939
(g7
S'E0_01_R0_01_R1_11_T_R0'
tg44
tp3940
a(g1099
(S'7'
S'E0_00_R0_11_R1_10_T_R0'
tg44
tp3941
a(g1870
(S'6'
S'E0_11_R0_11_R1_01_T_R0'
tg334
tp3942
a((S'8'
S'E0_00_R0_11_R1_11_T_E0'
p3943
tp3944
(S'8'
S'E0_00_R0_11_R1_11_T_R0'
tg44
tp3945
a((S'2'
g384
t(S'2'
g1758
tg181
tp3946
a((S'5'
g213
t(S'5'
g1277
tg78
tp3947
a((S'2'
g253
t(S'2'
g282
tg178
tp3948
a((S'1'
g35
t(S'1'
g1535
tg181
tp3949
a((S'2'
g46
t(S'2'
g1368
tg64
tp3950
a((S'4'
g98
t(S'4'
g1427
tg92
tp3951
a((S'2'
g357
t(S'2'
g832
tg52
tp3952
a((S'4'
g296
t(S'4'
g1003
tg40
tp3953
a((S'2'
g372
t(S'2'
g373
tg18
tp3954
a((S'8'
g32
t(S'8'
g1206
tg88
tp3955
a(g2505
(g7
S'E0_01_R0_10_R1_00_T_R0'
tg231
tp3956
a((S'7'
g240
t(S'7'
g2637
tg14
tp3957
a((S'4'
g253
t(S'4'
g254
tg64
tp3958
a((S'9'
g351
t(S'9'
g827
tg52
tp3959
a((S'7'
g649
t(S'7'
g1924
tg64
tp3960
a((S'4'
g139
t(S'4'
g1447
tg96
tp3961
a(g1034
(S'7'
S'E0_00_R0_10_R1_00_T_R0'
tg44
tp3962
a((S'2'
g186
t(S'2'
g187
tg68
tp3963
a((S'5'
g1492
t(S'5'
g1642
tg18
tp3964
a(g985
(S'7'
S'E0_00_R0_01_R1_00_T_R0'
tg54
tp3965
a((S'4'
g484
t(S'4'
g549
tg30
tp3966
a((S'2'
g253
t(S'2'
g976
tg10
tp3967
a((S'5'
g1096
t(S'5'
g1685
tg141
tp3968
a((S'8'
g329
t(S'8'
g814
tg68
tp3969
a((S'6'
g661
t(S'6'
g2342
tg18
tp3970
a((S'7'
g207
t(S'7'
g208
tg110
tp3971
a((S'4'
g369
t(S'4'
g574
tg64
tp3972
a((S'4'
g372
t(S'4'
g1554
tg68
tp3973
a((S'4'
g357
t(S'4'
g1011
tg141
tp3974
a((S'5'
g70
t(S'5'
g558
tg48
tp3975
a((S'3'
g253
t(S'3'
g1791
tg18
tp3976
a((S'8'
g133
t(S'8'
g620
tg40
tp3977
a((S'1'
S'E0_10_R0_10_R1_00_T_E0'
p3978
tp3979
(S'1'
S'E0_10_R0_10_R1_00_T_R0'
tg44
tp3980
a((S'4'
g164
t(S'4'
g492
tg68
tp3981
a(g1452
(S'8'
S'E0_00_R0_10_R1_01_T_R0'
tg169
tp3982
a((S'6'
g174
t(S'6'
g1314
tg96
tp3983
a((S'2'
g1241
t(S'2'
g1466
tg92
tp3984
a((S'4'
g216
t(S'4'
g701
tg48
tp3985
a((S'9'
g360
t(S'9'
g1598
tg110
tp3986
a((S'2'
g539
t(S'2'
g2192
tg141
tp3987
a((g7
g539
t(g7
g2214
tg22
tp3988
a((S'7'
g925
t(S'7'
g1942
tg141
tp3989
a((g7
S'E0_01_R0_11_R1_10_T_E0'
p3990
tp3991
(g7
S'E0_01_R0_11_R1_10_T_R0'
tg44
tp3992
a(g1912
(S'4'
S'E0_11_R0_11_R1_00_T_R0'
tg26
tp3993
a(g2360
(S'7'
S'E0_01_R0_00_R1_10_T_R0'
tg44
tp3994
a((S'2'
g711
t(S'2'
g1865
tg96
tp3995
a((S'1'
S'E0_10_R0_01_R1_01_T_E0'
p3996
tp3997
(S'1'
S'E0_10_R0_01_R1_01_T_R0'
tg44
tp3998
a((S'2'
g419
t(S'2'
g527
tg141
tp3999
a(g2807
(S'5'
S'E0_11_R0_00_R1_01_T_R0'
tg44
tp4000
a((S'7'
g240
t(S'7'
g2866
tg22
tp4001
a((S'7'
g50
t(S'7'
g1673
tg78
tp4002
a(g1574
(S'4'
S'E0_00_R0_11_R1_10_T_R0'
tg54
tp4003
a((S'2'
g634
t(S'2'
g850
tg96
tp4004
a((S'2'
g459
t(S'2'
g460
tg52
tp4005
a((S'2'
g782
t(S'2'
g783
tg92
tp4006
a((S'8'
g521
t(S'8'
g644
tg96
tp4007
a((S'2'
g724
t(S'2'
g2099
tg10
tp4008
a((S'5'
g634
t(S'5'
g2604
tg52
tp4009
a((S'2'
g66
t(S'2'
g1303
tg181
tp4010
a((S'4'
g28
t(S'4'
g29
tg30
tp4011
a((S'5'
g186
t(S'5'
g1763
tg10
tp4012
a((S'5'
g127
t(S'5'
g1106
tg92
tp4013
a((S'9'
g363
t(S'9'
g1416
tg141
tp4014
a(g3196
(S'4'
S'E0_00_R0_00_R1_00_T_R0'
tg54
tp4015
a((S'9'
g38
t(S'9'
g39
tg40
tp4016
a((S'4'
g360
t(S'4'
g1598
tg110
tp4017
a((S'4'
g1412
tp4018
(S'4'
S'E0_00_R0_10_R1_01_T_R0'
tg54
tp4019
a(g509
(S'3'
S'E0_10_R0_01_R1_10_T_R0'
tg5
tp4020
a((S'2'
g582
t(S'2'
g1613
tg40
tp4021
a((S'6'
g46
t(S'6'
g533
tg88
tp4022
a((S'3'
g772
t(S'3'
g1646
tg181
tp4023
a((S'5'
g310
t(S'5'
g1683
tg181
tp4024
a((S'3'
g724
t(S'3'
g2099
tg10
tp4025
a((g7
g566
t(g7
g2237
tg30
tp4026
a((S'8'
g216
t(S'8'
g701
tg48
tp4027
a((S'5'
g947
t(S'5'
g2208
tg40
tp4028
a((S'9'
g213
t(S'9'
g1277
tg78
tp4029
a((S'7'
g649
t(S'7'
g650
tg178
tp4030
a(g598
(S'2'
S'E0_11_R0_11_R1_10_T_R0'
tg44
tp4031
a((S'2'
g240
t(S'2'
g268
tg96
tp4032
a(g2092
(S'4'
S'E0_01_R0_10_R1_11_T_R0'
tg54
tp4033
a((S'7'
g602
t(S'7'
g1072
tg68
tp4034
a((S'5'
g484
t(S'5'
g485
tg96
tp4035
a((S'2'
g354
t(S'2'
g1293
tg64
tp4036
a((g7
g235
t(g7
g2495
tg10
tp4037
a((S'5'
g204
t(S'5'
g1020
tg18
tp4038
a((S'2'
g304
t(S'2'
g569
tg22
tp4039
a(g1366
(S'4'
S'E0_01_R0_10_R1_10_T_R0'
tg54
tp4040
a(g3464
(S'2'
S'E0_11_R0_01_R1_00_T_R0'
tg44
tp4041
a(g3464
(S'3'
S'E0_10_R0_01_R1_00_T_R0'
tg5
tp4042
a((S'3'
S'E0_10_R0_11_R1_11_T_E0'
p4043
tp4044
(S'3'
S'E0_10_R0_11_R1_11_T_R0'
tg44
tp4045
a((S'6'
g459
t(S'6'
g460
tg52
tp4046
a((S'2'
g189
t(S'2'
g202
tg110
tp4047
a((S'5'
g947
t(S'5'
g1908
tg52
tp4048
a((S'2'
g221
t(S'2'
g346
tg96
tp4049
a((S'3'
g947
t(S'3'
g948
tg30
tp4050
a((S'3'
g196
t(S'3'
g514
tg181
tp4051
a((S'8'
g691
t(S'8'
g692
tg64
tp4052
a((S'9'
g1213
t(S'9'
g1992
tg10
tp4053
a((g7
g1213
t(g7
g2247
tg68
tp4054
a((S'6'
g70
t(S'6'
g1007
tg64
tp4055
a(g2379
(S'4'
S'E0_00_R0_11_R1_01_T_R0'
tg54
tp4056
a((S'7'
g284
t(S'7'
g1939
tg141
tp4057
a((S'9'
g928
t(S'9'
g929
tg88
tp4058
a((S'9'
g459
t(S'9'
g460
tg52
tp4059
a(g1504
(S'9'
S'E0_01_R0_10_R1_00_T_R0'
tg280
tp4060
a((S'4'
g189
t(S'4'
g990
tg18
tp4061
a((S'9'
g304
t(S'9'
g431
tg14
tp4062
a((S'2'
g284
t(S'2'
g2026
tg22
tp4063
a((S'9'
g343
t(S'9'
g1873
tg88
tp4064
a(g2169
(S'3'
S'E0_10_R0_10_R1_00_T_R0'
tg5
tp4065
a((S'4'
g484
t(S'4'
g485
tg96
tp4066
a((S'9'
g360
t(S'9'
g361
tg18
tp4067
a((S'4'
g579
t(S'4'
g1606
tg110
tp4068
a((S'9'
g434
t(S'9'
g529
tg10
tp4069
a((S'2'
g521
t(S'2'
g522
tg30
tp4070
a((S'2'
g655
t(S'2'
g656
tg96
tp4071
a((S'4'
g539
t(S'4'
g2192
tg141
tp4072
a(g525
(S'3'
S'E0_10_R0_10_R1_10_T_R0'
tg5
tp4073
a((S'4'
g301
t(S'4'
g302
tg64
tp4074
a((S'1'
g947
t(S'1'
g2585
tg96
tp4075
a((S'8'
g94
t(S'8'
g122
tg52
tp4076
a((S'2'
g38
t(S'2'
g1425
tg30
tp4077
a((S'2'
g20
t(S'2'
g1029
tg141
tp4078
a((S'7'
g94
t(S'7'
g122
tg52
tp4079
a((S'7'
g56
t(S'7'
g829
tg10
tp4080
a((S'4'
g434
t(S'4'
g435
tg64
tp4081
a((S'1'
g634
t(S'1'
g2604
tg52
tp4082
a((S'4'
g396
t(S'4'
g3272
tg22
tp4083
a((S'3'
g20
t(S'3'
g1222
tg14
tp4084
a((S'3'
g164
t(S'3'
g2485
tg18
tp4085
a((S'9'
g12
t(S'9'
g1228
tg40
tp4086
a((S'7'
g1893
tp4087
(S'7'
S'E0_00_R0_11_R1_00_T_R0'
tg44
tp4088
a((S'4'
g66
t(S'4'
g67
tg68
tp4089
a((S'8'
S'E0_00_R0_00_R1_11_T_E0'
p4090
tp4091
(S'8'
S'E0_00_R0_00_R1_11_T_R0'
tg44
tp4092
a((S'4'
g102
t(S'4'
g1514
tg40
tp4093
a((S'5'
g293
t(S'5'
g294
tg88
tp4094
a((S'7'
g605
t(S'7'
g1601
tg181
tp4095
a((S'4'
g384
t(S'4'
g676
tg68
tp4096
a((S'6'
g360
t(S'6'
g3152
tg181
tp4097
a((S'9'
g782
t(S'9'
g788
tg14
tp4098
a((S'3'
S'E0_00_R0_00_R1_00_T_E0'
p4099
tp4100
(S'3'
S'E0_00_R0_00_R1_00_T_R0'
tg44
tp4101
a(g3532
(S'4'
S'E0_01_R0_11_R1_01_T_R0'
tg54
tp4102
a((S'7'
g124
t(S'7'
g2746
tg64
tp4103
a((S'5'
g174
t(S'5'
g918
tg40
tp4104
a((S'8'
g196
t(S'8'
g547
tg18
tp4105
a((S'8'
g32
t(S'8'
g910
tg48
tp4106
a((S'9'
g296
t(S'9'
g1589
tg96
tp4107
a((S'7'
g566
t(S'7'
g641
tg52
tp4108
a((S'9'
g384
t(S'9'
g676
tg68
tp4109
a((S'5'
g614
t(S'5'
g664
tg52
tp4110
a((S'1'
g35
t(S'1'
g36
tg10
tp4111
a((S'2'
g351
t(S'2'
g827
tg52
tp4112
a(g1103
(S'8'
S'E0_00_R0_01_R1_11_T_R0'
tg169
tp4113
a(g844
(S'4'
S'E0_01_R0_00_R1_10_T_R0'
tg44
tp4114
a((S'4'
g452
t(S'4'
g2152
tg64
tp4115
a((S'6'
g452
t(S'6'
g453
tg18
tp4116
a((S'7'
g419
t(S'7'
g420
tg52
tp4117
a((S'4'
g329
t(S'4'
g959
tg18
tp4118
a((S'2'
g240
t(S'2'
g2866
tg22
tp4119
a((S'3'
g387
t(S'3'
g2228
tg52
tp4120
a((g7
g354
t(g7
g1293
tg64
tp4121
a((S'4'
g876
t(S'4'
g877
tg48
tp4122
a((S'2'
g265
t(S'2'
g820
tg88
tp4123
a((S'4'
g680
t(S'4'
g954
tg40
tp4124
a(g3771
(S'4'
S'E0_10_R0_01_R1_10_T_R0'
tg26
tp4125
a((S'2'
g161
t(S'2'
g2024
tg30
tp4126
a((S'6'
g310
t(S'6'
g1683
tg181
tp4127
a((S'4'
g680
t(S'4'
g1812
tg14
tp4128
a((g7
g56
t(g7
g57
tg18
tp4129
a((S'5'
g102
t(S'5'
g1514
tg40
tp4130
a((S'3'
g944
t(S'3'
g945
tg18
tp4131
a(g786
(S'4'
S'E0_01_R0_11_R1_11_T_R0'
tg54
tp4132
a((S'2'
g782
t(S'2'
g788
tg14
tp4133
a((S'5'
g149
t(S'5'
g714
tg18
tp4134
a((S'9'
g149
t(S'9'
g1027
tg64
tp4135
a((S'1'
g265
t(S'1'
g444
tg48
tp4136
a(g469
(S'3'
S'E0_00_R0_00_R1_01_T_R0'
tg5
tp4137
a((S'6'
g452
t(S'6'
g1362
tg88
tp4138
a(g4087
(S'4'
S'E0_10_R0_11_R1_00_T_R0'
tg26
tp4139
a((S'9'
g661
t(S'9'
g2342
tg18
tp4140
a((S'5'
g501
t(S'5'
g2282
tg92
tp4141
a((S'3'
g216
t(S'3'
g1216
tg64
tp4142
a((S'6'
S'E0_11_R0_11_R1_11_T_E0'
p4143
tp4144
(S'6'
S'E0_11_R0_11_R1_11_T_R0'
tg44
tp4145
a(g509
(S'8'
S'E0_00_R0_01_R1_10_T_R0'
tg169
tp4146
a((S'4'
g928
t(S'4'
g1120
tg181
tp4147
a((S'4'
g673
t(S'4'
g1496
tg78
tp4148
a(g2465
(S'2'
S'E0_11_R0_01_R1_01_T_R0'
tg44
tp4149
a((S'5'
g46
t(S'5'
g47
tg48
tp4150
a((S'8'
g240
t(S'8'
g2866
tg22
tp4151
a(g1037
(S'9'
S'E0_11_R0_00_R1_00_T_R0'
tg280
tp4152
a((S'9'
g186
t(S'9'
g187
tg68
tp4153
a(g1219
(S'7'
S'E0_01_R0_00_R1_01_T_R0'
tg54
tp4154
a((S'7'
g235
t(S'7'
g2495
tg10
tp4155
a((S'9'
g542
t(S'9'
g728
tg18
tp4156
a((S'3'
g253
t(S'3'
g254
tg64
tp4157
a((S'2'
g207
t(S'2'
g791
tg181
tp4158
a((g7
g539
t(g7
g2192
tg141
tp4159
a((S'1'
g62
t(S'1'
g3017
tg48
tp4160
a((S'2'
g516
t(S'2'
g2073
tg96
tp4161
a(g1246
(S'4'
S'E0_01_R0_00_R1_00_T_R0'
tg54
tp4162
a((S'5'
g357
t(S'5'
g358
tg96
tp4163
a((S'1'
g387
t(S'1'
g2085
tg141
tp4164
a((S'3'
S'E0_00_R0_10_R1_10_T_E0'
p4165
tp4166
(S'3'
S'E0_00_R0_10_R1_10_T_R0'
tg44
tp4167
a((S'5'
g634
t(S'5'
g850
tg96
tp4168
a((S'3'
S'E0_10_R0_00_R1_01_T_E0'
p4169
tp4170
(S'3'
S'E0_10_R0_00_R1_01_T_R0'
tg44
tp4171
a((S'5'
g563
t(S'5'
g564
tg18
tp4172
a((S'4'
g1573
tp4173
(S'4'
S'E0_10_R0_11_R1_10_T_R0'
tg44
tp4174
a((S'3'
g284
t(S'3'
g285
tg14
tp4175
a((S'2'
g563
t(S'2'
g2943
tg10
tp4176
a((S'4'
g240
t(S'4'
g2637
tg14
tp4177
a((S'7'
g38
t(S'7'
g159
tg52
tp4178
a((S'9'
g161
t(S'9'
g2024
tg30
tp4179
a((S'5'
g221
t(S'5'
g346
tg96
tp4180
a((S'1'
g372
t(S'1'
g1554
tg68
tp4181
a((S'4'
g207
t(S'4'
g2163
tg18
tp4182
a((S'4'
g384
t(S'4'
g2124
tg18
tp4183
a((g7
g139
t(g7
g933
tg14
tp4184
a((S'7'
g876
t(S'7'
g2404
tg64
tp4185
a((S'9'
g876
t(S'9'
g2404
tg64
tp4186
a((S'8'
g396
t(S'8'
g397
tg141
tp4187
a((S'9'
g876
t(S'9'
g2744
tg18
tp4188
a(g695
(S'9'
S'E0_11_R0_01_R1_01_T_R0'
tg280
tp4189
a((S'4'
g555
t(S'4'
g2369
tg88
tp4190
a((S'4'
g566
t(S'4'
g2237
tg30
tp4191
a((S'2'
g579
t(S'2'
g1530
tg181
tp4192
a((S'4'
g566
t(S'4'
g567
tg40
tp4193
a((S'5'
g189
t(S'5'
g202
tg110
tp4194
a((S'6'
g73
t(S'6'
g1406
tg10
tp4195
a((S'5'
g73
t(S'5'
g74
tg64
tp4196
a((S'8'
g248
t(S'8'
g2096
tg96
tp4197
a((S'9'
g555
t(S'9'
g1896
tg18
tp4198
a((S'4'
g419
t(S'4'
g754
tg78
tp4199
a((S'7'
g542
t(S'7'
g1611
tg64
tp4200
a((S'6'
g459
t(S'6'
g646
tg141
tp4201
a((S'9'
g555
t(S'9'
g556
tg110
tp4202
a((S'8'
g133
t(S'8'
g134
tg96
tp4203
a((S'8'
g32
t(S'8'
g157
tg64
tp4204
a((S'4'
g631
t(S'4'
g765
tg52
tp4205
a((S'5'
g273
t(S'5'
g274
tg14
tp4206
a(g1932
(S'4'
S'E0_11_R0_11_R1_01_T_R0'
tg26
tp4207
a((S'2'
g542
t(S'2'
g1611
tg64
tp4208
a((S'9'
g207
t(S'9'
g791
tg181
tp4209
a((S'2'
g384
t(S'2'
g385
tg10
tp4210
a((S'5'
g360
t(S'5'
g361
tg18
tp4211
a((S'5'
g1492
t(S'5'
g1552
tg48
tp4212
a((S'1'
g90
t(S'1'
g152
tg96
tp4213
a((S'2'
g293
t(S'2'
g1324
tg64
tp4214
a((S'3'
g248
t(S'3'
g1070
tg14
tp4215
a((S'6'
g186
t(S'6'
g1763
tg10
tp4216
a((S'7'
g579
t(S'7'
g931
tg88
tp4217
a(g1339
(S'2'
S'E0_11_R0_00_R1_11_T_R0'
tg44
tp4218
a((S'2'
g737
t(S'2'
g922
tg64
tp4219
a((S'3'
g381
t(S'3'
g1718
tg110
tp4220
a((g7
g363
t(g7
g1955
tg52
tp4221
a((S'1'
g614
t(S'1'
g1322
tg141
tp4222
a((S'2'
g649
t(S'2'
g1266
tg18
tp4223
a((S'4'
g1033
tp4224
(S'4'
S'E0_10_R0_10_R1_00_T_R0'
tg26
tp4225
a((S'7'
g66
t(S'7'
g2069
tg10
tp4226
a(g1855
(S'4'
S'E0_01_R0_01_R1_00_T_R0'
tg54
tp4227
a((S'6'
S'E0_11_R0_11_R1_10_T_E0'
p4228
tp4229
(S'6'
S'E0_11_R0_11_R1_10_T_R0'
tg44
tp4230
a((S'5'
g366
t(S'5'
g367
tg181
tp4231
a(g1436
(S'2'
S'E0_00_R0_00_R1_01_T_R0'
tg44
tp4232
a((S'2'
g127
t(S'2'
g1080
tg40
tp4233
a((S'9'
g293
t(S'9'
g1714
tg48
tp4234
a((S'9'
g582
t(S'9'
g1613
tg40
tp4235
a((S'8'
g737
t(S'8'
g1815
tg88
tp4236
a((S'5'
g127
t(S'5'
g881
tg14
tp4237
a((S'2'
g224
t(S'2'
g412
tg14
tp4238
a((S'6'
g697
t(S'6'
g2814
tg68
tp4239
a((S'2'
g501
t(S'2'
g553
tg40
tp4240
a(g314
(S'5'
S'E0_10_R0_11_R1_11_T_R0'
tg26
tp4241
a((S'9'
g245
t(S'9'
g1919
tg64
tp4242
a((S'2'
g336
t(S'2'
g824
tg52
tp4243
a((S'4'
g516
t(S'4'
g1621
tg141
tp4244
a((S'5'
g360
t(S'5'
g3152
tg181
tp4245
a(g1881
(S'7'
S'E0_00_R0_11_R1_00_T_R0'
tg54
tp4246
a((S'3'
g62
t(S'3'
g3017
tg48
tp4247
a((S'4'
g614
t(S'4'
g615
tg78
tp4248
a((S'1'
g265
t(S'1'
g417
tg18
tp4249
a((S'4'
g196
t(S'4'
g547
tg18
tp4250
a(g598
(S'3'
S'E0_10_R0_11_R1_10_T_R0'
tg5
tp4251
a((S'4'
g381
t(S'4'
g1083
tg88
tp4252
a((S'4'
g70
t(S'4'
g558
tg48
tp4253
a((S'7'
g28
t(S'7'
g1060
tg52
tp4254
a((S'4'
g207
t(S'4'
g208
tg110
tp4255
a(g985
(S'9'
S'E0_11_R0_01_R1_00_T_R0'
tg280
tp4256
a((S'6'
g661
t(S'6'
g859
tg88
tp4257
a(g333
(S'2'
S'E0_00_R0_01_R1_10_T_R0'
tg44
tp4258
a((S'4'
g50
t(S'4'
g51
tg52
tp4259
a((S'5'
g16
t(S'5'
g816
tg181
tp4260
a((S'6'
g70
t(S'6'
g558
tg48
tp4261
a(g3298
(S'4'
S'E0_10_R0_01_R1_01_T_R0'
tg26
tp4262
a((S'7'
g390
t(S'7'
g391
tg18
tp4263
a((S'3'
g50
t(S'3'
g2515
tg96
tp4264
a((S'9'
g360
t(S'9'
g3152
tg181
tp4265
a((S'9'
g290
t(S'9'
g671
tg141
tp4266
a((S'2'
g1054
t(S'2'
g1481
tg181
tp4267
a((S'4'
g555
t(S'4'
g1896
tg18
tp4268
a((S'2'
g213
t(S'2'
g1921
tg141
tp4269
a(g1198
(S'4'
S'E0_11_R0_00_R1_00_T_R0'
tg44
tp4270
a((S'2'
g661
t(S'2'
g859
tg88
tp4271
a((S'4'
g301
t(S'4'
g2189
tg88
tp4272
a((S'9'
g563
t(S'9'
g564
tg18
tp4273
a((S'1'
g501
t(S'1'
g553
tg40
tp4274
a((S'1'
g189
t(S'1'
g190
tg88
tp4275
a((g7
S'E0_01_R0_10_R1_01_T_E0'
p4276
tp4277
(g7
S'E0_01_R0_10_R1_01_T_R0'
tg44
tp4278
a((S'3'
g59
t(S'3'
g1385
tg40
tp4279
a(g4173
(S'4'
S'E0_00_R0_11_R1_10_T_R0'
tg54
tp4280
a((S'4'
g1074
t(S'4'
g1352
tg14
tp4281
a((S'2'
g423
t(S'2'
g658
tg14
tp4282
a((S'9'
S'E0_01_R0_01_R1_01_T_E0'
p4283
tp4284
(S'9'
S'E0_01_R0_01_R1_01_T_R0'
tg44
tp4285
a((S'2'
g680
t(S'2'
g1225
tg96
tp4286
a(g968
(S'2'
S'E0_10_R0_01_R1_11_T_R0'
tg44
tp4287
a((S'1'
g516
t(S'1'
g2073
tg96
tp4288
a(g3242
(S'4'
S'E0_11_R0_11_R1_01_T_R0'
tg26
tp4289
a((S'3'
g86
t(S'3'
g87
tg88
tp4290
a((S'7'
g307
t(S'7'
g308
tg178
tp4291
a((S'2'
g680
t(S'2'
g681
tg92
tp4292
a((S'7'
g745
t(S'7'
g1789
tg52
tp4293
a((S'2'
g28
t(S'2'
g1060
tg52
tp4294
a(g2520
(S'9'
S'E0_01_R0_01_R1_11_T_R0'
tg280
tp4295
a(g2443
(S'3'
S'E0_00_R0_10_R1_01_T_R0'
tg5
tp4296
a((S'9'
g207
t(S'9'
g208
tg110
tp4297
a((S'2'
g119
t(S'2'
g531
tg96
tp4298
a((S'5'
g73
t(S'5'
g1406
tg10
tp4299
a((S'4'
g102
t(S'4'
g2265
tg52
tp4300
a((S'2'
g928
t(S'2'
g929
tg88
tp4301
a(g2431
(S'4'
S'E0_10_R0_01_R1_10_T_R0'
tg26
tp4302
a((S'9'
g555
t(S'9'
g1808
tg181
tp4303
a((S'2'
g98
t(S'2'
g99
tg14
tp4304
a(g2505
(S'9'
S'E0_11_R0_10_R1_00_T_R0'
tg280
tp4305
a(g812
(S'1'
S'E0_10_R0_01_R1_11_T_R0'
tg399
tp4306
a((S'7'
g108
t(S'7'
g920
tg18
tp4307
a((S'2'
g50
t(S'2'
g879
tg141
tp4308
a((S'5'
g372
t(S'5'
g373
tg18
tp4309
a((S'8'
g284
t(S'8'
g1939
tg141
tp4310
a((S'2'
g582
t(S'2'
g730
tg30
tp4311
a((S'2'
g614
t(S'2'
g1274
tg96
tp4312
a((S'2'
g673
t(S'2'
g1341
tg96
tp4313
a((S'8'
g76
t(S'8'
g341
tg52
tp4314
a((S'4'
g310
t(S'4'
g2220
tg110
tp4315
a((S'4'
g1357
tp4316
(S'4'
S'E0_10_R0_00_R1_00_T_R0'
tg26
tp4317
a((S'4'
g287
t(S'4'
g288
tg181
tp4318
a((S'4'
g204
t(S'4'
g205
tg178
tp4319
a((S'5'
g73
t(S'5'
g251
tg178
tp4320
a(g2321
(S'7'
S'E0_00_R0_11_R1_01_T_R0'
tg44
tp4321
a((S'7'
g94
t(S'7'
g2629
tg30
tp4322
a(g577
(S'7'
S'E0_00_R0_11_R1_10_T_R0'
tg54
tp4323
a((S'4'
g1523
t(S'4'
g1830
tg96
tp4324
a((S'7'
g605
t(S'7'
g1328
tg18
tp4325
a((g7
g8
t(g7
g841
tg18
tp4326
a((S'7'
g290
t(S'7'
g1459
tg96
tp4327
a((S'7'
g745
t(S'7'
g1656
tg40
tp4328
a((S'2'
g372
t(S'2'
g1554
tg68
tp4329
a((S'9'
g384
t(S'9'
g1758
tg181
tp4330
a((S'4'
g697
t(S'4'
g2814
tg68
tp4331
a(g1485
(S'5'
S'E0_10_R0_00_R1_11_T_R0'
tg26
tp4332
a((g7
g245
t(g7
g2272
tg18
tp4333
a((S'4'
g80
t(S'4'
g593
tg96
tp4334
a((S'5'
g782
t(S'5'
g783
tg92
tp4335
a(g172
(S'1'
S'E0_10_R0_10_R1_11_T_R0'
tg399
tp4336
a((S'3'
g16
t(S'3'
g17
tg18
tp4337
a((S'9'
g127
t(S'9'
g1080
tg40
tp4338
a((S'3'
g80
t(S'3'
g81
tg40
tp4339
a(g4018
(S'4'
S'E0_10_R0_10_R1_01_T_R0'
tg44
tp4340
a((S'7'
g649
t(S'7'
g1266
tg18
tp4341
a((S'2'
g516
t(S'2'
g517
tg14
tp4342
a((S'8'
g307
t(S'8'
g3059
tg64
tp4343
a((S'4'
g387
t(S'4'
g2344
tg96
tp4344
a((S'2'
g384
t(S'2'
g2124
tg18
tp4345
a((S'2'
g119
t(S'2'
g120
tg52
tp4346
a((S'4'
g900
t(S'4'
g1650
tg22
tp4347
a((S'6'
g273
t(S'6'
g403
tg141
tp4348
a(g3383
(S'4'
S'E0_11_R0_00_R1_11_T_R0'
tg26
tp4349
a((S'2'
g46
t(S'2'
g47
tg48
tp4350
a((S'4'
g1074
t(S'4'
g2992
tg22
tp4351
a((S'9'
g73
t(S'9'
g74
tg64
tp4352
a((S'7'
g133
t(S'7'
g134
tg96
tp4353
a((S'3'
g614
t(S'3'
g615
tg78
tp4354
a((S'5'
g98
t(S'5'
g99
tg14
tp4355
a(g1593
(S'1'
S'E0_10_R0_11_R1_00_T_R0'
tg399
tp4356
a((S'4'
g98
t(S'4'
g1595
tg96
tp4357
a((S'2'
g216
t(S'2'
g1234
tg18
tp4358
a((S'9'
g876
t(S'9'
g877
tg48
tp4359
a((S'4'
g876
t(S'4'
g1704
tg88
tp4360
a((S'2'
g139
t(S'2'
g933
tg14
tp4361
a((S'7'
g680
t(S'7'
g681
tg92
tp4362
a((g7
g139
t(g7
g1447
tg96
tp4363
a((g7
g673
t(g7
g1496
tg78
tp4364
a(g3654
(S'4'
S'E0_11_R0_10_R1_01_T_R0'
tg26
tp4365
a(g995
(S'2'
S'E0_00_R0_01_R1_00_T_R0'
tg44
tp4366
a((S'8'
S'E0_00_R0_01_R1_11_T_E0'
p4367
tp4368
(S'8'
S'E0_00_R0_01_R1_11_T_R0'
tg44
tp4369
a((S'4'
g20
t(S'4'
g1029
tg141
tp4370
a((S'5'
g164
t(S'5'
g492
tg68
tp4371
a((S'7'
g329
t(S'7'
g814
tg68
tp4372
a(g803
(S'4'
S'E0_01_R0_00_R1_00_T_R0'
tg44
tp4373
a((S'9'
g582
t(S'9'
g730
tg30
tp4374
a(g2906
(S'4'
S'E0_10_R0_11_R1_11_T_R0'
tg26
tp4375
a((g7
S'E0_01_R0_10_R1_11_T_E0'
p4376
tp4377
(g7
S'E0_01_R0_10_R1_11_T_R0'
tg44
tp4378
a((S'2'
g310
t(S'2'
g1766
tg88
tp4379
a(g809
(S'4'
S'E0_11_R0_11_R1_11_T_R0'
tg26
tp4380
a((S'7'
g539
t(S'7'
g2214
tg22
tp4381
a((S'5'
g98
t(S'5'
g1299
tg40
tp4382
a((S'8'
g307
t(S'8'
g1257
tg10
tp4383
a((S'2'
g83
t(S'2'
g116
tg18
tp4384
a((S'7'
g248
t(S'7'
g1070
tg14
tp4385
a((S'2'
g293
t(S'2'
g1714
tg48
tp4386
a((S'4'
g221
t(S'4'
g222
tg14
tp4387
a((S'9'
g434
t(S'9'
g2414
tg18
tp4388
a((S'2'
g360
t(S'2'
g361
tg18
tp4389
a(g469
(S'1'
S'E0_10_R0_00_R1_01_T_R0'
tg399
tp4390
a((S'6'
g130
t(S'6'
g1125
tg96
tp4391
a((S'3'
g90
t(S'3'
g961
tg40
tp4392
a((S'1'
S'E0_10_R0_00_R1_10_T_E0'
p4393
tp4394
(S'1'
S'E0_10_R0_00_R1_10_T_R0'
tg44
tp4395
a((S'9'
g1213
t(S'9'
g1860
tg181
tp4396
a((S'6'
g563
t(S'6'
g686
tg64
tp4397
a((g7
g199
t(g7
g1050
tg96
tp4398
a(g4316
(S'4'
S'E0_00_R0_00_R1_00_T_R0'
tg44
tp4399
a(g2169
(S'2'
S'E0_11_R0_10_R1_00_T_R0'
tg44
tp4400
a((g7
g38
t(g7
g159
tg52
tp4401
a((S'3'
g366
t(S'3'
g743
tg18
tp4402
a((S'4'
g614
t(S'4'
g1274
tg96
tp4403
a((S'2'
g245
t(S'2'
g246
tg88
tp4404
a((S'2'
g284
t(S'2'
g1939
tg141
tp4405
a((S'5'
g161
t(S'5'
g2024
tg30
tp4406
a((S'3'
S'E0_00_R0_01_R1_11_T_E0'
p4407
tp4408
(S'3'
S'E0_00_R0_01_R1_11_T_R0'
tg44
tp4409
a(g4224
(S'4'
S'E0_00_R0_10_R1_00_T_R0'
tg44
tp4410
a((S'3'
S'E0_10_R0_01_R1_10_T_E0'
p4411
tp4412
(S'3'
S'E0_10_R0_01_R1_10_T_R0'
tg44
tp4413
a((S'8'
g745
t(S'8'
g2035
tg30
tp4414
a((S'4'
g360
t(S'4'
g3152
tg181
tp4415
a((S'2'
g296
t(S'2'
g1509
tg30
tp4416
a((S'6'
g1074
t(S'6'
g1352
tg14
tp4417
a((S'7'
g354
t(S'7'
g1293
tg64
tp4418
a((S'7'
g363
t(S'7'
g1416
tg141
tp4419
a((S'2'
g631
t(S'2'
g765
tg52
tp4420
a((S'5'
g782
t(S'5'
g1005
tg96
tp4421
a((S'4'
g28
t(S'4'
g561
tg40
tp4422
a((S'2'
g354
t(S'2'
g2350
tg18
tp4423
a((S'4'
g363
t(S'4'
g1955
tg52
tp4424
a((S'6'
g130
t(S'6'
g1387
tg141
tp4425
a((S'7'
g655
t(S'7'
g1558
tg52
tp4426
a((S'4'
g183
t(S'4'
g1065
tg40
tp4427
a(g3356
(S'4'
S'E0_10_R0_01_R1_00_T_R0'
tg26
tp4428
a(g2108
(S'4'
S'E0_01_R0_00_R1_11_T_R0'
tg44
tp4429
a(g3464
(S'8'
S'E0_00_R0_01_R1_00_T_R0'
tg169
tp4430
a(g1490
(S'4'
S'E0_10_R0_11_R1_11_T_R0'
tg44
tp4431
a((S'2'
g105
t(S'2'
g259
tg178
tp4432
a((S'5'
g614
t(S'5'
g1322
tg141
tp4433
a((S'2'
g139
t(S'2'
g140
tg141
tp4434
a((S'1'
g59
t(S'1'
g1172
tg92
tp4435
a((S'3'
g737
t(S'3'
g1815
tg88
tp4436
a((S'1'
g947
t(S'1'
g1908
tg52
tp4437
a((S'9'
g876
t(S'9'
g1704
tg88
tp4438
a((S'6'
g1054
t(S'6'
g1055
tg68
tp4439
a((S'9'
g563
t(S'9'
g2943
tg10
tp4440
a((S'9'
g8
t(S'9'
g1841
tg178
tp4441
a((S'8'
g287
t(S'8'
g2147
tg18
tp4442
a((S'9'
g900
t(S'9'
g1650
tg22
tp4443
a(g2011
(S'4'
S'E0_10_R0_10_R1_10_T_R0'
tg26
tp4444
a(g1286
(S'4'
S'E0_10_R0_01_R1_11_T_R0'
tg26
tp4445
a((S'4'
g216
t(S'4'
g1234
tg18
tp4446
a(g2643
(S'7'
S'E0_01_R0_11_R1_11_T_R0'
tg54
tp4447
atRp4448
.