c__builtin__
set
p1
((lp2
((S'2'
S'E0_10_R0_00_R1_01_T_E0'
p3
tp4
(S'2'
S'E0_10_R0_00_R1_01_T_E0'
p5
tS'oo0'
p6
tp7
a((S'2'
S'E0_00_R0_01_R1_01_T_E0'
p8
tp9
(S'1'
S'E0_10_R0_01_R1_01_T_E0'
p10
tS'ee1'
p11
tp12
a((S'1'
S'E0_11_R0_01_R1_11_T_E0'
p13
tp14
(S'1'
S'E0_01_R0_01_R1_11_T_E0'
p15
tS'ww1'
p16
tp17
a((S'2'
S'E0_10_R0_01_R1_00_T_E0'
p18
tp19
(S'2'
S'E0_00_R0_01_R1_00_T_E0'
p20
tg16
tp21
a((S'2'
S'E0_00_R0_11_R1_10_T_E0'
p22
tp23
(S'1'
S'E0_10_R0_11_R1_10_T_E0'
p24
tg11
tp25
a((S'1'
S'E0_10_R0_10_R1_11_T_E0'
p26
tp27
(S'1'
S'E0_10_R0_10_R1_11_T_E0'
p28
tg6
tp29
a(g27
(S'1'
S'E0_00_R0_10_R1_11_T_E0'
p30
tg16
tp31
a((S'2'
S'E0_10_R0_10_R1_00_T_E0'
p32
tp33
(S'2'
S'E0_00_R0_10_R1_00_T_E0'
p34
tg16
tp35
a((S'2'
S'E0_00_R0_11_R1_00_T_E0'
p36
tp37
(S'1'
S'E0_10_R0_11_R1_00_T_E0'
p38
tg11
tp39
a((S'1'
S'E0_10_R0_01_R1_10_T_E0'
p40
tp41
(S'1'
S'E0_10_R0_01_R1_10_T_E0'
p42
tg6
tp43
a((S'2'
S'E0_11_R0_11_R1_11_T_E0'
p44
tp45
(S'2'
S'E0_11_R0_11_R1_11_T_E0'
p46
tg6
tp47
a((S'2'
S'E0_11_R0_10_R1_01_T_E0'
p48
tp49
(S'2'
S'E0_11_R0_10_R1_01_T_E0'
p50
tg6
tp51
a((S'1'
S'E0_10_R0_11_R1_01_T_E0'
p52
tp53
(S'1'
S'E0_10_R0_11_R1_01_T_E0'
p54
tg6
tp55
a((S'1'
S'E0_00_R0_01_R1_01_T_E0'
p56
tp57
(S'1'
S'E0_00_R0_01_R1_01_T_E0'
p58
tg6
tp59
a((S'1'
S'E0_11_R0_11_R1_01_T_E0'
p60
tp61
(S'1'
S'E0_01_R0_11_R1_01_T_E0'
p62
tg16
tp63
a((S'1'
S'E0_10_R0_10_R1_00_T_E0'
p64
tp65
(S'1'
g34
tg16
tp66
a(g37
(S'2'
S'E0_00_R0_11_R1_00_T_E0'
p67
tg6
tp68
a((S'2'
S'E0_10_R0_10_R1_10_T_E0'
p69
tp70
(S'2'
S'E0_10_R0_10_R1_10_T_E0'
p71
tg6
tp72
a((S'1'
S'E0_10_R0_11_R1_11_T_E0'
p73
tp74
(S'1'
S'E0_10_R0_11_R1_11_T_E0'
p75
tg6
tp76
a((S'2'
S'E0_00_R0_10_R1_11_T_E0'
p77
tp78
(S'1'
g26
tg11
tp79
a((S'1'
S'E0_00_R0_00_R1_00_T_E0'
p80
tp81
(S'1'
S'E0_00_R0_00_R1_00_T_E0'
p82
tg6
tp83
a((S'1'
S'E0_11_R0_00_R1_01_T_E0'
p84
tp85
(S'1'
S'E0_01_R0_00_R1_01_T_E0'
p86
tg16
tp87
a((S'2'
S'E0_11_R0_01_R1_10_T_E0'
p88
tp89
(S'2'
S'E0_11_R0_01_R1_10_T_E0'
p90
tg6
tp91
a((S'2'
S'E0_01_R0_11_R1_10_T_E0'
p92
tp93
(S'2'
S'E0_01_R0_11_R1_10_T_E0'
p94
tg6
tp95
a((S'2'
S'E0_10_R0_10_R1_01_T_E0'
p96
tp97
(S'2'
S'E0_00_R0_10_R1_01_T_E0'
p98
tg16
tp99
a((S'1'
g20
tp100
(S'1'
S'E0_00_R0_01_R1_00_T_E0'
p101
tg6
tp102
a((S'2'
S'E0_00_R0_10_R1_01_T_E0'
p103
tp104
(S'1'
S'E0_10_R0_10_R1_01_T_E0'
p105
tg11
tp106
a((S'2'
S'E0_00_R0_00_R1_01_T_E0'
p107
tp108
(S'2'
S'E0_00_R0_00_R1_01_T_E0'
p109
tg6
tp110
a((S'1'
g62
tp111
(S'1'
S'E0_01_R0_11_R1_01_T_E0'
p112
tg6
tp113
a((S'2'
S'E0_00_R0_01_R1_11_T_E0'
p114
tp115
(S'1'
S'E0_10_R0_01_R1_11_T_E0'
p116
tg11
tp117
a((S'2'
S'E0_10_R0_11_R1_11_T_E0'
p118
tp119
(S'2'
g75
tg6
tp120
a((S'1'
S'E0_01_R0_01_R1_00_T_E0'
p121
tp122
(S'1'
S'E0_01_R0_01_R1_00_T_E0'
p123
tg6
tp124
a(g61
(S'1'
S'E0_11_R0_11_R1_01_T_E0'
p125
tg6
tp126
a((S'2'
S'E0_11_R0_11_R1_10_T_E0'
p127
tp128
(S'2'
S'E0_11_R0_11_R1_10_T_E0'
p129
tg6
tp130
a((S'2'
S'E0_00_R0_01_R1_00_T_E0'
p131
tp132
(S'2'
g101
tg6
tp133
a((S'2'
S'E0_01_R0_00_R1_01_T_E0'
p134
tp135
(S'1'
g84
tg11
tp136
a((S'1'
S'E0_10_R0_00_R1_11_T_E0'
p137
tp138
(S'1'
S'E0_00_R0_00_R1_11_T_E0'
p139
tg16
tp140
a(g4
(S'2'
S'E0_00_R0_00_R1_01_T_E0'
p141
tg16
tp142
a((S'2'
S'E0_01_R0_01_R1_01_T_E0'
p143
tp144
(S'1'
S'E0_11_R0_01_R1_01_T_E0'
p145
tg11
tp146
a(g70
(S'2'
S'E0_00_R0_10_R1_10_T_E0'
p147
tg16
tp148
a((S'2'
S'E0_01_R0_10_R1_00_T_E0'
p149
tp150
(S'1'
S'E0_11_R0_10_R1_00_T_E0'
p151
tg11
tp152
a(g85
(S'1'
S'E0_11_R0_00_R1_01_T_E0'
p153
tg6
tp154
a((S'1'
S'E0_11_R0_10_R1_10_T_E0'
p155
tp156
(S'1'
S'E0_11_R0_10_R1_10_T_E0'
p157
tg6
tp158
a((S'2'
S'E0_01_R0_00_R1_00_T_E0'
p159
tp160
(S'2'
S'E0_01_R0_00_R1_00_T_E0'
p161
tg6
tp162
a((S'2'
S'E0_00_R0_11_R1_01_T_E0'
p163
tp164
(S'1'
g52
tg11
tp165
a(g49
(S'2'
S'E0_01_R0_10_R1_01_T_E0'
p166
tg16
tp167
a((S'1'
S'E0_11_R0_00_R1_10_T_E0'
p168
tp169
(S'1'
S'E0_01_R0_00_R1_10_T_E0'
p170
tg16
tp171
a((S'1'
S'E0_11_R0_11_R1_00_T_E0'
p172
tp173
(S'1'
S'E0_01_R0_11_R1_00_T_E0'
p174
tg16
tp175
a((S'2'
S'E0_01_R0_00_R1_10_T_E0'
p176
tp177
(S'1'
g168
tg11
tp178
a((S'1'
S'E0_10_R0_00_R1_10_T_E0'
p179
tp180
(S'1'
S'E0_10_R0_00_R1_10_T_E0'
p181
tg6
tp182
a(g33
(S'2'
S'E0_10_R0_10_R1_00_T_E0'
p183
tg6
tp184
a((S'2'
S'E0_00_R0_00_R1_00_T_E0'
p185
tp186
(S'1'
S'E0_10_R0_00_R1_00_T_E0'
p187
tg11
tp188
a(g144
(S'2'
S'E0_01_R0_01_R1_01_T_E0'
p189
tg6
tp190
a((S'2'
S'E0_10_R0_11_R1_00_T_E0'
p191
tp192
(S'2'
S'E0_10_R0_11_R1_00_T_E0'
p193
tg6
tp194
a(g128
(S'2'
S'E0_01_R0_11_R1_10_T_E0'
p195
tg16
tp196
a((S'1'
S'E0_11_R0_10_R1_11_T_E0'
p197
tp198
(S'1'
S'E0_01_R0_10_R1_11_T_E0'
p199
tg16
tp200
a(g198
(S'1'
S'E0_11_R0_10_R1_11_T_E0'
p201
tg6
tp202
a((S'1'
S'E0_10_R0_10_R1_10_T_E0'
p203
tp204
(S'1'
g147
tg16
tp205
a(g180
(S'1'
S'E0_00_R0_00_R1_10_T_E0'
p206
tg16
tp207
a(g23
(S'2'
S'E0_00_R0_11_R1_10_T_E0'
p208
tg6
tp209
a((S'1'
g187
tp210
(S'1'
g80
tg16
tp211
a(g45
(S'2'
S'E0_01_R0_11_R1_11_T_E0'
p212
tg16
tp213
a((S'2'
S'E0_11_R0_10_R1_10_T_E0'
p214
tp215
(S'2'
g157
tg6
tp216
a((S'2'
S'E0_11_R0_00_R1_11_T_E0'
p217
tp218
(S'2'
S'E0_11_R0_00_R1_11_T_E0'
p219
tg6
tp220
a((S'2'
S'E0_01_R0_00_R1_11_T_E0'
p221
tp222
(S'2'
S'E0_01_R0_00_R1_11_T_E0'
p223
tg6
tp224
a(g97
(S'2'
S'E0_10_R0_10_R1_01_T_E0'
p225
tg6
tp226
a((S'2'
S'E0_00_R0_10_R1_10_T_E0'
p227
tp228
(S'2'
S'E0_00_R0_10_R1_10_T_E0'
p229
tg6
tp230
a((S'1'
g174
tp231
(S'1'
S'E0_01_R0_11_R1_00_T_E0'
p232
tg6
tp233
a((S'1'
g105
tp234
(S'1'
g98
tg16
tp235
a(g160
(S'1'
S'E0_11_R0_00_R1_00_T_E0'
p236
tg11
tp237
a((S'1'
g10
tp238
(S'1'
g56
tg16
tp239
a(g186
(S'2'
g82
tg6
tp240
a((S'1'
g38
tp241
(S'1'
S'E0_00_R0_11_R1_00_T_E0'
p242
tg16
tp243
a((S'1'
g195
tp244
(S'1'
g94
tg6
tp245
a((S'2'
S'E0_10_R0_01_R1_11_T_E0'
p246
tp247
(S'2'
S'E0_00_R0_01_R1_11_T_E0'
p248
tg16
tp249
a((S'2'
S'E0_10_R0_00_R1_00_T_E0'
p250
tp251
(S'2'
S'E0_10_R0_00_R1_00_T_E0'
p252
tg6
tp253
a(g215
(S'2'
S'E0_01_R0_10_R1_10_T_E0'
p254
tg16
tp255
a((S'2'
S'E0_10_R0_00_R1_10_T_E0'
p256
tp257
(S'2'
g206
tg16
tp258
a((S'2'
S'E0_10_R0_11_R1_10_T_E0'
p259
tp260
(S'2'
S'E0_10_R0_11_R1_10_T_E0'
p261
tg6
tp262
a((S'1'
S'E0_11_R0_01_R1_10_T_E0'
p263
tp264
(S'1'
S'E0_01_R0_01_R1_10_T_E0'
p265
tg16
tp266
a((S'1'
g24
tp267
(S'1'
S'E0_00_R0_11_R1_10_T_E0'
p268
tg16
tp269
a((S'1'
g268
tp270
(S'1'
g208
tg6
tp271
a((S'2'
S'E0_01_R0_01_R1_00_T_E0'
p272
tp273
(S'2'
g123
tg6
tp274
a(g173
(S'1'
S'E0_11_R0_11_R1_00_T_E0'
p275
tg6
tp276
a((S'1'
g145
tp277
(S'1'
S'E0_11_R0_01_R1_01_T_E0'
p278
tg6
tp279
a(g251
(S'2'
g80
tg16
tp280
a((S'2'
S'E0_11_R0_01_R1_01_T_E0'
p281
tp282
(S'2'
g278
tg6
tp283
a((S'1'
S'E0_11_R0_00_R1_11_T_E0'
p284
tp285
(S'1'
g219
tg6
tp286
a((S'2'
S'E0_01_R0_10_R1_01_T_E0'
p287
tp288
(S'2'
S'E0_01_R0_10_R1_01_T_E0'
p289
tg6
tp290
a(g267
(S'1'
g261
tg6
tp291
a((S'2'
S'E0_11_R0_10_R1_00_T_E0'
p292
tp293
(S'2'
S'E0_01_R0_10_R1_00_T_E0'
p294
tg16
tp295
a((S'2'
S'E0_01_R0_10_R1_11_T_E0'
p296
tp297
(S'1'
g197
tg11
tp298
a((S'2'
S'E0_10_R0_10_R1_11_T_E0'
p299
tp300
(S'2'
g30
tg16
tp301
a(g53
(S'1'
S'E0_00_R0_11_R1_01_T_E0'
p302
tg16
tp303
a((S'2'
S'E0_01_R0_11_R1_01_T_E0'
p304
tp305
(S'1'
g60
tg11
tp306
a((S'2'
S'E0_10_R0_11_R1_01_T_E0'
p307
tp308
(S'2'
g302
tg16
tp309
a(g135
(S'2'
S'E0_01_R0_00_R1_01_T_E0'
p310
tg6
tp311
a((S'2'
S'E0_11_R0_01_R1_11_T_E0'
p312
tp313
(S'2'
S'E0_11_R0_01_R1_11_T_E0'
p314
tg6
tp315
a((S'2'
S'E0_11_R0_01_R1_00_T_E0'
p316
tp317
(S'2'
S'E0_11_R0_01_R1_00_T_E0'
p318
tg6
tp319
a((S'2'
S'E0_01_R0_11_R1_00_T_E0'
p320
tp321
(S'1'
g172
tg11
tp322
a((S'2'
S'E0_11_R0_00_R1_10_T_E0'
p323
tp324
(S'2'
S'E0_11_R0_00_R1_10_T_E0'
p325
tg6
tp326
a(g119
(S'2'
S'E0_00_R0_11_R1_11_T_E0'
p327
tg16
tp328
a((S'1'
g302
tp329
(S'1'
S'E0_00_R0_11_R1_01_T_E0'
p330
tg6
tp331
a(g273
(S'1'
S'E0_11_R0_01_R1_00_T_E0'
p332
tg11
tp333
a((S'1'
g151
tp334
(S'1'
g294
tg16
tp335
a(g264
(S'1'
g90
tg6
tp336
a(g108
(S'1'
S'E0_10_R0_00_R1_01_T_E0'
p337
tg11
tp338
a((S'2'
S'E0_10_R0_00_R1_11_T_E0'
p339
tp340
(S'2'
g139
tg16
tp341
a((S'1'
g30
tp342
(S'1'
S'E0_00_R0_10_R1_11_T_E0'
p343
tg6
tp344
a(g285
(S'1'
S'E0_01_R0_00_R1_11_T_E0'
p345
tg16
tp346
a((S'1'
g294
tp347
(S'1'
S'E0_01_R0_10_R1_00_T_E0'
p348
tg6
tp349
a(g293
(S'2'
S'E0_11_R0_10_R1_00_T_E0'
p350
tg6
tp351
a(g308
(S'2'
g54
tg6
tp352
a((S'1'
g337
tp353
(S'1'
g5
tg6
tp354
a((S'1'
g206
tp355
(S'1'
S'E0_00_R0_00_R1_10_T_E0'
p356
tg6
tp357
a((S'2'
S'E0_00_R0_11_R1_11_T_E0'
p358
tp359
(S'1'
g73
tg11
tp360
a((S'1'
g242
tp361
(S'1'
g67
tg6
tp362
a((S'1'
g147
tp363
(S'1'
g229
tg6
tp364
a((S'2'
S'E0_10_R0_01_R1_01_T_E0'
p365
tp366
(S'2'
g56
tg16
tp367
a((S'1'
S'E0_11_R0_11_R1_11_T_E0'
p368
tp369
(S'1'
g46
tg6
tp370
a((S'2'
S'E0_11_R0_10_R1_11_T_E0'
p371
tp372
(S'2'
g201
tg6
tp373
a((S'1'
g199
tp374
(S'1'
S'E0_01_R0_10_R1_11_T_E0'
p375
tg6
tp376
a((S'2'
S'E0_00_R0_00_R1_11_T_E0'
p377
tp378
(S'1'
g137
tg11
tp379
a(g89
(S'2'
g265
tg16
tp380
a(g9
(S'2'
g58
tg6
tp381
a(g369
(S'1'
g212
tg16
tp382
a(g313
(S'2'
g15
tg16
tp383
a(g228
(S'1'
g203
tg11
tp384
a((S'1'
g86
tp385
(S'1'
g310
tg6
tp386
a(g132
(S'1'
S'E0_10_R0_01_R1_00_T_E0'
p387
tg11
tp388
a((S'1'
S'E0_11_R0_10_R1_01_T_E0'
p389
tp390
(S'1'
g166
tg16
tp391
a((S'1'
S'E0_01_R0_01_R1_01_T_E0'
p392
tp393
(S'1'
g189
tg6
tp394
a((S'1'
g332
tp395
(S'1'
g121
tg16
tp396
a((S'1'
g116
tp397
(S'1'
S'E0_10_R0_01_R1_11_T_E0'
p398
tg6
tp399
a((S'2'
S'E0_11_R0_11_R1_00_T_E0'
p400
tp401
(S'2'
g174
tg16
tp402
a((S'2'
S'E0_01_R0_01_R1_11_T_E0'
p403
tp404
(S'2'
S'E0_01_R0_01_R1_11_T_E0'
p405
tg6
tp406
a(g334
(S'1'
g350
tg6
tp407
a(g359
(S'2'
S'E0_00_R0_11_R1_11_T_E0'
p408
tg6
tp409
a(g390
(S'1'
g50
tg6
tp410
a(g164
(S'2'
g330
tg6
tp411
a((S'2'
S'E0_00_R0_10_R1_00_T_E0'
p412
tp413
(S'1'
g64
tg11
tp414
a(g324
(S'2'
g170
tg16
tp415
a(g317
(S'2'
g121
tg16
tp416
a(g300
(S'2'
g28
tg6
tp417
a((S'1'
g236
tp418
(S'1'
S'E0_01_R0_00_R1_00_T_E0'
p419
tg16
tp420
a((S'1'
g265
tp421
(S'1'
S'E0_01_R0_01_R1_10_T_E0'
p422
tg6
tp423
a(g340
(S'2'
S'E0_10_R0_00_R1_11_T_E0'
p424
tg6
tp425
a((S'2'
S'E0_01_R0_01_R1_10_T_E0'
p426
tp427
(S'2'
g422
tg6
tp428
a(g395
(S'1'
g318
tg6
tp429
a((S'1'
g419
tp430
(S'1'
g161
tg6
tp431
a(g65
(S'1'
g183
tg6
tp432
a((S'1'
g15
tp433
(S'1'
g405
tg6
tp434
a((S'2'
S'E0_10_R0_01_R1_10_T_E0'
p435
tp436
(S'2'
S'E0_00_R0_01_R1_10_T_E0'
p437
tg16
tp438
a(g150
(S'2'
g348
tg6
tp439
a((S'1'
g34
tp440
(S'1'
S'E0_00_R0_10_R1_00_T_E0'
p441
tg6
tp442
a(g321
(S'2'
g232
tg6
tp443
a(g353
(S'1'
g141
tg16
tp444
a((S'1'
g254
tp445
(S'1'
S'E0_01_R0_10_R1_10_T_E0'
p446
tg6
tp447
a(g218
(S'2'
g345
tg16
tp448
a((S'1'
g345
tp449
(S'1'
g223
tg6
tp450
a((S'1'
g141
tp451
(S'1'
g109
tg6
tp452
a(g288
(S'1'
g389
tg11
tp453
a((S'1'
g387
tp454
(S'1'
S'E0_10_R0_01_R1_00_T_E0'
p455
tg6
tp456
a(g413
(S'2'
g441
tg6
tp457
a(g115
(S'2'
S'E0_00_R0_01_R1_11_T_E0'
p458
tg6
tp459
a(g418
(S'1'
S'E0_11_R0_00_R1_00_T_E0'
p460
tg6
tp461
a((S'2'
S'E0_11_R0_00_R1_00_T_E0'
p462
tp463
(S'2'
g460
tg6
tp464
a(g238
(S'1'
S'E0_10_R0_01_R1_01_T_E0'
p465
tg6
tp466
a((S'1'
g166
tp467
(S'1'
g289
tg6
tp468
a(g74
(S'1'
g327
tg16
tp469
a(g260
(S'2'
g268
tg16
tp470
a(g204
(S'1'
g71
tg6
tp471
a(g277
(S'1'
g392
tg16
tp472
a((S'2'
S'E0_11_R0_11_R1_01_T_E0'
p473
tp474
(S'2'
g62
tg16
tp475
a(g93
(S'1'
S'E0_11_R0_11_R1_10_T_E0'
p476
tg11
tp477
a((S'2'
S'E0_00_R0_00_R1_10_T_E0'
p478
tp479
(S'1'
g179
tg11
tp480
a(g177
(S'2'
S'E0_01_R0_00_R1_10_T_E0'
p481
tg6
tp482
a((S'2'
S'E0_01_R0_10_R1_10_T_E0'
p483
tp484
(S'1'
g155
tg11
tp485
a((S'1'
g212
tp486
(S'1'
S'E0_01_R0_11_R1_11_T_E0'
p487
tg6
tp488
a(g138
(S'1'
g424
tg6
tp489
a(g401
(S'2'
g275
tg6
tp490
a((S'1'
g98
tp491
(S'1'
S'E0_00_R0_10_R1_01_T_E0'
p492
tg6
tp493
a((S'2'
S'E0_01_R0_11_R1_11_T_E0'
p494
tp495
(S'2'
g487
tg6
tp496
a(g156
(S'1'
g254
tg16
tp497
a((S'1'
g476
tp498
(S'1'
g195
tg16
tp499
a(g427
(S'1'
g263
tg11
tp500
a(g297
(S'2'
g375
tg6
tp501
a(g463
(S'2'
g419
tg16
tp502
a(g366
(S'2'
g465
tg6
tp503
a(g305
(S'2'
g112
tg6
tp504
a(g454
(S'1'
g20
tg16
tp505
a(g192
(S'2'
g242
tg16
tp506
a(g397
(S'1'
g248
tg16
tp507
a(g14
(S'1'
g314
tg6
tp508
a(g498
(S'1'
g129
tg6
tp509
a(g41
(S'1'
g437
tg16
tp510
a(g404
(S'1'
g13
tg11
tp511
a(g378
(S'2'
S'E0_00_R0_00_R1_11_T_E0'
p512
tg6
tp513
a(g19
(S'2'
g455
tg6
tp514
a((S'1'
g170
tp515
(S'1'
g481
tg6
tp516
a((S'1'
g139
tp517
(S'1'
g512
tg6
tp518
a((S'1'
g437
tp519
(S'1'
S'E0_00_R0_01_R1_10_T_E0'
p520
tg6
tp521
a(g257
(S'2'
g181
tg6
tp522
a((S'2'
S'E0_00_R0_01_R1_10_T_E0'
p523
tp524
(S'1'
g40
tg11
tp525
a((S'2'
S'E0_11_R0_00_R1_01_T_E0'
p526
tp527
(S'2'
g86
tg16
tp528
a(g436
(S'2'
g42
tg6
tp529
a(g169
(S'1'
g325
tg6
tp530
a((S'1'
g248
tp531
(S'1'
g458
tg6
tp532
a(g479
(S'2'
g356
tg6
tp533
a(g78
(S'2'
g343
tg6
tp534
a(g484
(S'2'
g446
tg6
tp535
a(g282
(S'2'
g392
tg16
tp536
a(g474
(S'2'
g125
tg6
tp537
a(g495
(S'1'
g368
tg11
tp538
a(g241
(S'1'
g193
tg6
tp539
a(g247
(S'2'
g398
tg6
tp540
a(g234
(S'1'
g225
tg6
tp541
a((S'1'
g327
tp542
(S'1'
g408
tg6
tp543
a(g222
(S'1'
g284
tg11
tp544
a(g104
(S'2'
g492
tg6
tp545
a(g527
(S'2'
g153
tg6
tp546
a(g524
(S'2'
g520
tg6
tp547
a(g210
(S'1'
g252
tg6
tp548
a(g372
(S'2'
g199
tg16
tp549
atRp550
.