c__builtin__
set
p1
((lp2
((S'1'
S'E0_00_R0_01_R1_01_T_E0'
p3
tp4
(S'3'
S'E0_10_R0_01_R1_01_T_E0'
p5
tS'ee1'
p6
tp7
a((S'2'
S'E0_00_R0_00_R1_10_T_E0'
p8
tp9
(S'4'
S'E0_10_R0_00_R1_10_T_E0'
p10
tg6
tp11
a((S'1'
S'E0_01_R0_10_R1_11_T_E0'
p12
tp13
(S'1'
S'E0_01_R0_10_R1_11_T_E0'
p14
tS'oo0'
p15
tp16
a((S'1'
S'E0_10_R0_01_R1_00_T_E0'
p17
tp18
(S'2'
S'E0_00_R0_01_R1_00_T_E0'
p19
tS'ww1'
p20
tp21
a((S'1'
S'E0_10_R0_11_R1_00_T_E0'
p22
tp23
(S'2'
S'E0_00_R0_11_R1_00_T_E0'
p24
tg20
tp25
a((S'2'
S'E0_00_R0_11_R1_11_T_E0'
p26
tp27
(S'4'
S'E0_10_R0_11_R1_11_T_E0'
p28
tg6
tp29
a((S'2'
S'E0_01_R0_10_R1_00_T_E0'
p30
tp31
(S'4'
S'E0_11_R0_10_R1_00_T_E0'
p32
tg6
tp33
a((S'1'
S'E0_11_R0_10_R1_10_T_E0'
p34
tp35
(S'2'
S'E0_01_R0_10_R1_10_T_E0'
p36
tg20
tp37
a((S'1'
S'E0_10_R0_10_R1_11_T_E0'
p38
tp39
(S'1'
S'E0_10_R0_10_R1_11_T_E0'
p40
tg15
tp41
a((S'1'
S'E0_11_R0_10_R1_00_T_E0'
p42
tp43
(S'2'
g30
tg20
tp44
a((S'1'
S'E0_10_R0_00_R1_00_T_E0'
p45
tp46
(S'2'
S'E0_00_R0_00_R1_00_T_E0'
p47
tg20
tp48
a((S'1'
S'E0_10_R0_01_R1_10_T_E0'
p49
tp50
(S'1'
S'E0_10_R0_01_R1_10_T_E0'
p51
tg15
tp52
a((S'2'
S'E0_01_R0_01_R1_00_T_E0'
p53
tp54
(S'2'
S'E0_01_R0_01_R1_00_T_E0'
p55
tg15
tp56
a(g4
(S'1'
S'E0_00_R0_01_R1_01_T_E0'
p57
tg15
tp58
a((S'1'
S'E0_10_R0_00_R1_11_T_E0'
p59
tp60
(S'2'
S'E0_00_R0_00_R1_11_T_E0'
p61
tg20
tp62
a((S'1'
S'E0_00_R0_11_R1_00_T_E0'
p63
tp64
(S'3'
S'E0_10_R0_11_R1_00_T_E0'
p65
tg6
tp66
a((S'1'
S'E0_00_R0_01_R1_11_T_E0'
p67
tp68
(S'3'
S'E0_10_R0_01_R1_11_T_E0'
p69
tg6
tp70
a((S'2'
g24
tp71
(S'2'
S'E0_00_R0_11_R1_00_T_E0'
p72
tg15
tp73
a((S'1'
S'E0_10_R0_00_R1_10_T_E0'
p74
tp75
(S'1'
S'E0_10_R0_00_R1_10_T_E0'
p76
tg15
tp77
a((S'2'
g61
tp78
(S'4'
S'E0_10_R0_00_R1_11_T_E0'
p79
tg6
tp80
a((S'1'
S'E0_10_R0_10_R1_01_T_E0'
p81
tp82
(S'2'
S'E0_00_R0_10_R1_01_T_E0'
p83
tg20
tp84
a((S'2'
S'E0_00_R0_00_R1_01_T_E0'
p85
tp86
(S'4'
S'E0_10_R0_00_R1_01_T_E0'
p87
tg6
tp88
a((S'1'
S'E0_01_R0_11_R1_00_T_E0'
p89
tp90
(S'1'
S'E0_01_R0_11_R1_00_T_E0'
p91
tg15
tp92
a((S'1'
S'E0_01_R0_00_R1_11_T_E0'
p93
tp94
(S'3'
S'E0_11_R0_00_R1_11_T_E0'
p95
tg6
tp96
a((S'1'
S'E0_11_R0_01_R1_00_T_E0'
p97
tp98
(S'2'
g53
tg20
tp99
a((S'2'
S'E0_01_R0_01_R1_01_T_E0'
p100
tp101
(S'2'
S'E0_01_R0_01_R1_01_T_E0'
p102
tg15
tp103
a((S'1'
S'E0_10_R0_11_R1_11_T_E0'
p104
tp105
(S'2'
g26
tg20
tp106
a((S'2'
S'E0_00_R0_01_R1_11_T_E0'
p107
tp108
(S'4'
g69
tg6
tp109
a((S'1'
S'E0_11_R0_01_R1_11_T_E0'
p110
tp111
(S'1'
S'E0_11_R0_01_R1_11_T_E0'
p112
tg15
tp113
a((S'2'
S'E0_01_R0_11_R1_10_T_E0'
p114
tp115
(S'2'
S'E0_01_R0_11_R1_10_T_E0'
p116
tg15
tp117
a(g111
(S'2'
S'E0_01_R0_01_R1_11_T_E0'
p118
tg20
tp119
a(g86
(S'2'
S'E0_00_R0_00_R1_01_T_E0'
p120
tg15
tp121
a((S'1'
S'E0_10_R0_01_R1_01_T_E0'
p122
tp123
(S'1'
S'E0_10_R0_01_R1_01_T_E0'
p124
tg15
tp125
a((S'1'
S'E0_11_R0_01_R1_10_T_E0'
p126
tp127
(S'2'
S'E0_01_R0_01_R1_10_T_E0'
p128
tg20
tp129
a((S'2'
S'E0_00_R0_01_R1_01_T_E0'
p130
tp131
(S'4'
g5
tg6
tp132
a((S'1'
S'E0_01_R0_01_R1_00_T_E0'
p133
tp134
(S'1'
g55
tg15
tp135
a((S'1'
S'E0_00_R0_00_R1_01_T_E0'
p136
tp137
(S'1'
g120
tg15
tp138
a((S'1'
S'E0_11_R0_10_R1_01_T_E0'
p139
tp140
(S'2'
S'E0_01_R0_10_R1_01_T_E0'
p141
tg20
tp142
a((S'2'
g19
tp143
(S'2'
S'E0_00_R0_01_R1_00_T_E0'
p144
tg15
tp145
a((S'1'
S'E0_10_R0_10_R1_00_T_E0'
p146
tp147
(S'1'
S'E0_10_R0_10_R1_00_T_E0'
p148
tg15
tp149
a((S'1'
S'E0_11_R0_00_R1_10_T_E0'
p150
tp151
(S'2'
S'E0_01_R0_00_R1_10_T_E0'
p152
tg20
tp153
a((S'2'
g83
tp154
(S'4'
S'E0_10_R0_10_R1_01_T_E0'
p155
tg6
tp156
a(g134
(S'3'
S'E0_11_R0_01_R1_00_T_E0'
p157
tg6
tp158
a((S'1'
S'E0_11_R0_00_R1_01_T_E0'
p159
tp160
(S'1'
S'E0_11_R0_00_R1_01_T_E0'
p161
tg15
tp162
a(g35
(S'1'
S'E0_11_R0_10_R1_10_T_E0'
p163
tg15
tp164
a((S'2'
S'E0_01_R0_00_R1_00_T_E0'
p165
tp166
(S'2'
S'E0_01_R0_00_R1_00_T_E0'
p167
tg15
tp168
a((S'1'
S'E0_01_R0_01_R1_11_T_E0'
p169
tp170
(S'3'
S'E0_11_R0_01_R1_11_T_E0'
p171
tg6
tp172
a((S'2'
g128
tp173
(S'4'
S'E0_11_R0_01_R1_10_T_E0'
p174
tg6
tp175
a((S'1'
S'E0_00_R0_11_R1_10_T_E0'
p176
tp177
(S'3'
S'E0_10_R0_11_R1_10_T_E0'
p178
tg6
tp179
a(g39
(S'2'
S'E0_00_R0_10_R1_11_T_E0'
p180
tg20
tp181
a((S'1'
S'E0_00_R0_00_R1_11_T_E0'
p182
tp183
(S'3'
g79
tg6
tp184
a(g115
(S'4'
S'E0_11_R0_11_R1_10_T_E0'
p185
tg6
tp186
a((S'1'
S'E0_11_R0_10_R1_11_T_E0'
p187
tp188
(S'1'
S'E0_11_R0_10_R1_11_T_E0'
p189
tg15
tp190
a((S'2'
S'E0_01_R0_11_R1_00_T_E0'
p191
tp192
(S'2'
g91
tg15
tp193
a((S'2'
g36
tp194
(S'4'
S'E0_11_R0_10_R1_10_T_E0'
p195
tg6
tp196
a(g170
(S'1'
S'E0_01_R0_01_R1_11_T_E0'
p197
tg15
tp198
a((S'2'
S'E0_01_R0_10_R1_11_T_E0'
p199
tp200
(S'4'
S'E0_11_R0_10_R1_11_T_E0'
p201
tg6
tp202
a((S'2'
S'E0_00_R0_01_R1_10_T_E0'
p203
tp204
(S'2'
S'E0_00_R0_01_R1_10_T_E0'
p205
tg15
tp206
a(g105
(S'1'
S'E0_10_R0_11_R1_11_T_E0'
p207
tg15
tp208
a(g60
(S'1'
S'E0_10_R0_00_R1_11_T_E0'
p209
tg15
tp210
a((S'1'
S'E0_10_R0_11_R1_10_T_E0'
p211
tp212
(S'2'
S'E0_00_R0_11_R1_10_T_E0'
p213
tg20
tp214
a(g137
(S'3'
g87
tg6
tp215
a((S'1'
S'E0_01_R0_11_R1_10_T_E0'
p216
tp217
(S'3'
g185
tg6
tp218
a(g101
(S'4'
S'E0_11_R0_01_R1_01_T_E0'
p219
tg6
tp220
a(g68
(S'1'
S'E0_00_R0_01_R1_11_T_E0'
p221
tg15
tp222
a((S'1'
S'E0_10_R0_01_R1_11_T_E0'
p223
tp224
(S'2'
g107
tg20
tp225
a((S'1'
S'E0_00_R0_10_R1_00_T_E0'
p226
tp227
(S'1'
S'E0_00_R0_10_R1_00_T_E0'
p228
tg15
tp229
a((S'2'
S'E0_01_R0_00_R1_01_T_E0'
p230
tp231
(S'4'
S'E0_11_R0_00_R1_01_T_E0'
p232
tg6
tp233
a(g217
(S'1'
g116
tg15
tp234
a((S'2'
S'E0_00_R0_11_R1_01_T_E0'
p235
tp236
(S'4'
S'E0_10_R0_11_R1_01_T_E0'
p237
tg6
tp238
a(g192
(S'4'
S'E0_11_R0_11_R1_00_T_E0'
p239
tg6
tp240
a(g173
(S'2'
S'E0_01_R0_01_R1_10_T_E0'
p241
tg15
tp242
a((S'1'
S'E0_00_R0_00_R1_00_T_E0'
p243
tp244
(S'1'
S'E0_00_R0_00_R1_00_T_E0'
p245
tg15
tp246
a((S'1'
S'E0_11_R0_11_R1_00_T_E0'
p247
tp248
(S'1'
S'E0_11_R0_11_R1_00_T_E0'
p249
tg15
tp250
a((S'2'
g141
tp251
(S'4'
S'E0_11_R0_10_R1_01_T_E0'
p252
tg6
tp253
a((S'1'
S'E0_01_R0_00_R1_10_T_E0'
p254
tp255
(S'3'
S'E0_11_R0_00_R1_10_T_E0'
p256
tg6
tp257
a((S'1'
S'E0_11_R0_01_R1_01_T_E0'
p258
tp259
(S'2'
g100
tg20
tp260
a((S'1'
S'E0_11_R0_00_R1_11_T_E0'
p261
tp262
(S'2'
S'E0_01_R0_00_R1_11_T_E0'
p263
tg20
tp264
a((S'1'
S'E0_11_R0_11_R1_01_T_E0'
p265
tp266
(S'2'
S'E0_01_R0_11_R1_01_T_E0'
p267
tg20
tp268
a(g177
(S'1'
S'E0_00_R0_11_R1_10_T_E0'
p269
tg15
tp270
a(g94
(S'1'
S'E0_01_R0_00_R1_11_T_E0'
p271
tg15
tp272
a((S'1'
S'E0_00_R0_11_R1_01_T_E0'
p273
tp274
(S'3'
g237
tg6
tp275
a((S'1'
S'E0_00_R0_00_R1_10_T_E0'
p276
tp277
(S'3'
g10
tg6
tp278
a((S'1'
S'E0_11_R0_11_R1_11_T_E0'
p279
tp280
(S'1'
S'E0_11_R0_11_R1_11_T_E0'
p281
tg15
tp282
a(g13
(S'3'
g201
tg6
tp283
a(g140
(S'1'
S'E0_11_R0_10_R1_01_T_E0'
p284
tg15
tp285
a(g244
(S'3'
S'E0_10_R0_00_R1_00_T_E0'
p286
tg6
tp287
a(g231
(S'2'
S'E0_01_R0_00_R1_01_T_E0'
p288
tg15
tp289
a(g259
(S'1'
S'E0_11_R0_01_R1_01_T_E0'
p290
tg15
tp291
a((S'1'
S'E0_01_R0_11_R1_11_T_E0'
p292
tp293
(S'3'
S'E0_11_R0_11_R1_11_T_E0'
p294
tg6
tp295
a((S'1'
S'E0_00_R0_01_R1_10_T_E0'
p296
tp297
(S'3'
S'E0_10_R0_01_R1_10_T_E0'
p298
tg6
tp299
a((S'1'
S'E0_10_R0_11_R1_01_T_E0'
p300
tp301
(S'2'
g235
tg20
tp302
a((S'2'
g47
tp303
(S'4'
g286
tg6
tp304
a(g188
(S'2'
g199
tg20
tp305
a((S'1'
S'E0_01_R0_01_R1_10_T_E0'
p306
tp307
(S'3'
g174
tg6
tp308
a(g194
(S'2'
S'E0_01_R0_10_R1_10_T_E0'
p309
tg15
tp310
a((S'1'
S'E0_00_R0_10_R1_10_T_E0'
p311
tp312
(S'3'
S'E0_10_R0_10_R1_10_T_E0'
p313
tg6
tp314
a(g274
(S'1'
S'E0_00_R0_11_R1_01_T_E0'
p315
tg15
tp316
a(g236
(S'2'
g315
tg15
tp317
a((S'1'
S'E0_00_R0_10_R1_11_T_E0'
p318
tp319
(S'1'
S'E0_00_R0_10_R1_11_T_E0'
p320
tg15
tp321
a((S'1'
S'E0_00_R0_01_R1_00_T_E0'
p322
tp323
(S'3'
S'E0_10_R0_01_R1_00_T_E0'
p324
tg6
tp325
a((S'1'
S'E0_01_R0_10_R1_00_T_E0'
p326
tp327
(S'1'
S'E0_01_R0_10_R1_00_T_E0'
p328
tg15
tp329
a(g277
(S'1'
S'E0_00_R0_00_R1_10_T_E0'
p330
tg15
tp331
a((S'1'
S'E0_01_R0_11_R1_01_T_E0'
p332
tp333
(S'3'
S'E0_11_R0_11_R1_01_T_E0'
p334
tg6
tp335
a(g75
(S'2'
g8
tg20
tp336
a((S'2'
S'E0_00_R0_10_R1_00_T_E0'
p337
tp338
(S'2'
g228
tg15
tp339
a(g54
(S'4'
g157
tg6
tp340
a((S'2'
S'E0_00_R0_10_R1_10_T_E0'
p341
tp342
(S'2'
S'E0_00_R0_10_R1_10_T_E0'
p343
tg15
tp344
a((S'1'
S'E0_11_R0_00_R1_00_T_E0'
p345
tp346
(S'2'
g165
tg20
tp347
a(g227
(S'3'
S'E0_10_R0_10_R1_00_T_E0'
p348
tg6
tp349
a(g262
(S'1'
S'E0_11_R0_00_R1_11_T_E0'
p350
tg15
tp351
a((S'1'
S'E0_01_R0_01_R1_01_T_E0'
p352
tp353
(S'3'
g219
tg6
tp354
a((S'1'
S'E0_01_R0_00_R1_00_T_E0'
p355
tp356
(S'3'
S'E0_11_R0_00_R1_00_T_E0'
p357
tg6
tp358
a((S'2'
g263
tp359
(S'4'
g95
tg6
tp360
a(g147
(S'2'
g337
tg20
tp361
a(g131
(S'2'
g57
tg15
tp362
a((S'2'
g152
tp363
(S'4'
g256
tg6
tp364
a((S'2'
g267
tp365
(S'4'
g334
tg6
tp366
a((S'2'
S'E0_01_R0_11_R1_11_T_E0'
p367
tp368
(S'4'
g294
tg6
tp369
a(g90
(S'3'
g239
tg6
tp370
a(g151
(S'1'
S'E0_11_R0_00_R1_10_T_E0'
p371
tg15
tp372
a((S'2'
g213
tp373
(S'4'
g178
tg6
tp374
a(g166
(S'4'
g357
tg6
tp375
a(g251
(S'2'
S'E0_01_R0_10_R1_01_T_E0'
p376
tg15
tp377
a(g123
(S'2'
g130
tg20
tp378
a((S'2'
g118
tp379
(S'2'
g197
tg15
tp380
a(g27
(S'2'
S'E0_00_R0_11_R1_11_T_E0'
p381
tg15
tp382
a(g359
(S'2'
g271
tg15
tp383
a(g212
(S'1'
S'E0_10_R0_11_R1_10_T_E0'
p384
tg15
tp385
a(g204
(S'4'
g298
tg6
tp386
a(g307
(S'1'
g241
tg15
tp387
a(g127
(S'1'
S'E0_11_R0_01_R1_10_T_E0'
p388
tg15
tp389
a((S'1'
S'E0_01_R0_00_R1_01_T_E0'
p390
tp391
(S'1'
g288
tg15
tp392
a(g98
(S'1'
S'E0_11_R0_01_R1_00_T_E0'
p393
tg15
tp394
a(g356
(S'1'
g167
tg15
tp395
a(g342
(S'4'
g313
tg6
tp396
a(g301
(S'1'
S'E0_10_R0_11_R1_01_T_E0'
p397
tg15
tp398
a(g160
(S'2'
g230
tg20
tp399
a(g224
(S'1'
S'E0_10_R0_01_R1_11_T_E0'
p400
tg15
tp401
a((S'1'
S'E0_11_R0_11_R1_10_T_E0'
p402
tp403
(S'1'
S'E0_11_R0_11_R1_10_T_E0'
p404
tg15
tp405
a(g373
(S'2'
g269
tg15
tp406
a(g327
(S'3'
g32
tg6
tp407
a((S'1'
S'E0_01_R0_10_R1_10_T_E0'
p408
tp409
(S'1'
g309
tg15
tp410
a(g338
(S'4'
g348
tg6
tp411
a(g43
(S'1'
S'E0_11_R0_10_R1_00_T_E0'
p412
tg15
tp413
a(g18
(S'1'
S'E0_10_R0_01_R1_00_T_E0'
p414
tg15
tp415
a(g280
(S'2'
g367
tg20
tp416
a(g108
(S'2'
g221
tg15
tp417
a(g31
(S'2'
g328
tg15
tp418
a(g248
(S'2'
g191
tg20
tp419
a((S'1'
S'E0_01_R0_10_R1_01_T_E0'
p420
tp421
(S'1'
g376
tg15
tp422
a(g391
(S'3'
g232
tg6
tp423
a(g379
(S'4'
g171
tg6
tp424
a(g346
(S'1'
S'E0_11_R0_00_R1_00_T_E0'
p425
tg15
tp426
a(g143
(S'4'
g324
tg6
tp427
a(g319
(S'3'
S'E0_10_R0_10_R1_11_T_E0'
p428
tg6
tp429
a(g333
(S'1'
S'E0_01_R0_11_R1_01_T_E0'
p430
tg15
tp431
a(g363
(S'2'
S'E0_01_R0_00_R1_10_T_E0'
p432
tg15
tp433
a(g9
(S'2'
g330
tg15
tp434
a(g293
(S'1'
S'E0_01_R0_11_R1_11_T_E0'
p435
tg15
tp436
a((S'1'
S'E0_00_R0_10_R1_01_T_E0'
p437
tp438
(S'3'
g155
tg6
tp439
a(g200
(S'2'
g14
tg15
tp440
a(g438
(S'1'
S'E0_00_R0_10_R1_01_T_E0'
p441
tg15
tp442
a(g368
(S'2'
g435
tg15
tp443
a(g50
(S'2'
g203
tg20
tp444
a(g297
(S'1'
g205
tg15
tp445
a((S'1'
S'E0_10_R0_10_R1_10_T_E0'
p446
tp447
(S'2'
g341
tg20
tp448
a((S'1'
S'E0_10_R0_00_R1_01_T_E0'
p449
tp450
(S'2'
g85
tg20
tp451
a(g365
(S'2'
g430
tg15
tp452
a(g409
(S'3'
g195
tg6
tp453
a((S'2'
g180
tp454
(S'4'
g428
tg6
tp455
a(g266
(S'1'
S'E0_11_R0_11_R1_01_T_E0'
p456
tg15
tp457
a(g421
(S'3'
g252
tg6
tp458
a(g78
(S'2'
S'E0_00_R0_00_R1_11_T_E0'
p459
tg15
tp460
a(g323
(S'1'
g144
tg15
tp461
a(g255
(S'1'
g432
tg15
tp462
a(g183
(S'1'
g459
tg15
tp463
a(g71
(S'4'
g65
tg6
tp464
a(g447
(S'1'
S'E0_10_R0_10_R1_10_T_E0'
p465
tg15
tp466
a(g64
(S'1'
g72
tg15
tp467
a((S'1'
S'E0_00_R0_11_R1_11_T_E0'
p468
tp469
(S'3'
g28
tg6
tp470
a(g353
(S'1'
g102
tg15
tp471
a(g303
(S'2'
g245
tg15
tp472
a(g312
(S'1'
g343
tg15
tp473
a(g454
(S'2'
g320
tg15
tp474
a(g23
(S'1'
S'E0_10_R0_11_R1_00_T_E0'
p475
tg15
tp476
a(g46
(S'1'
S'E0_10_R0_00_R1_00_T_E0'
p477
tg15
tp478
a(g82
(S'1'
S'E0_10_R0_10_R1_01_T_E0'
p479
tg15
tp480
a(g469
(S'1'
g381
tg15
tp481
a(g154
(S'2'
g441
tg15
tp482
a(g450
(S'1'
S'E0_10_R0_00_R1_01_T_E0'
p483
tg15
tp484
a(g403
(S'2'
g114
tg20
tp485
atRp486
.