c__builtin__
set
p1
((lp2
((S'1'
S'E0_00_R0_11_R1_01_T_E0'
p3
tp4
(S'2'
S'E0_10_R0_11_R1_01_T_E0'
p5
tS'ee1'
p6
tp7
a((S'2'
S'E0_11_R0_00_R1_01_T_E0'
p8
tp9
(S'2'
S'E0_01_R0_00_R1_01_T_E0'
p10
tS'ww1'
p11
tp12
a((S'2'
S'E0_10_R0_01_R1_00_T_E0'
p13
tp14
(S'2'
S'E0_00_R0_01_R1_00_T_E0'
p15
tg11
tp16
a((S'1'
S'E0_01_R0_11_R1_01_T_E0'
p17
tp18
(S'2'
S'E0_11_R0_11_R1_01_T_E0'
p19
tg6
tp20
a((S'1'
S'E0_00_R0_00_R1_01_T_E0'
p21
tp22
(S'2'
S'E0_10_R0_00_R1_01_T_E0'
p23
tg6
tp24
a((S'1'
S'E0_10_R0_10_R1_11_T_E0'
p25
tp26
(S'1'
S'E0_10_R0_10_R1_11_T_E0'
p27
tS'oo0'
p28
tp29
a((S'2'
S'E0_10_R0_10_R1_00_T_E0'
p30
tp31
(S'2'
S'E0_00_R0_10_R1_00_T_E0'
p32
tg11
tp33
a((S'1'
S'E0_10_R0_01_R1_10_T_E0'
p34
tp35
(S'1'
S'E0_10_R0_01_R1_10_T_E0'
p36
tg28
tp37
a((S'1'
S'E0_01_R0_00_R1_11_T_E0'
p38
tp39
(S'1'
S'E0_01_R0_00_R1_11_T_E0'
p40
tg28
tp41
a((S'1'
S'E0_00_R0_01_R1_01_T_E0'
p42
tp43
(S'1'
S'E0_00_R0_01_R1_01_T_E0'
p44
tg28
tp45
a((S'1'
S'E0_11_R0_11_R1_01_T_E0'
p46
tp47
(S'1'
S'E0_01_R0_11_R1_01_T_E0'
p48
tg11
tp49
a((S'1'
S'E0_00_R0_01_R1_10_T_E0'
p50
tp51
(S'2'
S'E0_10_R0_01_R1_10_T_E0'
p52
tg6
tp53
a((S'1'
S'E0_11_R0_00_R1_11_T_E0'
p54
tp55
(S'1'
S'E0_01_R0_00_R1_11_T_E0'
p56
tg11
tp57
a((S'1'
S'E0_01_R0_11_R1_10_T_E0'
p58
tp59
(S'2'
S'E0_11_R0_11_R1_10_T_E0'
p60
tg6
tp61
a((S'1'
S'E0_10_R0_00_R1_10_T_E0'
p62
tp63
(S'1'
S'E0_10_R0_00_R1_10_T_E0'
p64
tg28
tp65
a((S'2'
S'E0_10_R0_11_R1_00_T_E0'
p66
tp67
(S'2'
S'E0_00_R0_11_R1_00_T_E0'
p68
tg11
tp69
a((S'1'
S'E0_01_R0_11_R1_00_T_E0'
p70
tp71
(S'1'
S'E0_01_R0_11_R1_00_T_E0'
p72
tg28
tp73
a((S'1'
S'E0_11_R0_01_R1_10_T_E0'
p74
tp75
(S'1'
S'E0_11_R0_01_R1_10_T_E0'
p76
tg28
tp77
a(g22
(S'1'
S'E0_00_R0_00_R1_01_T_E0'
p78
tg28
tp79
a((S'2'
S'E0_10_R0_00_R1_11_T_E0'
p80
tp81
(S'2'
S'E0_00_R0_00_R1_11_T_E0'
p82
tg11
tp83
a((S'1'
S'E0_01_R0_10_R1_11_T_E0'
p84
tp85
(S'2'
S'E0_11_R0_10_R1_11_T_E0'
p86
tg6
tp87
a((S'1'
S'E0_01_R0_01_R1_00_T_E0'
p88
tp89
(S'1'
S'E0_01_R0_01_R1_00_T_E0'
p90
tg28
tp91
a((S'1'
S'E0_11_R0_00_R1_01_T_E0'
p92
tp93
(S'1'
g10
tg11
tp94
a((S'1'
S'E0_10_R0_11_R1_10_T_E0'
p95
tp96
(S'1'
S'E0_10_R0_11_R1_10_T_E0'
p97
tg28
tp98
a((S'1'
S'E0_10_R0_10_R1_00_T_E0'
p99
tp100
(S'1'
S'E0_10_R0_10_R1_00_T_E0'
p101
tg28
tp102
a((S'1'
S'E0_01_R0_10_R1_01_T_E0'
p103
tp104
(S'2'
S'E0_11_R0_10_R1_01_T_E0'
p105
tg6
tp106
a((S'1'
S'E0_10_R0_11_R1_00_T_E0'
p107
tp108
(S'1'
g68
tg11
tp109
a((S'2'
g23
tp110
(S'2'
S'E0_00_R0_00_R1_01_T_E0'
p111
tg11
tp112
a((S'2'
S'E0_10_R0_10_R1_10_T_E0'
p113
tp114
(S'2'
S'E0_00_R0_10_R1_10_T_E0'
p115
tg11
tp116
a(g89
(S'2'
S'E0_11_R0_01_R1_00_T_E0'
p117
tg6
tp118
a(g93
(S'1'
S'E0_11_R0_00_R1_01_T_E0'
p119
tg28
tp120
a(g59
(S'1'
S'E0_01_R0_11_R1_10_T_E0'
p121
tg28
tp122
a((S'2'
g105
tp123
(S'2'
S'E0_01_R0_10_R1_01_T_E0'
p124
tg11
tp125
a((S'1'
S'E0_11_R0_00_R1_10_T_E0'
p126
tp127
(S'1'
S'E0_01_R0_00_R1_10_T_E0'
p128
tg11
tp129
a((S'1'
S'E0_11_R0_11_R1_00_T_E0'
p130
tp131
(S'1'
S'E0_01_R0_11_R1_00_T_E0'
p132
tg11
tp133
a((S'1'
S'E0_01_R0_01_R1_01_T_E0'
p134
tp135
(S'2'
S'E0_11_R0_01_R1_01_T_E0'
p136
tg6
tp137
a((S'2'
g60
tp138
(S'2'
S'E0_01_R0_11_R1_10_T_E0'
p139
tg11
tp140
a((S'1'
S'E0_11_R0_10_R1_11_T_E0'
p141
tp142
(S'1'
S'E0_11_R0_10_R1_11_T_E0'
p143
tg28
tp144
a(g63
(S'1'
S'E0_00_R0_00_R1_10_T_E0'
p145
tg11
tp146
a((S'1'
S'E0_10_R0_00_R1_00_T_E0'
p147
tp148
(S'1'
S'E0_00_R0_00_R1_00_T_E0'
p149
tg11
tp150
a((S'2'
S'E0_11_R0_11_R1_11_T_E0'
p151
tp152
(S'2'
S'E0_01_R0_11_R1_11_T_E0'
p153
tg11
tp154
a((S'1'
S'E0_10_R0_00_R1_11_T_E0'
p155
tp156
(S'1'
S'E0_10_R0_00_R1_11_T_E0'
p157
tg28
tp158
a((S'1'
S'E0_01_R0_01_R1_11_T_E0'
p159
tp160
(S'1'
S'E0_01_R0_01_R1_11_T_E0'
p161
tg28
tp162
a((S'1'
S'E0_00_R0_10_R1_10_T_E0'
p163
tp164
(S'1'
S'E0_00_R0_10_R1_10_T_E0'
p165
tg28
tp166
a(g164
(S'2'
g113
tg6
tp167
a((S'1'
S'E0_10_R0_10_R1_01_T_E0'
p168
tp169
(S'1'
S'E0_00_R0_10_R1_01_T_E0'
p170
tg11
tp171
a((S'1'
S'E0_10_R0_01_R1_01_T_E0'
p172
tp173
(S'1'
S'E0_00_R0_01_R1_01_T_E0'
p174
tg11
tp175
a((S'1'
S'E0_00_R0_00_R1_00_T_E0'
p176
tp177
(S'2'
S'E0_10_R0_00_R1_00_T_E0'
p178
tg6
tp179
a((S'1'
S'E0_10_R0_11_R1_11_T_E0'
p180
tp181
(S'1'
S'E0_10_R0_11_R1_11_T_E0'
p182
tg28
tp183
a(g156
(S'1'
g82
tg11
tp184
a((S'2'
S'E0_10_R0_11_R1_11_T_E0'
p185
tp186
(S'2'
S'E0_00_R0_11_R1_11_T_E0'
p187
tg11
tp188
a((S'2'
S'E0_10_R0_01_R1_11_T_E0'
p189
tp190
(S'2'
S'E0_00_R0_01_R1_11_T_E0'
p191
tg11
tp192
a((S'1'
S'E0_01_R0_00_R1_01_T_E0'
p193
tp194
(S'1'
S'E0_01_R0_00_R1_01_T_E0'
p195
tg28
tp196
a((S'2'
S'E0_11_R0_10_R1_10_T_E0'
p197
tp198
(S'2'
S'E0_01_R0_10_R1_10_T_E0'
p199
tg11
tp200
a(g131
(S'1'
S'E0_11_R0_11_R1_00_T_E0'
p201
tg28
tp202
a((S'2'
S'E0_10_R0_00_R1_10_T_E0'
p203
tp204
(S'2'
g145
tg11
tp205
a(g96
(S'1'
S'E0_00_R0_11_R1_10_T_E0'
p206
tg11
tp207
a((S'1'
S'E0_00_R0_10_R1_11_T_E0'
p208
tp209
(S'1'
S'E0_00_R0_10_R1_11_T_E0'
p210
tg28
tp211
a((S'1'
S'E0_00_R0_00_R1_10_T_E0'
p212
tp213
(S'1'
S'E0_00_R0_00_R1_10_T_E0'
p214
tg28
tp215
a((S'1'
S'E0_00_R0_01_R1_00_T_E0'
p216
tp217
(S'2'
g13
tg6
tp218
a((S'1'
S'E0_11_R0_11_R1_11_T_E0'
p219
tp220
(S'1'
S'E0_11_R0_11_R1_11_T_E0'
p221
tg28
tp222
a((S'2'
S'E0_11_R0_00_R1_11_T_E0'
p223
tp224
(S'2'
g56
tg11
tp225
a(g55
(S'1'
S'E0_11_R0_00_R1_11_T_E0'
p226
tg28
tp227
a((S'1'
S'E0_11_R0_10_R1_01_T_E0'
p228
tp229
(S'1'
S'E0_11_R0_10_R1_01_T_E0'
p230
tg28
tp231
a((S'2'
S'E0_10_R0_10_R1_11_T_E0'
p232
tp233
(S'2'
S'E0_00_R0_10_R1_11_T_E0'
p234
tg11
tp235
a((S'1'
S'E0_01_R0_00_R1_10_T_E0'
p236
tp237
(S'2'
S'E0_11_R0_00_R1_10_T_E0'
p238
tg6
tp239
a((S'1'
S'E0_10_R0_11_R1_01_T_E0'
p240
tp241
(S'1'
S'E0_00_R0_11_R1_01_T_E0'
p242
tg11
tp243
a((S'2'
g5
tp244
(S'2'
g242
tg11
tp245
a((S'1'
S'E0_11_R0_01_R1_01_T_E0'
p246
tp247
(S'1'
S'E0_11_R0_01_R1_01_T_E0'
p248
tg28
tp249
a((S'1'
S'E0_01_R0_11_R1_11_T_E0'
p250
tp251
(S'2'
g151
tg6
tp252
a(g4
(S'1'
S'E0_00_R0_11_R1_01_T_E0'
p253
tg28
tp254
a((S'1'
S'E0_11_R0_10_R1_00_T_E0'
p255
tp256
(S'1'
S'E0_01_R0_10_R1_00_T_E0'
p257
tg11
tp258
a((S'1'
S'E0_00_R0_11_R1_10_T_E0'
p259
tp260
(S'1'
S'E0_00_R0_11_R1_10_T_E0'
p261
tg28
tp262
a(g100
(S'1'
g32
tg11
tp263
a((S'1'
S'E0_01_R0_10_R1_00_T_E0'
p264
tp265
(S'1'
S'E0_01_R0_10_R1_00_T_E0'
p266
tg28
tp267
a((S'1'
S'E0_11_R0_11_R1_10_T_E0'
p268
tp269
(S'1'
S'E0_11_R0_11_R1_10_T_E0'
p270
tg28
tp271
a((S'1'
S'E0_00_R0_10_R1_01_T_E0'
p272
tp273
(S'2'
S'E0_10_R0_10_R1_01_T_E0'
p274
tg6
tp275
a((S'1'
S'E0_11_R0_01_R1_00_T_E0'
p276
tp277
(S'1'
S'E0_11_R0_01_R1_00_T_E0'
p278
tg28
tp279
a((S'1'
S'E0_00_R0_11_R1_00_T_E0'
p280
tp281
(S'1'
S'E0_00_R0_11_R1_00_T_E0'
p282
tg28
tp283
a((S'1'
S'E0_00_R0_01_R1_11_T_E0'
p284
tp285
(S'2'
g189
tg6
tp286
a((S'2'
S'E0_10_R0_01_R1_01_T_E0'
p287
tp288
(S'2'
g174
tg11
tp289
a((S'2'
g178
tp290
(S'2'
g149
tg11
tp291
a((S'1'
S'E0_11_R0_00_R1_00_T_E0'
p292
tp293
(S'1'
S'E0_01_R0_00_R1_00_T_E0'
p294
tg11
tp295
a((S'1'
S'E0_00_R0_11_R1_11_T_E0'
p296
tp297
(S'2'
g185
tg6
tp298
a(g265
(S'2'
S'E0_11_R0_10_R1_00_T_E0'
p299
tg6
tp300
a(g85
(S'1'
S'E0_01_R0_10_R1_11_T_E0'
p301
tg28
tp302
a((S'2'
S'E0_11_R0_01_R1_10_T_E0'
p303
tp304
(S'2'
S'E0_01_R0_01_R1_10_T_E0'
p305
tg11
tp306
a(g173
(S'1'
S'E0_10_R0_01_R1_01_T_E0'
p307
tg28
tp308
a((S'1'
S'E0_10_R0_01_R1_00_T_E0'
p309
tp310
(S'1'
S'E0_10_R0_01_R1_00_T_E0'
p311
tg28
tp312
a(g247
(S'1'
S'E0_01_R0_01_R1_01_T_E0'
p313
tg11
tp314
a(g39
(S'2'
g223
tg6
tp315
a(g229
(S'1'
g124
tg11
tp316
a(g135
(S'1'
S'E0_01_R0_01_R1_01_T_E0'
p317
tg28
tp318
a(g277
(S'1'
S'E0_01_R0_01_R1_00_T_E0'
p319
tg11
tp320
a((S'1'
S'E0_10_R0_01_R1_11_T_E0'
p321
tp322
(S'1'
S'E0_10_R0_01_R1_11_T_E0'
p323
tg28
tp324
a((S'2'
S'E0_11_R0_11_R1_00_T_E0'
p325
tp326
(S'2'
g132
tg11
tp327
a((S'1'
S'E0_10_R0_00_R1_01_T_E0'
p328
tp329
(S'1'
S'E0_10_R0_00_R1_01_T_E0'
p330
tg28
tp331
a((S'2'
g299
tp332
(S'2'
g257
tg11
tp333
a(g220
(S'1'
g153
tg11
tp334
a((S'1'
S'E0_00_R0_00_R1_11_T_E0'
p335
tp336
(S'2'
g80
tg6
tp337
a((S'2'
g117
tp338
(S'2'
g319
tg11
tp339
a((S'1'
S'E0_01_R0_01_R1_10_T_E0'
p340
tp341
(S'1'
S'E0_01_R0_01_R1_10_T_E0'
p342
tg28
tp343
a(g177
(S'1'
S'E0_00_R0_00_R1_00_T_E0'
p344
tg28
tp345
a(g273
(S'1'
S'E0_00_R0_10_R1_01_T_E0'
p346
tg28
tp347
a((S'1'
S'E0_01_R0_00_R1_00_T_E0'
p348
tp349
(S'1'
S'E0_01_R0_00_R1_00_T_E0'
p350
tg28
tp351
a(g241
(S'1'
S'E0_10_R0_11_R1_01_T_E0'
p352
tg28
tp353
a((S'1'
S'E0_00_R0_10_R1_00_T_E0'
p354
tp355
(S'1'
S'E0_00_R0_10_R1_00_T_E0'
p356
tg28
tp357
a(g26
(S'1'
g234
tg11
tp358
a(g329
(S'1'
g111
tg11
tp359
a(g341
(S'2'
g303
tg6
tp360
a((S'1'
S'E0_01_R0_10_R1_10_T_E0'
p361
tp362
(S'1'
S'E0_01_R0_10_R1_10_T_E0'
p363
tg28
tp364
a(g281
(S'2'
g66
tg6
tp365
a((S'1'
S'E0_11_R0_10_R1_10_T_E0'
p366
tp367
(S'1'
S'E0_11_R0_10_R1_10_T_E0'
p368
tg28
tp369
a(g297
(S'1'
S'E0_00_R0_11_R1_11_T_E0'
p370
tg28
tp371
a(g256
(S'1'
S'E0_11_R0_10_R1_00_T_E0'
p372
tg28
tp373
a(g194
(S'2'
g8
tg6
tp374
a(g104
(S'1'
S'E0_01_R0_10_R1_01_T_E0'
p375
tg28
tp376
a(g181
(S'1'
g187
tg11
tp377
a((S'2'
S'E0_10_R0_11_R1_10_T_E0'
p378
tp379
(S'2'
g206
tg11
tp380
a((S'1'
S'E0_10_R0_10_R1_10_T_E0'
p381
tp382
(S'1'
S'E0_10_R0_10_R1_10_T_E0'
p383
tg28
tp384
a((S'2'
g274
tp385
(S'2'
g170
tg11
tp386
a((S'2'
g19
tp387
(S'2'
g48
tg11
tp388
a(g213
(S'2'
g203
tg6
tp389
a((S'1'
S'E0_11_R0_01_R1_11_T_E0'
p390
tp391
(S'1'
S'E0_01_R0_01_R1_11_T_E0'
p392
tg11
tp393
a(g251
(S'1'
S'E0_01_R0_11_R1_11_T_E0'
p394
tg28
tp395
a(g367
(S'1'
g199
tg11
tp396
a(g269
(S'1'
g139
tg11
tp397
a((S'2'
S'E0_11_R0_00_R1_00_T_E0'
p398
tp399
(S'2'
g294
tg11
tp400
a(g75
(S'1'
g305
tg11
tp401
a((S'2'
g238
tp402
(S'2'
g128
tg11
tp403
a(g355
(S'2'
g30
tg6
tp404
a(g322
(S'1'
g191
tg11
tp405
a(g47
(S'1'
S'E0_11_R0_11_R1_01_T_E0'
p406
tg28
tp407
a(g35
(S'1'
S'E0_00_R0_01_R1_10_T_E0'
p408
tg11
tp409
a(g160
(S'2'
S'E0_11_R0_01_R1_11_T_E0'
p410
tg6
tp411
a(g209
(S'2'
g232
tg6
tp412
a(g382
(S'1'
g115
tg11
tp413
a(g169
(S'1'
S'E0_10_R0_10_R1_01_T_E0'
p414
tg28
tp415
a(g237
(S'1'
S'E0_01_R0_00_R1_10_T_E0'
p416
tg28
tp417
a(g336
(S'1'
S'E0_00_R0_00_R1_11_T_E0'
p418
tg28
tp419
a(g51
(S'1'
S'E0_00_R0_01_R1_10_T_E0'
p420
tg28
tp421
a((S'2'
g52
tp422
(S'2'
g408
tg11
tp423
a(g18
(S'1'
S'E0_01_R0_11_R1_01_T_E0'
p424
tg28
tp425
a(g260
(S'2'
g378
tg6
tp426
a((S'2'
g410
tp427
(S'2'
g392
tg11
tp428
a(g127
(S'1'
S'E0_11_R0_00_R1_10_T_E0'
p429
tg28
tp430
a(g391
(S'1'
S'E0_11_R0_01_R1_11_T_E0'
p431
tg28
tp432
a(g285
(S'1'
S'E0_00_R0_01_R1_11_T_E0'
p433
tg28
tp434
a(g293
(S'1'
S'E0_11_R0_00_R1_00_T_E0'
p435
tg28
tp436
a(g71
(S'2'
g325
tg6
tp437
a(g43
(S'2'
g287
tg6
tp438
a(g362
(S'2'
g197
tg6
tp439
a(g108
(S'1'
S'E0_10_R0_11_R1_00_T_E0'
p440
tg28
tp441
a(g148
(S'1'
S'E0_10_R0_00_R1_00_T_E0'
p442
tg28
tp443
a(g142
(S'1'
S'E0_01_R0_10_R1_11_T_E0'
p444
tg11
tp445
a(g310
(S'1'
g15
tg11
tp446
a(g217
(S'1'
S'E0_00_R0_01_R1_00_T_E0'
p447
tg28
tp448
a((S'2'
g136
tp449
(S'2'
g313
tg11
tp450
a((S'2'
g86
tp451
(S'2'
g444
tg11
tp452
a(g349
(S'2'
g398
tg6
tp453
atRp454
.